	.file	"PeiPcdLib.c"
	.option nopic
	.option norelax
	.attribute arch, "rv64i2p0_m2p0_a2p0_f2p0_d2p0_c2p0"
	.attribute unaligned_access, 0
	.attribute stack_align, 16
	.text
.Ltext0:
	.cfi_sections	.debug_frame
	.section	.rodata
	.align	3
.LC0:
	.string	"\nASSERT_EFI_ERROR (Status = %r)\n"
	.align	3
.LC1:
	.string	"!EFI_ERROR (Status)"
	.align	3
.LC2:
	.string	"/home/xephyr/Documents/edk2/MdePkg/Library/PeiPcdLib/PeiPcdLib.c"
	.section	.text.GetPcdPpiPointer,"ax",@progbits
	.align	1
	.globl	GetPcdPpiPointer
	.type	GetPcdPpiPointer, @function
GetPcdPpiPointer:
.LFB0:
	.file 1 "/home/xephyr/Documents/edk2/MdePkg/Library/PeiPcdLib/PeiPcdLib.c"
	.loc 1 38 1
	.cfi_startproc
	addi	sp,sp,-32
	.cfi_def_cfa_offset 32
	sd	ra,24(sp)
	sd	s0,16(sp)
	.cfi_offset 1, -8
	.cfi_offset 8, -16
	addi	s0,sp,32
	.cfi_def_cfa 8, 0
	.loc 1 42 12
	addi	a5,s0,-32
	mv	a3,a5
	li	a2,0
	li	a1,0
	lla	a0,gPcdPpiGuid
	call	PeiServicesLocatePpi
	sd	a0,-24(s0)
	.loc 1 43 12
	call	DebugAssertEnabled
	mv	a5,a0
	.loc 1 43 11
	beq	a5,zero,.L2
	.loc 1 43 43 discriminator 1
	ld	a5,-24(s0)
	.loc 1 43 40 discriminator 1
	bge	a5,zero,.L2
	.loc 1 43 91 discriminator 2
	call	DebugPrintEnabled
	mv	a5,a0
	.loc 1 43 90 discriminator 2
	beq	a5,zero,.L3
	.loc 1 43 124 discriminator 3
	li	a5,1
	slli	a0,a5,31
	call	DebugPrintLevelEnabled
	mv	a5,a0
	.loc 1 43 123 discriminator 3
	beq	a5,zero,.L3
	.loc 1 43 163 discriminator 5
	ld	a2,-24(s0)
	lla	a1,.LC0
	li	a5,1
	slli	a0,a5,31
	call	DebugPrint
.L3:
	.loc 1 43 296 discriminator 7
	lla	a2,.LC1
	li	a1,43
	lla	a0,.LC2
	call	UnitTestDebugAssert
.L2:
	.loc 1 45 10
	ld	a5,-32(s0)
	.loc 1 46 1
	mv	a0,a5
	ld	ra,24(sp)
	.cfi_restore 1
	ld	s0,16(sp)
	.cfi_restore 8
	.cfi_def_cfa 2, 32
	addi	sp,sp,32
	.cfi_def_cfa_offset 0
	jr	ra
	.cfi_endproc
.LFE0:
	.size	GetPcdPpiPointer, .-GetPcdPpiPointer
	.section	.text.GetPiPcdPpiPointer,"ax",@progbits
	.align	1
	.globl	GetPiPcdPpiPointer
	.type	GetPiPcdPpiPointer, @function
GetPiPcdPpiPointer:
.LFB1:
	.loc 1 61 1
	.cfi_startproc
	addi	sp,sp,-32
	.cfi_def_cfa_offset 32
	sd	ra,24(sp)
	sd	s0,16(sp)
	.cfi_offset 1, -8
	.cfi_offset 8, -16
	addi	s0,sp,32
	.cfi_def_cfa 8, 0
	.loc 1 65 12
	addi	a5,s0,-32
	mv	a3,a5
	li	a2,0
	li	a1,0
	lla	a0,gEfiPeiPcdPpiGuid
	call	PeiServicesLocatePpi
	sd	a0,-24(s0)
	.loc 1 66 12
	call	DebugAssertEnabled
	mv	a5,a0
	.loc 1 66 11
	beq	a5,zero,.L6
	.loc 1 66 43 discriminator 1
	ld	a5,-24(s0)
	.loc 1 66 40 discriminator 1
	bge	a5,zero,.L6
	.loc 1 66 91 discriminator 2
	call	DebugPrintEnabled
	mv	a5,a0
	.loc 1 66 90 discriminator 2
	beq	a5,zero,.L7
	.loc 1 66 124 discriminator 3
	li	a5,1
	slli	a0,a5,31
	call	DebugPrintLevelEnabled
	mv	a5,a0
	.loc 1 66 123 discriminator 3
	beq	a5,zero,.L7
	.loc 1 66 163 discriminator 5
	ld	a2,-24(s0)
	lla	a1,.LC0
	li	a5,1
	slli	a0,a5,31
	call	DebugPrint
.L7:
	.loc 1 66 296 discriminator 7
	lla	a2,.LC1
	li	a1,66
	lla	a0,.LC2
	call	UnitTestDebugAssert
.L6:
	.loc 1 68 10
	ld	a5,-32(s0)
	.loc 1 69 1
	mv	a0,a5
	ld	ra,24(sp)
	.cfi_restore 1
	ld	s0,16(sp)
	.cfi_restore 8
	.cfi_def_cfa 2, 32
	addi	sp,sp,32
	.cfi_def_cfa_offset 0
	jr	ra
	.cfi_endproc
.LFE1:
	.size	GetPiPcdPpiPointer, .-GetPiPcdPpiPointer
	.section	.text.GetPcdInfoPpiPointer,"ax",@progbits
	.align	1
	.globl	GetPcdInfoPpiPointer
	.type	GetPcdInfoPpiPointer, @function
GetPcdInfoPpiPointer:
.LFB2:
	.loc 1 84 1
	.cfi_startproc
	addi	sp,sp,-32
	.cfi_def_cfa_offset 32
	sd	ra,24(sp)
	sd	s0,16(sp)
	.cfi_offset 1, -8
	.cfi_offset 8, -16
	addi	s0,sp,32
	.cfi_def_cfa 8, 0
	.loc 1 88 12
	addi	a5,s0,-32
	mv	a3,a5
	li	a2,0
	li	a1,0
	lla	a0,gGetPcdInfoPpiGuid
	call	PeiServicesLocatePpi
	sd	a0,-24(s0)
	.loc 1 89 12
	call	DebugAssertEnabled
	mv	a5,a0
	.loc 1 89 11
	beq	a5,zero,.L10
	.loc 1 89 43 discriminator 1
	ld	a5,-24(s0)
	.loc 1 89 40 discriminator 1
	bge	a5,zero,.L10
	.loc 1 89 91 discriminator 2
	call	DebugPrintEnabled
	mv	a5,a0
	.loc 1 89 90 discriminator 2
	beq	a5,zero,.L11
	.loc 1 89 124 discriminator 3
	li	a5,1
	slli	a0,a5,31
	call	DebugPrintLevelEnabled
	mv	a5,a0
	.loc 1 89 123 discriminator 3
	beq	a5,zero,.L11
	.loc 1 89 163 discriminator 5
	ld	a2,-24(s0)
	lla	a1,.LC0
	li	a5,1
	slli	a0,a5,31
	call	DebugPrint
.L11:
	.loc 1 89 296 discriminator 7
	lla	a2,.LC1
	li	a1,89
	lla	a0,.LC2
	call	UnitTestDebugAssert
.L10:
	.loc 1 91 10
	ld	a5,-32(s0)
	.loc 1 92 1
	mv	a0,a5
	ld	ra,24(sp)
	.cfi_restore 1
	ld	s0,16(sp)
	.cfi_restore 8
	.cfi_def_cfa 2, 32
	addi	sp,sp,32
	.cfi_def_cfa_offset 0
	jr	ra
	.cfi_endproc
.LFE2:
	.size	GetPcdInfoPpiPointer, .-GetPcdInfoPpiPointer
	.section	.text.GetPiPcdInfoPpiPointer,"ax",@progbits
	.align	1
	.globl	GetPiPcdInfoPpiPointer
	.type	GetPiPcdInfoPpiPointer, @function
GetPiPcdInfoPpiPointer:
.LFB3:
	.loc 1 107 1
	.cfi_startproc
	addi	sp,sp,-32
	.cfi_def_cfa_offset 32
	sd	ra,24(sp)
	sd	s0,16(sp)
	.cfi_offset 1, -8
	.cfi_offset 8, -16
	addi	s0,sp,32
	.cfi_def_cfa 8, 0
	.loc 1 111 12
	addi	a5,s0,-32
	mv	a3,a5
	li	a2,0
	li	a1,0
	lla	a0,gEfiGetPcdInfoPpiGuid
	call	PeiServicesLocatePpi
	sd	a0,-24(s0)
	.loc 1 112 12
	call	DebugAssertEnabled
	mv	a5,a0
	.loc 1 112 11
	beq	a5,zero,.L14
	.loc 1 112 43 discriminator 1
	ld	a5,-24(s0)
	.loc 1 112 40 discriminator 1
	bge	a5,zero,.L14
	.loc 1 112 91 discriminator 2
	call	DebugPrintEnabled
	mv	a5,a0
	.loc 1 112 90 discriminator 2
	beq	a5,zero,.L15
	.loc 1 112 124 discriminator 3
	li	a5,1
	slli	a0,a5,31
	call	DebugPrintLevelEnabled
	mv	a5,a0
	.loc 1 112 123 discriminator 3
	beq	a5,zero,.L15
	.loc 1 112 163 discriminator 5
	ld	a2,-24(s0)
	lla	a1,.LC0
	li	a5,1
	slli	a0,a5,31
	call	DebugPrint
.L15:
	.loc 1 112 296 discriminator 7
	lla	a2,.LC1
	li	a1,112
	lla	a0,.LC2
	call	UnitTestDebugAssert
.L14:
	.loc 1 114 10
	ld	a5,-32(s0)
	.loc 1 115 1
	mv	a0,a5
	ld	ra,24(sp)
	.cfi_restore 1
	ld	s0,16(sp)
	.cfi_restore 8
	.cfi_def_cfa 2, 32
	addi	sp,sp,32
	.cfi_def_cfa_offset 0
	jr	ra
	.cfi_endproc
.LFE3:
	.size	GetPiPcdInfoPpiPointer, .-GetPiPcdInfoPpiPointer
	.section	.text.LibPcdSetSku,"ax",@progbits
	.align	1
	.globl	LibPcdSetSku
	.type	LibPcdSetSku, @function
LibPcdSetSku:
.LFB4:
	.loc 1 133 1
	.cfi_startproc
	addi	sp,sp,-32
	.cfi_def_cfa_offset 32
	sd	ra,24(sp)
	sd	s0,16(sp)
	.cfi_offset 1, -8
	.cfi_offset 8, -16
	addi	s0,sp,32
	.cfi_def_cfa 8, 0
	sd	a0,-24(s0)
	.loc 1 134 3
	call	GetPiPcdPpiPointer
	mv	a5,a0
	.loc 1 134 23
	ld	a5,0(a5)
	.loc 1 134 3
	ld	a0,-24(s0)
	jalr	a5
.LVL0:
	.loc 1 136 10
	ld	a5,-24(s0)
	.loc 1 137 1
	mv	a0,a5
	ld	ra,24(sp)
	.cfi_restore 1
	ld	s0,16(sp)
	.cfi_restore 8
	.cfi_def_cfa 2, 32
	addi	sp,sp,32
	.cfi_def_cfa_offset 0
	jr	ra
	.cfi_endproc
.LFE4:
	.size	LibPcdSetSku, .-LibPcdSetSku
	.section	.text.LibPcdGet8,"ax",@progbits
	.align	1
	.globl	LibPcdGet8
	.type	LibPcdGet8, @function
LibPcdGet8:
.LFB5:
	.loc 1 156 1
	.cfi_startproc
	addi	sp,sp,-32
	.cfi_def_cfa_offset 32
	sd	ra,24(sp)
	sd	s0,16(sp)
	.cfi_offset 1, -8
	.cfi_offset 8, -16
	addi	s0,sp,32
	.cfi_def_cfa 8, 0
	sd	a0,-24(s0)
	.loc 1 157 11
	call	GetPcdPpiPointer
	mv	a5,a0
	.loc 1 157 31
	ld	a5,8(a5)
	.loc 1 157 11
	ld	a0,-24(s0)
	jalr	a5
.LVL1:
	mv	a5,a0
	.loc 1 158 1
	mv	a0,a5
	ld	ra,24(sp)
	.cfi_restore 1
	ld	s0,16(sp)
	.cfi_restore 8
	.cfi_def_cfa 2, 32
	addi	sp,sp,32
	.cfi_def_cfa_offset 0
	jr	ra
	.cfi_endproc
.LFE5:
	.size	LibPcdGet8, .-LibPcdGet8
	.section	.text.LibPcdGet16,"ax",@progbits
	.align	1
	.globl	LibPcdGet16
	.type	LibPcdGet16, @function
LibPcdGet16:
.LFB6:
	.loc 1 177 1
	.cfi_startproc
	addi	sp,sp,-32
	.cfi_def_cfa_offset 32
	sd	ra,24(sp)
	sd	s0,16(sp)
	.cfi_offset 1, -8
	.cfi_offset 8, -16
	addi	s0,sp,32
	.cfi_def_cfa 8, 0
	sd	a0,-24(s0)
	.loc 1 178 11
	call	GetPcdPpiPointer
	mv	a5,a0
	.loc 1 178 31
	ld	a5,16(a5)
	.loc 1 178 11
	ld	a0,-24(s0)
	jalr	a5
.LVL2:
	mv	a5,a0
	.loc 1 179 1
	mv	a0,a5
	ld	ra,24(sp)
	.cfi_restore 1
	ld	s0,16(sp)
	.cfi_restore 8
	.cfi_def_cfa 2, 32
	addi	sp,sp,32
	.cfi_def_cfa_offset 0
	jr	ra
	.cfi_endproc
.LFE6:
	.size	LibPcdGet16, .-LibPcdGet16
	.section	.text.LibPcdGet32,"ax",@progbits
	.align	1
	.globl	LibPcdGet32
	.type	LibPcdGet32, @function
LibPcdGet32:
.LFB7:
	.loc 1 198 1
	.cfi_startproc
	addi	sp,sp,-32
	.cfi_def_cfa_offset 32
	sd	ra,24(sp)
	sd	s0,16(sp)
	.cfi_offset 1, -8
	.cfi_offset 8, -16
	addi	s0,sp,32
	.cfi_def_cfa 8, 0
	sd	a0,-24(s0)
	.loc 1 199 11
	call	GetPcdPpiPointer
	mv	a5,a0
	.loc 1 199 31
	ld	a5,24(a5)
	.loc 1 199 11
	ld	a0,-24(s0)
	jalr	a5
.LVL3:
	mv	a5,a0
	sext.w	a5,a5
	.loc 1 200 1
	mv	a0,a5
	ld	ra,24(sp)
	.cfi_restore 1
	ld	s0,16(sp)
	.cfi_restore 8
	.cfi_def_cfa 2, 32
	addi	sp,sp,32
	.cfi_def_cfa_offset 0
	jr	ra
	.cfi_endproc
.LFE7:
	.size	LibPcdGet32, .-LibPcdGet32
	.section	.text.LibPcdGet64,"ax",@progbits
	.align	1
	.globl	LibPcdGet64
	.type	LibPcdGet64, @function
LibPcdGet64:
.LFB8:
	.loc 1 219 1
	.cfi_startproc
	addi	sp,sp,-32
	.cfi_def_cfa_offset 32
	sd	ra,24(sp)
	sd	s0,16(sp)
	.cfi_offset 1, -8
	.cfi_offset 8, -16
	addi	s0,sp,32
	.cfi_def_cfa 8, 0
	sd	a0,-24(s0)
	.loc 1 220 11
	call	GetPcdPpiPointer
	mv	a5,a0
	.loc 1 220 31
	ld	a5,32(a5)
	.loc 1 220 11
	ld	a0,-24(s0)
	jalr	a5
.LVL4:
	mv	a5,a0
	.loc 1 221 1
	mv	a0,a5
	ld	ra,24(sp)
	.cfi_restore 1
	ld	s0,16(sp)
	.cfi_restore 8
	.cfi_def_cfa 2, 32
	addi	sp,sp,32
	.cfi_def_cfa_offset 0
	jr	ra
	.cfi_endproc
.LFE8:
	.size	LibPcdGet64, .-LibPcdGet64
	.section	.text.LibPcdGetPtr,"ax",@progbits
	.align	1
	.globl	LibPcdGetPtr
	.type	LibPcdGetPtr, @function
LibPcdGetPtr:
.LFB9:
	.loc 1 240 1
	.cfi_startproc
	addi	sp,sp,-32
	.cfi_def_cfa_offset 32
	sd	ra,24(sp)
	sd	s0,16(sp)
	.cfi_offset 1, -8
	.cfi_offset 8, -16
	addi	s0,sp,32
	.cfi_def_cfa 8, 0
	sd	a0,-24(s0)
	.loc 1 241 11
	call	GetPcdPpiPointer
	mv	a5,a0
	.loc 1 241 31
	ld	a5,40(a5)
	.loc 1 241 11
	ld	a0,-24(s0)
	jalr	a5
.LVL5:
	mv	a5,a0
	.loc 1 242 1
	mv	a0,a5
	ld	ra,24(sp)
	.cfi_restore 1
	ld	s0,16(sp)
	.cfi_restore 8
	.cfi_def_cfa 2, 32
	addi	sp,sp,32
	.cfi_def_cfa_offset 0
	jr	ra
	.cfi_endproc
.LFE9:
	.size	LibPcdGetPtr, .-LibPcdGetPtr
	.section	.text.LibPcdGetBool,"ax",@progbits
	.align	1
	.globl	LibPcdGetBool
	.type	LibPcdGetBool, @function
LibPcdGetBool:
.LFB10:
	.loc 1 261 1
	.cfi_startproc
	addi	sp,sp,-32
	.cfi_def_cfa_offset 32
	sd	ra,24(sp)
	sd	s0,16(sp)
	.cfi_offset 1, -8
	.cfi_offset 8, -16
	addi	s0,sp,32
	.cfi_def_cfa 8, 0
	sd	a0,-24(s0)
	.loc 1 262 11
	call	GetPcdPpiPointer
	mv	a5,a0
	.loc 1 262 31
	ld	a5,48(a5)
	.loc 1 262 11
	ld	a0,-24(s0)
	jalr	a5
.LVL6:
	mv	a5,a0
	.loc 1 263 1
	mv	a0,a5
	ld	ra,24(sp)
	.cfi_restore 1
	ld	s0,16(sp)
	.cfi_restore 8
	.cfi_def_cfa 2, 32
	addi	sp,sp,32
	.cfi_def_cfa_offset 0
	jr	ra
	.cfi_endproc
.LFE10:
	.size	LibPcdGetBool, .-LibPcdGetBool
	.section	.text.LibPcdGetSize,"ax",@progbits
	.align	1
	.globl	LibPcdGetSize
	.type	LibPcdGetSize, @function
LibPcdGetSize:
.LFB11:
	.loc 1 280 1
	.cfi_startproc
	addi	sp,sp,-32
	.cfi_def_cfa_offset 32
	sd	ra,24(sp)
	sd	s0,16(sp)
	.cfi_offset 1, -8
	.cfi_offset 8, -16
	addi	s0,sp,32
	.cfi_def_cfa 8, 0
	sd	a0,-24(s0)
	.loc 1 281 11
	call	GetPcdPpiPointer
	mv	a5,a0
	.loc 1 281 31
	ld	a5,56(a5)
	.loc 1 281 11
	ld	a0,-24(s0)
	jalr	a5
.LVL7:
	mv	a5,a0
	.loc 1 282 1
	mv	a0,a5
	ld	ra,24(sp)
	.cfi_restore 1
	ld	s0,16(sp)
	.cfi_restore 8
	.cfi_def_cfa 2, 32
	addi	sp,sp,32
	.cfi_def_cfa_offset 0
	jr	ra
	.cfi_endproc
.LFE11:
	.size	LibPcdGetSize, .-LibPcdGetSize
	.section	.rodata
	.align	3
.LC3:
	.string	"Guid != ((void *) 0)"
	.section	.text.LibPcdGetEx8,"ax",@progbits
	.align	1
	.globl	LibPcdGetEx8
	.type	LibPcdGetEx8, @function
LibPcdGetEx8:
.LFB12:
	.loc 1 306 1
	.cfi_startproc
	addi	sp,sp,-32
	.cfi_def_cfa_offset 32
	sd	ra,24(sp)
	sd	s0,16(sp)
	.cfi_offset 1, -8
	.cfi_offset 8, -16
	addi	s0,sp,32
	.cfi_def_cfa 8, 0
	sd	a0,-24(s0)
	sd	a1,-32(s0)
	.loc 1 307 12
	call	DebugAssertEnabled
	mv	a5,a0
	.loc 1 307 11
	beq	a5,zero,.L34
	.loc 1 307 40 discriminator 1
	ld	a5,-24(s0)
	bne	a5,zero,.L34
	.loc 1 307 68 discriminator 2
	lla	a2,.LC3
	li	a1,307
	lla	a0,.LC2
	call	UnitTestDebugAssert
.L34:
	.loc 1 309 11
	call	GetPiPcdPpiPointer
	mv	a5,a0
	.loc 1 309 33
	ld	a5,8(a5)
	.loc 1 309 11
	ld	a1,-32(s0)
	ld	a0,-24(s0)
	jalr	a5
.LVL8:
	mv	a5,a0
	.loc 1 310 1
	mv	a0,a5
	ld	ra,24(sp)
	.cfi_restore 1
	ld	s0,16(sp)
	.cfi_restore 8
	.cfi_def_cfa 2, 32
	addi	sp,sp,32
	.cfi_def_cfa_offset 0
	jr	ra
	.cfi_endproc
.LFE12:
	.size	LibPcdGetEx8, .-LibPcdGetEx8
	.section	.text.LibPcdGetEx16,"ax",@progbits
	.align	1
	.globl	LibPcdGetEx16
	.type	LibPcdGetEx16, @function
LibPcdGetEx16:
.LFB13:
	.loc 1 334 1
	.cfi_startproc
	addi	sp,sp,-32
	.cfi_def_cfa_offset 32
	sd	ra,24(sp)
	sd	s0,16(sp)
	.cfi_offset 1, -8
	.cfi_offset 8, -16
	addi	s0,sp,32
	.cfi_def_cfa 8, 0
	sd	a0,-24(s0)
	sd	a1,-32(s0)
	.loc 1 336 12
	call	DebugAssertEnabled
	mv	a5,a0
	.loc 1 336 11
	beq	a5,zero,.L37
	.loc 1 336 40 discriminator 1
	ld	a5,-24(s0)
	bne	a5,zero,.L37
	.loc 1 336 68 discriminator 2
	lla	a2,.LC3
	li	a1,336
	lla	a0,.LC2
	call	UnitTestDebugAssert
.L37:
	.loc 1 338 11
	call	GetPiPcdPpiPointer
	mv	a5,a0
	.loc 1 338 33
	ld	a5,16(a5)
	.loc 1 338 11
	ld	a1,-32(s0)
	ld	a0,-24(s0)
	jalr	a5
.LVL9:
	mv	a5,a0
	.loc 1 339 1
	mv	a0,a5
	ld	ra,24(sp)
	.cfi_restore 1
	ld	s0,16(sp)
	.cfi_restore 8
	.cfi_def_cfa 2, 32
	addi	sp,sp,32
	.cfi_def_cfa_offset 0
	jr	ra
	.cfi_endproc
.LFE13:
	.size	LibPcdGetEx16, .-LibPcdGetEx16
	.section	.text.LibPcdGetEx32,"ax",@progbits
	.align	1
	.globl	LibPcdGetEx32
	.type	LibPcdGetEx32, @function
LibPcdGetEx32:
.LFB14:
	.loc 1 360 1
	.cfi_startproc
	addi	sp,sp,-32
	.cfi_def_cfa_offset 32
	sd	ra,24(sp)
	sd	s0,16(sp)
	.cfi_offset 1, -8
	.cfi_offset 8, -16
	addi	s0,sp,32
	.cfi_def_cfa 8, 0
	sd	a0,-24(s0)
	sd	a1,-32(s0)
	.loc 1 361 12
	call	DebugAssertEnabled
	mv	a5,a0
	.loc 1 361 11
	beq	a5,zero,.L40
	.loc 1 361 40 discriminator 1
	ld	a5,-24(s0)
	bne	a5,zero,.L40
	.loc 1 361 68 discriminator 2
	lla	a2,.LC3
	li	a1,361
	lla	a0,.LC2
	call	UnitTestDebugAssert
.L40:
	.loc 1 363 11
	call	GetPiPcdPpiPointer
	mv	a5,a0
	.loc 1 363 33
	ld	a5,24(a5)
	.loc 1 363 11
	ld	a1,-32(s0)
	ld	a0,-24(s0)
	jalr	a5
.LVL10:
	mv	a5,a0
	sext.w	a5,a5
	.loc 1 364 1
	mv	a0,a5
	ld	ra,24(sp)
	.cfi_restore 1
	ld	s0,16(sp)
	.cfi_restore 8
	.cfi_def_cfa 2, 32
	addi	sp,sp,32
	.cfi_def_cfa_offset 0
	jr	ra
	.cfi_endproc
.LFE14:
	.size	LibPcdGetEx32, .-LibPcdGetEx32
	.section	.text.LibPcdGetEx64,"ax",@progbits
	.align	1
	.globl	LibPcdGetEx64
	.type	LibPcdGetEx64, @function
LibPcdGetEx64:
.LFB15:
	.loc 1 389 1
	.cfi_startproc
	addi	sp,sp,-32
	.cfi_def_cfa_offset 32
	sd	ra,24(sp)
	sd	s0,16(sp)
	.cfi_offset 1, -8
	.cfi_offset 8, -16
	addi	s0,sp,32
	.cfi_def_cfa 8, 0
	sd	a0,-24(s0)
	sd	a1,-32(s0)
	.loc 1 390 12
	call	DebugAssertEnabled
	mv	a5,a0
	.loc 1 390 11
	beq	a5,zero,.L43
	.loc 1 390 40 discriminator 1
	ld	a5,-24(s0)
	bne	a5,zero,.L43
	.loc 1 390 68 discriminator 2
	lla	a2,.LC3
	li	a1,390
	lla	a0,.LC2
	call	UnitTestDebugAssert
.L43:
	.loc 1 391 11
	call	GetPiPcdPpiPointer
	mv	a5,a0
	.loc 1 391 33
	ld	a5,32(a5)
	.loc 1 391 11
	ld	a1,-32(s0)
	ld	a0,-24(s0)
	jalr	a5
.LVL11:
	mv	a5,a0
	.loc 1 392 1
	mv	a0,a5
	ld	ra,24(sp)
	.cfi_restore 1
	ld	s0,16(sp)
	.cfi_restore 8
	.cfi_def_cfa 2, 32
	addi	sp,sp,32
	.cfi_def_cfa_offset 0
	jr	ra
	.cfi_endproc
.LFE15:
	.size	LibPcdGetEx64, .-LibPcdGetEx64
	.section	.text.LibPcdGetExPtr,"ax",@progbits
	.align	1
	.globl	LibPcdGetExPtr
	.type	LibPcdGetExPtr, @function
LibPcdGetExPtr:
.LFB16:
	.loc 1 416 1
	.cfi_startproc
	addi	sp,sp,-32
	.cfi_def_cfa_offset 32
	sd	ra,24(sp)
	sd	s0,16(sp)
	.cfi_offset 1, -8
	.cfi_offset 8, -16
	addi	s0,sp,32
	.cfi_def_cfa 8, 0
	sd	a0,-24(s0)
	sd	a1,-32(s0)
	.loc 1 417 12
	call	DebugAssertEnabled
	mv	a5,a0
	.loc 1 417 11
	beq	a5,zero,.L46
	.loc 1 417 40 discriminator 1
	ld	a5,-24(s0)
	bne	a5,zero,.L46
	.loc 1 417 68 discriminator 2
	lla	a2,.LC3
	li	a1,417
	lla	a0,.LC2
	call	UnitTestDebugAssert
.L46:
	.loc 1 419 11
	call	GetPiPcdPpiPointer
	mv	a5,a0
	.loc 1 419 33
	ld	a5,40(a5)
	.loc 1 419 11
	ld	a1,-32(s0)
	ld	a0,-24(s0)
	jalr	a5
.LVL12:
	mv	a5,a0
	.loc 1 420 1
	mv	a0,a5
	ld	ra,24(sp)
	.cfi_restore 1
	ld	s0,16(sp)
	.cfi_restore 8
	.cfi_def_cfa 2, 32
	addi	sp,sp,32
	.cfi_def_cfa_offset 0
	jr	ra
	.cfi_endproc
.LFE16:
	.size	LibPcdGetExPtr, .-LibPcdGetExPtr
	.section	.text.LibPcdGetExBool,"ax",@progbits
	.align	1
	.globl	LibPcdGetExBool
	.type	LibPcdGetExBool, @function
LibPcdGetExBool:
.LFB17:
	.loc 1 444 1
	.cfi_startproc
	addi	sp,sp,-32
	.cfi_def_cfa_offset 32
	sd	ra,24(sp)
	sd	s0,16(sp)
	.cfi_offset 1, -8
	.cfi_offset 8, -16
	addi	s0,sp,32
	.cfi_def_cfa 8, 0
	sd	a0,-24(s0)
	sd	a1,-32(s0)
	.loc 1 445 12
	call	DebugAssertEnabled
	mv	a5,a0
	.loc 1 445 11
	beq	a5,zero,.L49
	.loc 1 445 40 discriminator 1
	ld	a5,-24(s0)
	bne	a5,zero,.L49
	.loc 1 445 68 discriminator 2
	lla	a2,.LC3
	li	a1,445
	lla	a0,.LC2
	call	UnitTestDebugAssert
.L49:
	.loc 1 446 11
	call	GetPiPcdPpiPointer
	mv	a5,a0
	.loc 1 446 33
	ld	a5,48(a5)
	.loc 1 446 11
	ld	a1,-32(s0)
	ld	a0,-24(s0)
	jalr	a5
.LVL13:
	mv	a5,a0
	.loc 1 447 1
	mv	a0,a5
	ld	ra,24(sp)
	.cfi_restore 1
	ld	s0,16(sp)
	.cfi_restore 8
	.cfi_def_cfa 2, 32
	addi	sp,sp,32
	.cfi_def_cfa_offset 0
	jr	ra
	.cfi_endproc
.LFE17:
	.size	LibPcdGetExBool, .-LibPcdGetExBool
	.section	.text.LibPcdGetExSize,"ax",@progbits
	.align	1
	.globl	LibPcdGetExSize
	.type	LibPcdGetExSize, @function
LibPcdGetExSize:
.LFB18:
	.loc 1 471 1
	.cfi_startproc
	addi	sp,sp,-32
	.cfi_def_cfa_offset 32
	sd	ra,24(sp)
	sd	s0,16(sp)
	.cfi_offset 1, -8
	.cfi_offset 8, -16
	addi	s0,sp,32
	.cfi_def_cfa 8, 0
	sd	a0,-24(s0)
	sd	a1,-32(s0)
	.loc 1 472 12
	call	DebugAssertEnabled
	mv	a5,a0
	.loc 1 472 11
	beq	a5,zero,.L52
	.loc 1 472 40 discriminator 1
	ld	a5,-24(s0)
	bne	a5,zero,.L52
	.loc 1 472 68 discriminator 2
	lla	a2,.LC3
	li	a1,472
	lla	a0,.LC2
	call	UnitTestDebugAssert
.L52:
	.loc 1 473 11
	call	GetPiPcdPpiPointer
	mv	a5,a0
	.loc 1 473 33
	ld	a5,56(a5)
	.loc 1 473 11
	ld	a1,-32(s0)
	ld	a0,-24(s0)
	jalr	a5
.LVL14:
	mv	a5,a0
	.loc 1 474 1
	mv	a0,a5
	ld	ra,24(sp)
	.cfi_restore 1
	ld	s0,16(sp)
	.cfi_restore 8
	.cfi_def_cfa 2, 32
	addi	sp,sp,32
	.cfi_def_cfa_offset 0
	jr	ra
	.cfi_endproc
.LFE18:
	.size	LibPcdGetExSize, .-LibPcdGetExSize
	.section	.text.LibPcdSet8S,"ax",@progbits
	.align	1
	.globl	LibPcdSet8S
	.type	LibPcdSet8S, @function
LibPcdSet8S:
.LFB19:
	.loc 1 495 1
	.cfi_startproc
	addi	sp,sp,-32
	.cfi_def_cfa_offset 32
	sd	ra,24(sp)
	sd	s0,16(sp)
	.cfi_offset 1, -8
	.cfi_offset 8, -16
	addi	s0,sp,32
	.cfi_def_cfa 8, 0
	sd	a0,-24(s0)
	mv	a5,a1
	sb	a5,-25(s0)
	.loc 1 496 11
	call	GetPcdPpiPointer
	mv	a5,a0
	.loc 1 496 31
	ld	a4,120(a5)
	.loc 1 496 11
	lbu	a5,-25(s0)
	mv	a1,a5
	ld	a0,-24(s0)
	jalr	a4
.LVL15:
	mv	a5,a0
	.loc 1 497 1
	mv	a0,a5
	ld	ra,24(sp)
	.cfi_restore 1
	ld	s0,16(sp)
	.cfi_restore 8
	.cfi_def_cfa 2, 32
	addi	sp,sp,32
	.cfi_def_cfa_offset 0
	jr	ra
	.cfi_endproc
.LFE19:
	.size	LibPcdSet8S, .-LibPcdSet8S
	.section	.text.LibPcdSet16S,"ax",@progbits
	.align	1
	.globl	LibPcdSet16S
	.type	LibPcdSet16S, @function
LibPcdSet16S:
.LFB20:
	.loc 1 517 1
	.cfi_startproc
	addi	sp,sp,-32
	.cfi_def_cfa_offset 32
	sd	ra,24(sp)
	sd	s0,16(sp)
	.cfi_offset 1, -8
	.cfi_offset 8, -16
	addi	s0,sp,32
	.cfi_def_cfa 8, 0
	sd	a0,-24(s0)
	mv	a5,a1
	sh	a5,-26(s0)
	.loc 1 518 11
	call	GetPcdPpiPointer
	mv	a5,a0
	.loc 1 518 31
	ld	a4,128(a5)
	.loc 1 518 11
	lhu	a5,-26(s0)
	mv	a1,a5
	ld	a0,-24(s0)
	jalr	a4
.LVL16:
	mv	a5,a0
	.loc 1 519 1
	mv	a0,a5
	ld	ra,24(sp)
	.cfi_restore 1
	ld	s0,16(sp)
	.cfi_restore 8
	.cfi_def_cfa 2, 32
	addi	sp,sp,32
	.cfi_def_cfa_offset 0
	jr	ra
	.cfi_endproc
.LFE20:
	.size	LibPcdSet16S, .-LibPcdSet16S
	.section	.text.LibPcdSet32S,"ax",@progbits
	.align	1
	.globl	LibPcdSet32S
	.type	LibPcdSet32S, @function
LibPcdSet32S:
.LFB21:
	.loc 1 539 1
	.cfi_startproc
	addi	sp,sp,-32
	.cfi_def_cfa_offset 32
	sd	ra,24(sp)
	sd	s0,16(sp)
	.cfi_offset 1, -8
	.cfi_offset 8, -16
	addi	s0,sp,32
	.cfi_def_cfa 8, 0
	sd	a0,-24(s0)
	mv	a5,a1
	sw	a5,-28(s0)
	.loc 1 540 11
	call	GetPcdPpiPointer
	mv	a5,a0
	.loc 1 540 31
	ld	a4,136(a5)
	.loc 1 540 11
	lw	a5,-28(s0)
	mv	a1,a5
	ld	a0,-24(s0)
	jalr	a4
.LVL17:
	mv	a5,a0
	.loc 1 541 1
	mv	a0,a5
	ld	ra,24(sp)
	.cfi_restore 1
	ld	s0,16(sp)
	.cfi_restore 8
	.cfi_def_cfa 2, 32
	addi	sp,sp,32
	.cfi_def_cfa_offset 0
	jr	ra
	.cfi_endproc
.LFE21:
	.size	LibPcdSet32S, .-LibPcdSet32S
	.section	.text.LibPcdSet64S,"ax",@progbits
	.align	1
	.globl	LibPcdSet64S
	.type	LibPcdSet64S, @function
LibPcdSet64S:
.LFB22:
	.loc 1 561 1
	.cfi_startproc
	addi	sp,sp,-32
	.cfi_def_cfa_offset 32
	sd	ra,24(sp)
	sd	s0,16(sp)
	.cfi_offset 1, -8
	.cfi_offset 8, -16
	addi	s0,sp,32
	.cfi_def_cfa 8, 0
	sd	a0,-24(s0)
	sd	a1,-32(s0)
	.loc 1 562 11
	call	GetPcdPpiPointer
	mv	a5,a0
	.loc 1 562 31
	ld	a5,144(a5)
	.loc 1 562 11
	ld	a1,-32(s0)
	ld	a0,-24(s0)
	jalr	a5
.LVL18:
	mv	a5,a0
	.loc 1 563 1
	mv	a0,a5
	ld	ra,24(sp)
	.cfi_restore 1
	ld	s0,16(sp)
	.cfi_restore 8
	.cfi_def_cfa 2, 32
	addi	sp,sp,32
	.cfi_def_cfa_offset 0
	jr	ra
	.cfi_endproc
.LFE22:
	.size	LibPcdSet64S, .-LibPcdSet64S
	.section	.rodata
	.align	3
.LC4:
	.string	"SizeOfBuffer != ((void *) 0)"
	.align	3
.LC5:
	.string	"Buffer != ((void *) 0)"
	.section	.text.LibPcdSetPtrS,"ax",@progbits
	.align	1
	.globl	LibPcdSetPtrS
	.type	LibPcdSetPtrS, @function
LibPcdSetPtrS:
.LFB23:
	.loc 1 594 1
	.cfi_startproc
	addi	sp,sp,-48
	.cfi_def_cfa_offset 48
	sd	ra,40(sp)
	sd	s0,32(sp)
	.cfi_offset 1, -8
	.cfi_offset 8, -16
	addi	s0,sp,48
	.cfi_def_cfa 8, 0
	sd	a0,-24(s0)
	sd	a1,-32(s0)
	sd	a2,-40(s0)
	.loc 1 595 12
	call	DebugAssertEnabled
	mv	a5,a0
	.loc 1 595 11
	beq	a5,zero,.L63
	.loc 1 595 40 discriminator 1
	ld	a5,-32(s0)
	bne	a5,zero,.L63
	.loc 1 595 76 discriminator 2
	lla	a2,.LC4
	li	a1,595
	lla	a0,.LC2
	call	UnitTestDebugAssert
.L63:
	.loc 1 597 7
	ld	a5,-32(s0)
	ld	a5,0(a5)
	.loc 1 597 6
	beq	a5,zero,.L64
	.loc 1 598 14
	call	DebugAssertEnabled
	mv	a5,a0
	.loc 1 598 13
	beq	a5,zero,.L64
	.loc 1 598 42 discriminator 1
	ld	a5,-40(s0)
	bne	a5,zero,.L64
	.loc 1 598 72 discriminator 2
	lla	a2,.LC5
	li	a1,598
	lla	a0,.LC2
	call	UnitTestDebugAssert
.L64:
	.loc 1 601 11
	call	GetPcdPpiPointer
	mv	a5,a0
	.loc 1 601 31
	ld	a5,152(a5)
	.loc 1 601 11
	ld	a2,-40(s0)
	ld	a1,-32(s0)
	ld	a0,-24(s0)
	jalr	a5
.LVL19:
	mv	a5,a0
	.loc 1 602 1
	mv	a0,a5
	ld	ra,40(sp)
	.cfi_restore 1
	ld	s0,32(sp)
	.cfi_restore 8
	.cfi_def_cfa 2, 48
	addi	sp,sp,48
	.cfi_def_cfa_offset 0
	jr	ra
	.cfi_endproc
.LFE23:
	.size	LibPcdSetPtrS, .-LibPcdSetPtrS
	.section	.text.LibPcdSetBoolS,"ax",@progbits
	.align	1
	.globl	LibPcdSetBoolS
	.type	LibPcdSetBoolS, @function
LibPcdSetBoolS:
.LFB24:
	.loc 1 622 1
	.cfi_startproc
	addi	sp,sp,-32
	.cfi_def_cfa_offset 32
	sd	ra,24(sp)
	sd	s0,16(sp)
	.cfi_offset 1, -8
	.cfi_offset 8, -16
	addi	s0,sp,32
	.cfi_def_cfa 8, 0
	sd	a0,-24(s0)
	mv	a5,a1
	sb	a5,-25(s0)
	.loc 1 623 11
	call	GetPcdPpiPointer
	mv	a5,a0
	.loc 1 623 31
	ld	a4,160(a5)
	.loc 1 623 11
	lbu	a5,-25(s0)
	mv	a1,a5
	ld	a0,-24(s0)
	jalr	a4
.LVL20:
	mv	a5,a0
	.loc 1 624 1
	mv	a0,a5
	ld	ra,24(sp)
	.cfi_restore 1
	ld	s0,16(sp)
	.cfi_restore 8
	.cfi_def_cfa 2, 32
	addi	sp,sp,32
	.cfi_def_cfa_offset 0
	jr	ra
	.cfi_endproc
.LFE24:
	.size	LibPcdSetBoolS, .-LibPcdSetBoolS
	.section	.text.LibPcdSetEx8S,"ax",@progbits
	.align	1
	.globl	LibPcdSetEx8S
	.type	LibPcdSetEx8S, @function
LibPcdSetEx8S:
.LFB25:
	.loc 1 649 1
	.cfi_startproc
	addi	sp,sp,-48
	.cfi_def_cfa_offset 48
	sd	ra,40(sp)
	sd	s0,32(sp)
	.cfi_offset 1, -8
	.cfi_offset 8, -16
	addi	s0,sp,48
	.cfi_def_cfa 8, 0
	sd	a0,-24(s0)
	sd	a1,-32(s0)
	mv	a5,a2
	sb	a5,-33(s0)
	.loc 1 650 12
	call	DebugAssertEnabled
	mv	a5,a0
	.loc 1 650 11
	beq	a5,zero,.L69
	.loc 1 650 40 discriminator 1
	ld	a5,-24(s0)
	bne	a5,zero,.L69
	.loc 1 650 68 discriminator 2
	lla	a2,.LC3
	li	a1,650
	lla	a0,.LC2
	call	UnitTestDebugAssert
.L69:
	.loc 1 652 11
	call	GetPiPcdPpiPointer
	mv	a5,a0
	.loc 1 652 33
	ld	a4,64(a5)
	.loc 1 652 11
	lbu	a5,-33(s0)
	mv	a2,a5
	ld	a1,-32(s0)
	ld	a0,-24(s0)
	jalr	a4
.LVL21:
	mv	a5,a0
	.loc 1 653 1
	mv	a0,a5
	ld	ra,40(sp)
	.cfi_restore 1
	ld	s0,32(sp)
	.cfi_restore 8
	.cfi_def_cfa 2, 48
	addi	sp,sp,48
	.cfi_def_cfa_offset 0
	jr	ra
	.cfi_endproc
.LFE25:
	.size	LibPcdSetEx8S, .-LibPcdSetEx8S
	.section	.text.LibPcdSetEx16S,"ax",@progbits
	.align	1
	.globl	LibPcdSetEx16S
	.type	LibPcdSetEx16S, @function
LibPcdSetEx16S:
.LFB26:
	.loc 1 678 1
	.cfi_startproc
	addi	sp,sp,-48
	.cfi_def_cfa_offset 48
	sd	ra,40(sp)
	sd	s0,32(sp)
	.cfi_offset 1, -8
	.cfi_offset 8, -16
	addi	s0,sp,48
	.cfi_def_cfa 8, 0
	sd	a0,-24(s0)
	sd	a1,-32(s0)
	mv	a5,a2
	sh	a5,-34(s0)
	.loc 1 679 12
	call	DebugAssertEnabled
	mv	a5,a0
	.loc 1 679 11
	beq	a5,zero,.L72
	.loc 1 679 40 discriminator 1
	ld	a5,-24(s0)
	bne	a5,zero,.L72
	.loc 1 679 68 discriminator 2
	lla	a2,.LC3
	li	a1,679
	lla	a0,.LC2
	call	UnitTestDebugAssert
.L72:
	.loc 1 681 11
	call	GetPiPcdPpiPointer
	mv	a5,a0
	.loc 1 681 33
	ld	a4,72(a5)
	.loc 1 681 11
	lhu	a5,-34(s0)
	mv	a2,a5
	ld	a1,-32(s0)
	ld	a0,-24(s0)
	jalr	a4
.LVL22:
	mv	a5,a0
	.loc 1 682 1
	mv	a0,a5
	ld	ra,40(sp)
	.cfi_restore 1
	ld	s0,32(sp)
	.cfi_restore 8
	.cfi_def_cfa 2, 48
	addi	sp,sp,48
	.cfi_def_cfa_offset 0
	jr	ra
	.cfi_endproc
.LFE26:
	.size	LibPcdSetEx16S, .-LibPcdSetEx16S
	.section	.text.LibPcdSetEx32S,"ax",@progbits
	.align	1
	.globl	LibPcdSetEx32S
	.type	LibPcdSetEx32S, @function
LibPcdSetEx32S:
.LFB27:
	.loc 1 707 1
	.cfi_startproc
	addi	sp,sp,-48
	.cfi_def_cfa_offset 48
	sd	ra,40(sp)
	sd	s0,32(sp)
	.cfi_offset 1, -8
	.cfi_offset 8, -16
	addi	s0,sp,48
	.cfi_def_cfa 8, 0
	sd	a0,-24(s0)
	sd	a1,-32(s0)
	mv	a5,a2
	sw	a5,-36(s0)
	.loc 1 708 12
	call	DebugAssertEnabled
	mv	a5,a0
	.loc 1 708 11
	beq	a5,zero,.L75
	.loc 1 708 40 discriminator 1
	ld	a5,-24(s0)
	bne	a5,zero,.L75
	.loc 1 708 68 discriminator 2
	lla	a2,.LC3
	li	a1,708
	lla	a0,.LC2
	call	UnitTestDebugAssert
.L75:
	.loc 1 710 11
	call	GetPiPcdPpiPointer
	mv	a5,a0
	.loc 1 710 33
	ld	a4,80(a5)
	.loc 1 710 11
	lw	a5,-36(s0)
	mv	a2,a5
	ld	a1,-32(s0)
	ld	a0,-24(s0)
	jalr	a4
.LVL23:
	mv	a5,a0
	.loc 1 711 1
	mv	a0,a5
	ld	ra,40(sp)
	.cfi_restore 1
	ld	s0,32(sp)
	.cfi_restore 8
	.cfi_def_cfa 2, 48
	addi	sp,sp,48
	.cfi_def_cfa_offset 0
	jr	ra
	.cfi_endproc
.LFE27:
	.size	LibPcdSetEx32S, .-LibPcdSetEx32S
	.section	.text.LibPcdSetEx64S,"ax",@progbits
	.align	1
	.globl	LibPcdSetEx64S
	.type	LibPcdSetEx64S, @function
LibPcdSetEx64S:
.LFB28:
	.loc 1 736 1
	.cfi_startproc
	addi	sp,sp,-48
	.cfi_def_cfa_offset 48
	sd	ra,40(sp)
	sd	s0,32(sp)
	.cfi_offset 1, -8
	.cfi_offset 8, -16
	addi	s0,sp,48
	.cfi_def_cfa 8, 0
	sd	a0,-24(s0)
	sd	a1,-32(s0)
	sd	a2,-40(s0)
	.loc 1 737 12
	call	DebugAssertEnabled
	mv	a5,a0
	.loc 1 737 11
	beq	a5,zero,.L78
	.loc 1 737 40 discriminator 1
	ld	a5,-24(s0)
	bne	a5,zero,.L78
	.loc 1 737 68 discriminator 2
	lla	a2,.LC3
	li	a1,737
	lla	a0,.LC2
	call	UnitTestDebugAssert
.L78:
	.loc 1 739 11
	call	GetPiPcdPpiPointer
	mv	a5,a0
	.loc 1 739 33
	ld	a5,88(a5)
	.loc 1 739 11
	ld	a2,-40(s0)
	ld	a1,-32(s0)
	ld	a0,-24(s0)
	jalr	a5
.LVL24:
	mv	a5,a0
	.loc 1 740 1
	mv	a0,a5
	ld	ra,40(sp)
	.cfi_restore 1
	ld	s0,32(sp)
	.cfi_restore 8
	.cfi_def_cfa 2, 48
	addi	sp,sp,48
	.cfi_def_cfa_offset 0
	jr	ra
	.cfi_endproc
.LFE28:
	.size	LibPcdSetEx64S, .-LibPcdSetEx64S
	.section	.text.LibPcdSetExPtrS,"ax",@progbits
	.align	1
	.globl	LibPcdSetExPtrS
	.type	LibPcdSetExPtrS, @function
LibPcdSetExPtrS:
.LFB29:
	.loc 1 772 1
	.cfi_startproc
	addi	sp,sp,-48
	.cfi_def_cfa_offset 48
	sd	ra,40(sp)
	sd	s0,32(sp)
	.cfi_offset 1, -8
	.cfi_offset 8, -16
	addi	s0,sp,48
	.cfi_def_cfa 8, 0
	sd	a0,-24(s0)
	sd	a1,-32(s0)
	sd	a2,-40(s0)
	sd	a3,-48(s0)
	.loc 1 773 12
	call	DebugAssertEnabled
	mv	a5,a0
	.loc 1 773 11
	beq	a5,zero,.L81
	.loc 1 773 40 discriminator 1
	ld	a5,-24(s0)
	bne	a5,zero,.L81
	.loc 1 773 68 discriminator 2
	lla	a2,.LC3
	li	a1,773
	lla	a0,.LC2
	call	UnitTestDebugAssert
.L81:
	.loc 1 775 12
	call	DebugAssertEnabled
	mv	a5,a0
	.loc 1 775 11
	beq	a5,zero,.L82
	.loc 1 775 40 discriminator 1
	ld	a5,-40(s0)
	bne	a5,zero,.L82
	.loc 1 775 76 discriminator 2
	lla	a2,.LC4
	li	a1,775
	lla	a0,.LC2
	call	UnitTestDebugAssert
.L82:
	.loc 1 777 7
	ld	a5,-40(s0)
	ld	a5,0(a5)
	.loc 1 777 6
	beq	a5,zero,.L83
	.loc 1 778 14
	call	DebugAssertEnabled
	mv	a5,a0
	.loc 1 778 13
	beq	a5,zero,.L83
	.loc 1 778 42 discriminator 1
	ld	a5,-48(s0)
	bne	a5,zero,.L83
	.loc 1 778 72 discriminator 2
	lla	a2,.LC5
	li	a1,778
	lla	a0,.LC2
	call	UnitTestDebugAssert
.L83:
	.loc 1 781 11
	call	GetPiPcdPpiPointer
	mv	a5,a0
	.loc 1 781 33
	ld	a5,96(a5)
	.loc 1 781 11
	ld	a3,-48(s0)
	ld	a2,-40(s0)
	ld	a1,-32(s0)
	ld	a0,-24(s0)
	jalr	a5
.LVL25:
	mv	a5,a0
	.loc 1 782 1
	mv	a0,a5
	ld	ra,40(sp)
	.cfi_restore 1
	ld	s0,32(sp)
	.cfi_restore 8
	.cfi_def_cfa 2, 48
	addi	sp,sp,48
	.cfi_def_cfa_offset 0
	jr	ra
	.cfi_endproc
.LFE29:
	.size	LibPcdSetExPtrS, .-LibPcdSetExPtrS
	.section	.text.LibPcdSetExBoolS,"ax",@progbits
	.align	1
	.globl	LibPcdSetExBoolS
	.type	LibPcdSetExBoolS, @function
LibPcdSetExBoolS:
.LFB30:
	.loc 1 807 1
	.cfi_startproc
	addi	sp,sp,-48
	.cfi_def_cfa_offset 48
	sd	ra,40(sp)
	sd	s0,32(sp)
	.cfi_offset 1, -8
	.cfi_offset 8, -16
	addi	s0,sp,48
	.cfi_def_cfa 8, 0
	sd	a0,-24(s0)
	sd	a1,-32(s0)
	mv	a5,a2
	sb	a5,-33(s0)
	.loc 1 808 12
	call	DebugAssertEnabled
	mv	a5,a0
	.loc 1 808 11
	beq	a5,zero,.L86
	.loc 1 808 40 discriminator 1
	ld	a5,-24(s0)
	bne	a5,zero,.L86
	.loc 1 808 68 discriminator 2
	lla	a2,.LC3
	li	a1,808
	lla	a0,.LC2
	call	UnitTestDebugAssert
.L86:
	.loc 1 810 11
	call	GetPiPcdPpiPointer
	mv	a5,a0
	.loc 1 810 33
	ld	a4,104(a5)
	.loc 1 810 11
	lbu	a5,-33(s0)
	mv	a2,a5
	ld	a1,-32(s0)
	ld	a0,-24(s0)
	jalr	a4
.LVL26:
	mv	a5,a0
	.loc 1 811 1
	mv	a0,a5
	ld	ra,40(sp)
	.cfi_restore 1
	ld	s0,32(sp)
	.cfi_restore 8
	.cfi_def_cfa 2, 48
	addi	sp,sp,48
	.cfi_def_cfa_offset 0
	jr	ra
	.cfi_endproc
.LFE30:
	.size	LibPcdSetExBoolS, .-LibPcdSetExBoolS
	.section	.rodata
	.align	3
.LC6:
	.string	"NotificationFunction != ((void *) 0)"
	.section	.text.LibPcdCallbackOnSet,"ax",@progbits
	.align	1
	.globl	LibPcdCallbackOnSet
	.type	LibPcdCallbackOnSet, @function
LibPcdCallbackOnSet:
.LFB31:
	.loc 1 836 1
	.cfi_startproc
	addi	sp,sp,-64
	.cfi_def_cfa_offset 64
	sd	ra,56(sp)
	sd	s0,48(sp)
	.cfi_offset 1, -8
	.cfi_offset 8, -16
	addi	s0,sp,64
	.cfi_def_cfa 8, 0
	sd	a0,-40(s0)
	sd	a1,-48(s0)
	sd	a2,-56(s0)
	.loc 1 839 12
	call	DebugAssertEnabled
	mv	a5,a0
	.loc 1 839 11
	beq	a5,zero,.L89
	.loc 1 839 40 discriminator 1
	ld	a5,-56(s0)
	bne	a5,zero,.L89
	.loc 1 839 84 discriminator 2
	lla	a2,.LC6
	li	a1,839
	lla	a0,.LC2
	call	UnitTestDebugAssert
.L89:
	.loc 1 841 13
	call	GetPiPcdPpiPointer
	mv	a5,a0
	.loc 1 841 35
	ld	a5,112(a5)
	.loc 1 841 13
	ld	a2,-56(s0)
	ld	a1,-48(s0)
	ld	a0,-40(s0)
	jalr	a5
.LVL27:
	sd	a0,-24(s0)
	.loc 1 843 12
	call	DebugAssertEnabled
	mv	a5,a0
	.loc 1 843 11
	beq	a5,zero,.L93
	.loc 1 843 43 discriminator 1
	ld	a5,-24(s0)
	.loc 1 843 40 discriminator 1
	bge	a5,zero,.L93
	.loc 1 843 91 discriminator 2
	call	DebugPrintEnabled
	mv	a5,a0
	.loc 1 843 90 discriminator 2
	beq	a5,zero,.L91
	.loc 1 843 124 discriminator 3
	li	a5,1
	slli	a0,a5,31
	call	DebugPrintLevelEnabled
	mv	a5,a0
	.loc 1 843 123 discriminator 3
	beq	a5,zero,.L91
	.loc 1 843 163 discriminator 5
	ld	a2,-24(s0)
	lla	a1,.LC0
	li	a5,1
	slli	a0,a5,31
	call	DebugPrint
.L91:
	.loc 1 843 296 discriminator 7
	lla	a2,.LC1
	li	a1,843
	lla	a0,.LC2
	call	UnitTestDebugAssert
	.loc 1 845 3 discriminator 7
	nop
.L93:
	.loc 1 845 3 is_stmt 0
	nop
	.loc 1 846 1 is_stmt 1
	ld	ra,56(sp)
	.cfi_restore 1
	ld	s0,48(sp)
	.cfi_restore 8
	.cfi_def_cfa 2, 64
	addi	sp,sp,64
	.cfi_def_cfa_offset 0
	jr	ra
	.cfi_endproc
.LFE31:
	.size	LibPcdCallbackOnSet, .-LibPcdCallbackOnSet
	.section	.text.LibPcdCancelCallback,"ax",@progbits
	.align	1
	.globl	LibPcdCancelCallback
	.type	LibPcdCancelCallback, @function
LibPcdCancelCallback:
.LFB32:
	.loc 1 870 1
	.cfi_startproc
	addi	sp,sp,-64
	.cfi_def_cfa_offset 64
	sd	ra,56(sp)
	sd	s0,48(sp)
	.cfi_offset 1, -8
	.cfi_offset 8, -16
	addi	s0,sp,64
	.cfi_def_cfa 8, 0
	sd	a0,-40(s0)
	sd	a1,-48(s0)
	sd	a2,-56(s0)
	.loc 1 873 12
	call	DebugAssertEnabled
	mv	a5,a0
	.loc 1 873 11
	beq	a5,zero,.L95
	.loc 1 873 40 discriminator 1
	ld	a5,-56(s0)
	bne	a5,zero,.L95
	.loc 1 873 84 discriminator 2
	lla	a2,.LC6
	li	a1,873
	lla	a0,.LC2
	call	UnitTestDebugAssert
.L95:
	.loc 1 875 13
	call	GetPiPcdPpiPointer
	mv	a5,a0
	.loc 1 875 35
	ld	a5,120(a5)
	.loc 1 875 13
	ld	a2,-56(s0)
	ld	a1,-48(s0)
	ld	a0,-40(s0)
	jalr	a5
.LVL28:
	sd	a0,-24(s0)
	.loc 1 877 12
	call	DebugAssertEnabled
	mv	a5,a0
	.loc 1 877 11
	beq	a5,zero,.L99
	.loc 1 877 43 discriminator 1
	ld	a5,-24(s0)
	.loc 1 877 40 discriminator 1
	bge	a5,zero,.L99
	.loc 1 877 91 discriminator 2
	call	DebugPrintEnabled
	mv	a5,a0
	.loc 1 877 90 discriminator 2
	beq	a5,zero,.L97
	.loc 1 877 124 discriminator 3
	li	a5,1
	slli	a0,a5,31
	call	DebugPrintLevelEnabled
	mv	a5,a0
	.loc 1 877 123 discriminator 3
	beq	a5,zero,.L97
	.loc 1 877 163 discriminator 5
	ld	a2,-24(s0)
	lla	a1,.LC0
	li	a5,1
	slli	a0,a5,31
	call	DebugPrint
.L97:
	.loc 1 877 296 discriminator 7
	lla	a2,.LC1
	li	a1,877
	lla	a0,.LC2
	call	UnitTestDebugAssert
	.loc 1 879 3 discriminator 7
	nop
.L99:
	.loc 1 879 3 is_stmt 0
	nop
	.loc 1 880 1 is_stmt 1
	ld	ra,56(sp)
	.cfi_restore 1
	ld	s0,48(sp)
	.cfi_restore 8
	.cfi_def_cfa 2, 64
	addi	sp,sp,64
	.cfi_def_cfa_offset 0
	jr	ra
	.cfi_endproc
.LFE32:
	.size	LibPcdCancelCallback, .-LibPcdCancelCallback
	.section	.rodata
	.align	3
.LC7:
	.string	"!(((INTN)(RETURN_STATUS)(Status)) < 0) || TokenNumber == 0"
	.section	.text.LibPcdGetNextToken,"ax",@progbits
	.align	1
	.globl	LibPcdGetNextToken
	.type	LibPcdGetNextToken, @function
LibPcdGetNextToken:
.LFB33:
	.loc 1 909 1
	.cfi_startproc
	addi	sp,sp,-48
	.cfi_def_cfa_offset 48
	sd	ra,40(sp)
	sd	s0,32(sp)
	.cfi_offset 1, -8
	.cfi_offset 8, -16
	addi	s0,sp,48
	.cfi_def_cfa 8, 0
	sd	a0,-40(s0)
	sd	a1,-48(s0)
	.loc 1 912 13
	call	GetPiPcdPpiPointer
	mv	a5,a0
	.loc 1 912 35
	ld	a4,128(a5)
	.loc 1 912 13
	addi	a5,s0,-48
	mv	a1,a5
	ld	a0,-40(s0)
	jalr	a4
.LVL29:
	sd	a0,-24(s0)
	.loc 1 913 12
	call	DebugAssertEnabled
	mv	a5,a0
	.loc 1 913 11
	beq	a5,zero,.L101
	.loc 1 913 46 discriminator 1
	ld	a5,-24(s0)
	.loc 1 913 40 discriminator 1
	bge	a5,zero,.L101
	.loc 1 913 97 discriminator 2
	ld	a5,-48(s0)
	.loc 1 913 41 discriminator 2
	beq	a5,zero,.L101
	.loc 1 913 106 discriminator 3
	lla	a2,.LC7
	li	a1,913
	lla	a0,.LC2
	call	UnitTestDebugAssert
.L101:
	.loc 1 915 10
	ld	a5,-48(s0)
	.loc 1 916 1
	mv	a0,a5
	ld	ra,40(sp)
	.cfi_restore 1
	ld	s0,32(sp)
	.cfi_restore 8
	.cfi_def_cfa 2, 48
	addi	sp,sp,48
	.cfi_def_cfa_offset 0
	jr	ra
	.cfi_endproc
.LFE33:
	.size	LibPcdGetNextToken, .-LibPcdGetNextToken
	.section	.text.LibPcdGetNextTokenSpace,"ax",@progbits
	.align	1
	.globl	LibPcdGetNextTokenSpace
	.type	LibPcdGetNextTokenSpace, @function
LibPcdGetNextTokenSpace:
.LFB34:
	.loc 1 937 1
	.cfi_startproc
	addi	sp,sp,-32
	.cfi_def_cfa_offset 32
	sd	ra,24(sp)
	sd	s0,16(sp)
	.cfi_offset 1, -8
	.cfi_offset 8, -16
	addi	s0,sp,32
	.cfi_def_cfa 8, 0
	sd	a0,-24(s0)
	.loc 1 938 4
	call	GetPiPcdPpiPointer
	mv	a5,a0
	.loc 1 938 26
	ld	a4,136(a5)
	.loc 1 938 4
	addi	a5,s0,-24
	mv	a0,a5
	jalr	a4
.LVL30:
	.loc 1 940 10
	ld	a5,-24(s0)
	.loc 1 941 1
	mv	a0,a5
	ld	ra,24(sp)
	.cfi_restore 1
	ld	s0,16(sp)
	.cfi_restore 8
	.cfi_def_cfa 2, 32
	addi	sp,sp,32
	.cfi_def_cfa_offset 0
	jr	ra
	.cfi_endproc
.LFE34:
	.size	LibPcdGetNextTokenSpace, .-LibPcdGetNextTokenSpace
	.section	.rodata
	.align	3
.LC8:
	.string	"PatchVariable != ((void *) 0)"
	.section	.text.LibPatchPcdSetPtr,"ax",@progbits
	.align	1
	.globl	LibPatchPcdSetPtr
	.type	LibPatchPcdSetPtr, @function
LibPatchPcdSetPtr:
.LFB35:
	.loc 1 976 1
	.cfi_startproc
	addi	sp,sp,-48
	.cfi_def_cfa_offset 48
	sd	ra,40(sp)
	sd	s0,32(sp)
	.cfi_offset 1, -8
	.cfi_offset 8, -16
	addi	s0,sp,48
	.cfi_def_cfa 8, 0
	sd	a0,-24(s0)
	sd	a1,-32(s0)
	sd	a2,-40(s0)
	sd	a3,-48(s0)
	.loc 1 977 12
	call	DebugAssertEnabled
	mv	a5,a0
	.loc 1 977 11
	beq	a5,zero,.L106
	.loc 1 977 40 discriminator 1
	ld	a5,-24(s0)
	bne	a5,zero,.L106
	.loc 1 977 77 discriminator 2
	lla	a2,.LC8
	li	a1,977
	lla	a0,.LC2
	call	UnitTestDebugAssert
.L106:
	.loc 1 978 12
	call	DebugAssertEnabled
	mv	a5,a0
	.loc 1 978 11
	beq	a5,zero,.L107
	.loc 1 978 40 discriminator 1
	ld	a5,-40(s0)
	bne	a5,zero,.L107
	.loc 1 978 76 discriminator 2
	lla	a2,.LC4
	li	a1,978
	lla	a0,.LC2
	call	UnitTestDebugAssert
.L107:
	.loc 1 980 7
	ld	a5,-40(s0)
	ld	a5,0(a5)
	.loc 1 980 6
	beq	a5,zero,.L108
	.loc 1 981 14
	call	DebugAssertEnabled
	mv	a5,a0
	.loc 1 981 13
	beq	a5,zero,.L108
	.loc 1 981 42 discriminator 1
	ld	a5,-48(s0)
	bne	a5,zero,.L108
	.loc 1 981 72 discriminator 2
	lla	a2,.LC5
	li	a1,981
	lla	a0,.LC2
	call	UnitTestDebugAssert
.L108:
	.loc 1 984 8
	ld	a5,-40(s0)
	ld	a5,0(a5)
	.loc 1 984 6
	ld	a4,-32(s0)
	bltu	a4,a5,.L109
	.loc 1 985 8 discriminator 1
	ld	a5,-40(s0)
	ld	a4,0(a5)
	.loc 1 984 42 discriminator 1
	li	a5,-1
	bne	a4,a5,.L110
.L109:
	.loc 1 986 19
	ld	a5,-40(s0)
	ld	a4,-32(s0)
	sd	a4,0(a5)
	.loc 1 987 12
	li	a5,0
	j	.L111
.L110:
	.loc 1 990 3
	ld	a5,-40(s0)
	ld	a5,0(a5)
	mv	a2,a5
	ld	a1,-48(s0)
	ld	a0,-24(s0)
	call	CopyMem
	.loc 1 992 10
	ld	a5,-48(s0)
.L111:
	.loc 1 993 1
	mv	a0,a5
	ld	ra,40(sp)
	.cfi_restore 1
	ld	s0,32(sp)
	.cfi_restore 8
	.cfi_def_cfa 2, 48
	addi	sp,sp,48
	.cfi_def_cfa_offset 0
	jr	ra
	.cfi_endproc
.LFE35:
	.size	LibPatchPcdSetPtr, .-LibPatchPcdSetPtr
	.section	.text.LibPatchPcdSetPtrS,"ax",@progbits
	.align	1
	.globl	LibPatchPcdSetPtrS
	.type	LibPatchPcdSetPtrS, @function
LibPatchPcdSetPtrS:
.LFB36:
	.loc 1 1026 1
	.cfi_startproc
	addi	sp,sp,-48
	.cfi_def_cfa_offset 48
	sd	ra,40(sp)
	sd	s0,32(sp)
	.cfi_offset 1, -8
	.cfi_offset 8, -16
	addi	s0,sp,48
	.cfi_def_cfa 8, 0
	sd	a0,-24(s0)
	sd	a1,-32(s0)
	sd	a2,-40(s0)
	sd	a3,-48(s0)
	.loc 1 1027 12
	call	DebugAssertEnabled
	mv	a5,a0
	.loc 1 1027 11
	beq	a5,zero,.L113
	.loc 1 1027 40 discriminator 1
	ld	a5,-24(s0)
	bne	a5,zero,.L113
	.loc 1 1027 77 discriminator 2
	lla	a2,.LC8
	li	a1,1027
	lla	a0,.LC2
	call	UnitTestDebugAssert
.L113:
	.loc 1 1028 12
	call	DebugAssertEnabled
	mv	a5,a0
	.loc 1 1028 11
	beq	a5,zero,.L114
	.loc 1 1028 40 discriminator 1
	ld	a5,-40(s0)
	bne	a5,zero,.L114
	.loc 1 1028 76 discriminator 2
	lla	a2,.LC4
	li	a1,1028
	lla	a0,.LC2
	call	UnitTestDebugAssert
.L114:
	.loc 1 1030 7
	ld	a5,-40(s0)
	ld	a5,0(a5)
	.loc 1 1030 6
	beq	a5,zero,.L115
	.loc 1 1031 14
	call	DebugAssertEnabled
	mv	a5,a0
	.loc 1 1031 13
	beq	a5,zero,.L115
	.loc 1 1031 42 discriminator 1
	ld	a5,-48(s0)
	bne	a5,zero,.L115
	.loc 1 1031 72 discriminator 2
	lla	a2,.LC5
	li	a1,1031
	lla	a0,.LC2
	call	UnitTestDebugAssert
.L115:
	.loc 1 1034 8
	ld	a5,-40(s0)
	ld	a5,0(a5)
	.loc 1 1034 6
	ld	a4,-32(s0)
	bltu	a4,a5,.L116
	.loc 1 1035 8 discriminator 1
	ld	a5,-40(s0)
	ld	a4,0(a5)
	.loc 1 1034 42 discriminator 1
	li	a5,-1
	bne	a4,a5,.L117
.L116:
	.loc 1 1036 19
	ld	a5,-40(s0)
	ld	a4,-32(s0)
	sd	a4,0(a5)
	.loc 1 1037 12
	li	a5,-1
	slli	a5,a5,63
	addi	a5,a5,2
	j	.L118
.L117:
	.loc 1 1040 3
	ld	a5,-40(s0)
	ld	a5,0(a5)
	mv	a2,a5
	ld	a1,-48(s0)
	ld	a0,-24(s0)
	call	CopyMem
	.loc 1 1042 10
	li	a5,0
.L118:
	.loc 1 1043 1
	mv	a0,a5
	ld	ra,40(sp)
	.cfi_restore 1
	ld	s0,32(sp)
	.cfi_restore 8
	.cfi_def_cfa 2, 48
	addi	sp,sp,48
	.cfi_def_cfa_offset 0
	jr	ra
	.cfi_endproc
.LFE36:
	.size	LibPatchPcdSetPtrS, .-LibPatchPcdSetPtrS
	.section	.rodata
	.align	3
.LC9:
	.string	"SizeOfPatchVariable != ((void *) 0)"
	.section	.text.LibPatchPcdSetPtrAndSize,"ax",@progbits
	.align	1
	.globl	LibPatchPcdSetPtrAndSize
	.type	LibPatchPcdSetPtrAndSize, @function
LibPatchPcdSetPtrAndSize:
.LFB37:
	.loc 1 1080 1
	.cfi_startproc
	addi	sp,sp,-64
	.cfi_def_cfa_offset 64
	sd	ra,56(sp)
	sd	s0,48(sp)
	.cfi_offset 1, -8
	.cfi_offset 8, -16
	addi	s0,sp,64
	.cfi_def_cfa 8, 0
	sd	a0,-24(s0)
	sd	a1,-32(s0)
	sd	a2,-40(s0)
	sd	a3,-48(s0)
	sd	a4,-56(s0)
	.loc 1 1081 12
	call	DebugAssertEnabled
	mv	a5,a0
	.loc 1 1081 11
	beq	a5,zero,.L120
	.loc 1 1081 40 discriminator 1
	ld	a5,-24(s0)
	bne	a5,zero,.L120
	.loc 1 1081 77 discriminator 2
	lla	a2,.LC8
	li	a1,1081
	lla	a0,.LC2
	call	UnitTestDebugAssert
.L120:
	.loc 1 1082 12
	call	DebugAssertEnabled
	mv	a5,a0
	.loc 1 1082 11
	beq	a5,zero,.L121
	.loc 1 1082 40 discriminator 1
	ld	a5,-32(s0)
	bne	a5,zero,.L121
	.loc 1 1082 83 discriminator 2
	lla	a2,.LC9
	li	a1,1082
	lla	a0,.LC2
	call	UnitTestDebugAssert
.L121:
	.loc 1 1083 12
	call	DebugAssertEnabled
	mv	a5,a0
	.loc 1 1083 11
	beq	a5,zero,.L122
	.loc 1 1083 40 discriminator 1
	ld	a5,-48(s0)
	bne	a5,zero,.L122
	.loc 1 1083 76 discriminator 2
	lla	a2,.LC4
	li	a1,1083
	lla	a0,.LC2
	call	UnitTestDebugAssert
.L122:
	.loc 1 1085 7
	ld	a5,-48(s0)
	ld	a5,0(a5)
	.loc 1 1085 6
	beq	a5,zero,.L123
	.loc 1 1086 14
	call	DebugAssertEnabled
	mv	a5,a0
	.loc 1 1086 13
	beq	a5,zero,.L123
	.loc 1 1086 42 discriminator 1
	ld	a5,-56(s0)
	bne	a5,zero,.L123
	.loc 1 1086 72 discriminator 2
	lla	a2,.LC5
	li	a1,1086
	lla	a0,.LC2
	call	UnitTestDebugAssert
.L123:
	.loc 1 1089 8
	ld	a5,-48(s0)
	ld	a5,0(a5)
	.loc 1 1089 6
	ld	a4,-40(s0)
	bltu	a4,a5,.L124
	.loc 1 1090 8 discriminator 1
	ld	a5,-48(s0)
	ld	a4,0(a5)
	.loc 1 1089 42 discriminator 1
	li	a5,-1
	bne	a4,a5,.L125
.L124:
	.loc 1 1091 19
	ld	a5,-48(s0)
	ld	a4,-40(s0)
	sd	a4,0(a5)
	.loc 1 1092 12
	li	a5,0
	j	.L126
.L125:
	.loc 1 1095 3
	ld	a5,-48(s0)
	ld	a5,0(a5)
	mv	a2,a5
	ld	a1,-56(s0)
	ld	a0,-24(s0)
	call	CopyMem
	.loc 1 1096 26
	ld	a5,-48(s0)
	ld	a4,0(a5)
	.loc 1 1096 24
	ld	a5,-32(s0)
	sd	a4,0(a5)
	.loc 1 1098 10
	ld	a5,-56(s0)
.L126:
	.loc 1 1099 1
	mv	a0,a5
	ld	ra,56(sp)
	.cfi_restore 1
	ld	s0,48(sp)
	.cfi_restore 8
	.cfi_def_cfa 2, 64
	addi	sp,sp,64
	.cfi_def_cfa_offset 0
	jr	ra
	.cfi_endproc
.LFE37:
	.size	LibPatchPcdSetPtrAndSize, .-LibPatchPcdSetPtrAndSize
	.section	.text.LibPatchPcdSetPtrAndSizeS,"ax",@progbits
	.align	1
	.globl	LibPatchPcdSetPtrAndSizeS
	.type	LibPatchPcdSetPtrAndSizeS, @function
LibPatchPcdSetPtrAndSizeS:
.LFB38:
	.loc 1 1135 1
	.cfi_startproc
	addi	sp,sp,-64
	.cfi_def_cfa_offset 64
	sd	ra,56(sp)
	sd	s0,48(sp)
	.cfi_offset 1, -8
	.cfi_offset 8, -16
	addi	s0,sp,64
	.cfi_def_cfa 8, 0
	sd	a0,-24(s0)
	sd	a1,-32(s0)
	sd	a2,-40(s0)
	sd	a3,-48(s0)
	sd	a4,-56(s0)
	.loc 1 1136 12
	call	DebugAssertEnabled
	mv	a5,a0
	.loc 1 1136 11
	beq	a5,zero,.L128
	.loc 1 1136 40 discriminator 1
	ld	a5,-24(s0)
	bne	a5,zero,.L128
	.loc 1 1136 77 discriminator 2
	lla	a2,.LC8
	li	a1,1136
	lla	a0,.LC2
	call	UnitTestDebugAssert
.L128:
	.loc 1 1137 12
	call	DebugAssertEnabled
	mv	a5,a0
	.loc 1 1137 11
	beq	a5,zero,.L129
	.loc 1 1137 40 discriminator 1
	ld	a5,-32(s0)
	bne	a5,zero,.L129
	.loc 1 1137 83 discriminator 2
	lla	a2,.LC9
	li	a1,1137
	lla	a0,.LC2
	call	UnitTestDebugAssert
.L129:
	.loc 1 1138 12
	call	DebugAssertEnabled
	mv	a5,a0
	.loc 1 1138 11
	beq	a5,zero,.L130
	.loc 1 1138 40 discriminator 1
	ld	a5,-48(s0)
	bne	a5,zero,.L130
	.loc 1 1138 76 discriminator 2
	lla	a2,.LC4
	li	a1,1138
	lla	a0,.LC2
	call	UnitTestDebugAssert
.L130:
	.loc 1 1140 7
	ld	a5,-48(s0)
	ld	a5,0(a5)
	.loc 1 1140 6
	beq	a5,zero,.L131
	.loc 1 1141 14
	call	DebugAssertEnabled
	mv	a5,a0
	.loc 1 1141 13
	beq	a5,zero,.L131
	.loc 1 1141 42 discriminator 1
	ld	a5,-56(s0)
	bne	a5,zero,.L131
	.loc 1 1141 72 discriminator 2
	lla	a2,.LC5
	li	a1,1141
	lla	a0,.LC2
	call	UnitTestDebugAssert
.L131:
	.loc 1 1144 8
	ld	a5,-48(s0)
	ld	a5,0(a5)
	.loc 1 1144 6
	ld	a4,-40(s0)
	bltu	a4,a5,.L132
	.loc 1 1145 8 discriminator 1
	ld	a5,-48(s0)
	ld	a4,0(a5)
	.loc 1 1144 42 discriminator 1
	li	a5,-1
	bne	a4,a5,.L133
.L132:
	.loc 1 1146 19
	ld	a5,-48(s0)
	ld	a4,-40(s0)
	sd	a4,0(a5)
	.loc 1 1147 12
	li	a5,-1
	slli	a5,a5,63
	addi	a5,a5,2
	j	.L134
.L133:
	.loc 1 1150 3
	ld	a5,-48(s0)
	ld	a5,0(a5)
	mv	a2,a5
	ld	a1,-56(s0)
	ld	a0,-24(s0)
	call	CopyMem
	.loc 1 1151 26
	ld	a5,-48(s0)
	ld	a4,0(a5)
	.loc 1 1151 24
	ld	a5,-32(s0)
	sd	a4,0(a5)
	.loc 1 1153 10
	li	a5,0
.L134:
	.loc 1 1154 1
	mv	a0,a5
	ld	ra,56(sp)
	.cfi_restore 1
	ld	s0,48(sp)
	.cfi_restore 8
	.cfi_def_cfa 2, 64
	addi	sp,sp,64
	.cfi_def_cfa_offset 0
	jr	ra
	.cfi_endproc
.LFE38:
	.size	LibPatchPcdSetPtrAndSizeS, .-LibPatchPcdSetPtrAndSizeS
	.section	.text.LibPcdGetInfo,"ax",@progbits
	.align	1
	.globl	LibPcdGetInfo
	.type	LibPcdGetInfo, @function
LibPcdGetInfo:
.LFB39:
	.loc 1 1174 1
	.cfi_startproc
	addi	sp,sp,-48
	.cfi_def_cfa_offset 48
	sd	ra,40(sp)
	sd	s0,32(sp)
	.cfi_offset 1, -8
	.cfi_offset 8, -16
	addi	s0,sp,48
	.cfi_def_cfa 8, 0
	sd	a0,-40(s0)
	sd	a1,-48(s0)
	.loc 1 1177 12
	call	GetPcdInfoPpiPointer
	mv	a5,a0
	.loc 1 1177 34
	ld	a5,0(a5)
	.loc 1 1177 12
	ld	a1,-48(s0)
	ld	a0,-40(s0)
	jalr	a5
.LVL31:
	sd	a0,-24(s0)
	.loc 1 1178 12
	call	DebugAssertEnabled
	mv	a5,a0
	.loc 1 1178 11
	beq	a5,zero,.L138
	.loc 1 1178 43 discriminator 1
	ld	a5,-24(s0)
	.loc 1 1178 40 discriminator 1
	bge	a5,zero,.L138
	.loc 1 1178 91 discriminator 2
	call	DebugPrintEnabled
	mv	a5,a0
	.loc 1 1178 90 discriminator 2
	beq	a5,zero,.L137
	.loc 1 1178 124 discriminator 3
	li	a5,1
	slli	a0,a5,31
	call	DebugPrintLevelEnabled
	mv	a5,a0
	.loc 1 1178 123 discriminator 3
	beq	a5,zero,.L137
	.loc 1 1178 163 discriminator 5
	ld	a2,-24(s0)
	lla	a1,.LC0
	li	a5,1
	slli	a0,a5,31
	call	DebugPrint
.L137:
	.loc 1 1178 296 discriminator 7
	lla	a2,.LC1
	li	a1,1178
	lla	a0,.LC2
	call	UnitTestDebugAssert
.L138:
	.loc 1 1179 1
	nop
	ld	ra,40(sp)
	.cfi_restore 1
	ld	s0,32(sp)
	.cfi_restore 8
	.cfi_def_cfa 2, 48
	addi	sp,sp,48
	.cfi_def_cfa_offset 0
	jr	ra
	.cfi_endproc
.LFE39:
	.size	LibPcdGetInfo, .-LibPcdGetInfo
	.section	.text.LibPcdGetInfoEx,"ax",@progbits
	.align	1
	.globl	LibPcdGetInfoEx
	.type	LibPcdGetInfoEx, @function
LibPcdGetInfoEx:
.LFB40:
	.loc 1 1201 1
	.cfi_startproc
	addi	sp,sp,-64
	.cfi_def_cfa_offset 64
	sd	ra,56(sp)
	sd	s0,48(sp)
	.cfi_offset 1, -8
	.cfi_offset 8, -16
	addi	s0,sp,64
	.cfi_def_cfa 8, 0
	sd	a0,-40(s0)
	sd	a1,-48(s0)
	sd	a2,-56(s0)
	.loc 1 1204 12
	call	GetPiPcdInfoPpiPointer
	mv	a5,a0
	.loc 1 1204 36
	ld	a5,0(a5)
	.loc 1 1204 12
	ld	a2,-56(s0)
	ld	a1,-48(s0)
	ld	a0,-40(s0)
	jalr	a5
.LVL32:
	sd	a0,-24(s0)
	.loc 1 1205 12
	call	DebugAssertEnabled
	mv	a5,a0
	.loc 1 1205 11
	beq	a5,zero,.L142
	.loc 1 1205 43 discriminator 1
	ld	a5,-24(s0)
	.loc 1 1205 40 discriminator 1
	bge	a5,zero,.L142
	.loc 1 1205 91 discriminator 2
	call	DebugPrintEnabled
	mv	a5,a0
	.loc 1 1205 90 discriminator 2
	beq	a5,zero,.L141
	.loc 1 1205 124 discriminator 3
	li	a5,1
	slli	a0,a5,31
	call	DebugPrintLevelEnabled
	mv	a5,a0
	.loc 1 1205 123 discriminator 3
	beq	a5,zero,.L141
	.loc 1 1205 163 discriminator 5
	ld	a2,-24(s0)
	lla	a1,.LC0
	li	a5,1
	slli	a0,a5,31
	call	DebugPrint
.L141:
	.loc 1 1205 296 discriminator 7
	lla	a2,.LC1
	li	a1,1205
	lla	a0,.LC2
	call	UnitTestDebugAssert
.L142:
	.loc 1 1206 1
	nop
	ld	ra,56(sp)
	.cfi_restore 1
	ld	s0,48(sp)
	.cfi_restore 8
	.cfi_def_cfa 2, 64
	addi	sp,sp,64
	.cfi_def_cfa_offset 0
	jr	ra
	.cfi_endproc
.LFE40:
	.size	LibPcdGetInfoEx, .-LibPcdGetInfoEx
	.section	.text.LibPcdGetSku,"ax",@progbits
	.align	1
	.globl	LibPcdGetSku
	.type	LibPcdGetSku, @function
LibPcdGetSku:
.LFB41:
	.loc 1 1220 1
	.cfi_startproc
	addi	sp,sp,-16
	.cfi_def_cfa_offset 16
	sd	ra,8(sp)
	sd	s0,0(sp)
	.cfi_offset 1, -8
	.cfi_offset 8, -16
	addi	s0,sp,16
	.cfi_def_cfa 8, 0
	.loc 1 1221 10
	call	GetPiPcdInfoPpiPointer
	mv	a5,a0
	.loc 1 1221 34
	ld	a5,8(a5)
	.loc 1 1221 10
	jalr	a5
.LVL33:
	mv	a5,a0
	.loc 1 1222 1
	mv	a0,a5
	ld	ra,8(sp)
	.cfi_restore 1
	ld	s0,0(sp)
	.cfi_restore 8
	.cfi_def_cfa 2, 16
	addi	sp,sp,16
	.cfi_def_cfa_offset 0
	jr	ra
	.cfi_endproc
.LFE41:
	.size	LibPcdGetSku, .-LibPcdGetSku
	.text
.Letext0:
	.file 2 "/home/xephyr/Documents/edk2/MdePkg/Include/RiscV64/ProcessorBind.h"
	.file 3 "/home/xephyr/Documents/edk2/MdePkg/Include/Base.h"
	.file 4 "/home/xephyr/Documents/edk2/MdePkg/Include/Uefi/UefiBaseType.h"
	.file 5 "/home/xephyr/Documents/edk2/MdePkg/Include/Guid/WinCertificate.h"
	.file 6 "/home/xephyr/Documents/edk2/MdePkg/Include/Protocol/DebugSupport.h"
	.file 7 "/home/xephyr/Documents/edk2/MdePkg/Include/Pi/PiMultiPhase.h"
	.file 8 "/home/xephyr/Documents/edk2/MdePkg/Include/Ppi/CpuIo.h"
	.file 9 "/home/xephyr/Documents/edk2/MdePkg/Include/Ppi/PciCfg2.h"
	.file 10 "/home/xephyr/Documents/edk2/Build/Mde/DEBUG_GCC5/RISCV64/MdePkg/Library/PeiPcdLib/PeiPcdLib/DEBUG/AutoGen.h"
	.file 11 "/home/xephyr/Documents/edk2/MdePkg/Include/Ppi/Pcd.h"
	.file 12 "/home/xephyr/Documents/edk2/MdePkg/Include/Ppi/PiPcd.h"
	.file 13 "/home/xephyr/Documents/edk2/MdePkg/Include/Ppi/PcdInfo.h"
	.file 14 "/home/xephyr/Documents/edk2/MdePkg/Include/Ppi/PiPcdInfo.h"
	.file 15 "/home/xephyr/Documents/edk2/MdePkg/Include/Library/PcdLib.h"