	.file	"SetMem.c"
	.option nopic
	.option norelax
	.attribute arch, "rv64i2p0_m2p0_a2p0_f2p0_d2p0_c2p0"
	.attribute unaligned_access, 0
	.attribute stack_align, 16
	.text
.Ltext0:
	.cfi_sections	.debug_frame
	.section	.text.InternalMemSetMem,"ax",@progbits
	.align	1
	.globl	InternalMemSetMem
	.type	InternalMemSetMem, @function
InternalMemSetMem:
.LFB0:
	.file 1 "/home/xephyr/Documents/edk2/MdePkg/Library/BaseMemoryLib/SetMem.c"
	.loc 1 37 1
	.cfi_startproc
	addi	sp,sp,-96
	.cfi_def_cfa_offset 96
	sd	ra,88(sp)
	sd	s0,80(sp)
	.cfi_offset 1, -8
	.cfi_offset 8, -16
	addi	s0,sp,96
	.cfi_def_cfa 8, 0
	sd	a0,-72(s0)
	sd	a1,-80(s0)
	mv	a5,a2
	sb	a5,-81(s0)
	.loc 1 49 9
	ld	a5,-72(s0)
	.loc 1 49 23
	andi	a5,a5,7
	.loc 1 49 6
	bne	a5,zero,.L2
	.loc 1 49 36 discriminator 1
	ld	a4,-80(s0)
	li	a5,7
	bleu	a4,a5,.L2
	.loc 1 51 22
	lbu	a5,-81(s0)
	sext.w	a5,a5
	slliw	a5,a5,24
	sext.w	a4,a5
	.loc 1 51 38
	lbu	a5,-81(s0)
	sext.w	a5,a5
	slliw	a5,a5,16
	sext.w	a5,a5
	.loc 1 51 29
	or	a5,a4,a5
	sext.w	a4,a5
	.loc 1 51 54
	lbu	a5,-81(s0)
	sext.w	a5,a5
	slliw	a5,a5,8
	sext.w	a5,a5
	.loc 1 51 45
	or	a5,a4,a5
	sext.w	a4,a5
	.loc 1 51 60
	lbu	a5,-81(s0)
	sext.w	a5,a5
	or	a5,a4,a5
	sext.w	a5,a5
	.loc 1 51 13
	sw	a5,-44(s0)
	.loc 1 52 15
	lwu	a5,-44(s0)
	li	a1,32
	mv	a0,a5
	call	LShiftU64
	mv	a4,a0
	.loc 1 52 39
	lwu	a5,-44(s0)
	.loc 1 52 13
	or	a5,a4,a5
	sd	a5,-56(s0)
	.loc 1 54 15
	ld	a5,-72(s0)
	sd	a5,-40(s0)
	.loc 1 55 11
	j	.L3
.L4:
	.loc 1 56 18
	ld	a5,-40(s0)
	addi	a4,a5,8
	sd	a4,-40(s0)
	.loc 1 56 22
	ld	a4,-56(s0)
	sd	a4,0(a5)
	.loc 1 57 14
	ld	a5,-80(s0)
	addi	a5,a5,-8
	sd	a5,-80(s0)
.L3:
	.loc 1 55 11
	ld	a4,-80(s0)
	li	a5,7
	bgtu	a4,a5,.L4
	.loc 1 61 14
	ld	a5,-40(s0)
	sd	a5,-24(s0)
	j	.L5
.L2:
	.loc 1 62 16
	ld	a5,-72(s0)
	.loc 1 62 30
	andi	a5,a5,3
	.loc 1 62 13
	bne	a5,zero,.L6
	.loc 1 62 43 discriminator 1
	ld	a4,-80(s0)
	li	a5,3
	bleu	a4,a5,.L6
	.loc 1 64 22
	lbu	a5,-81(s0)
	sext.w	a5,a5
	slliw	a5,a5,24
	sext.w	a4,a5
	.loc 1 64 38
	lbu	a5,-81(s0)
	sext.w	a5,a5
	slliw	a5,a5,16
	sext.w	a5,a5
	.loc 1 64 29
	or	a5,a4,a5
	sext.w	a4,a5
	.loc 1 64 54
	lbu	a5,-81(s0)
	sext.w	a5,a5
	slliw	a5,a5,8
	sext.w	a5,a5
	.loc 1 64 45
	or	a5,a4,a5
	sext.w	a4,a5
	.loc 1 64 60
	lbu	a5,-81(s0)
	sext.w	a5,a5
	or	a5,a4,a5
	sext.w	a5,a5
	.loc 1 64 13
	sw	a5,-44(s0)
	.loc 1 66 15
	ld	a5,-72(s0)
	sd	a5,-32(s0)
	.loc 1 67 11
	j	.L7
.L8:
	.loc 1 68 18
	ld	a5,-32(s0)
	addi	a4,a5,4
	sd	a4,-32(s0)
	.loc 1 68 22
	lw	a4,-44(s0)
	sw	a4,0(a5)
	.loc 1 69 14
	ld	a5,-80(s0)
	addi	a5,a5,-4
	sd	a5,-80(s0)
.L7:
	.loc 1 67 11
	ld	a4,-80(s0)
	li	a5,3
	bgtu	a4,a5,.L8
	.loc 1 73 14
	ld	a5,-32(s0)
	sd	a5,-24(s0)
	j	.L5
.L6:
	.loc 1 75 14
	ld	a5,-72(s0)
	sd	a5,-24(s0)
.L5:
	.loc 1 77 9
	j	.L9
.L10:
	.loc 1 78 15
	ld	a5,-24(s0)
	addi	a4,a5,1
	sd	a4,-24(s0)
	.loc 1 78 19
	lbu	a4,-81(s0)
	sb	a4,0(a5)
.L9:
	.loc 1 77 16
	ld	a5,-80(s0)
	addi	a4,a5,-1
	sd	a4,-80(s0)
	.loc 1 77 9
	bne	a5,zero,.L10
	.loc 1 80 10
	ld	a5,-72(s0)
	.loc 1 81 1
	mv	a0,a5
	ld	ra,88(sp)
	.cfi_restore 1
	ld	s0,80(sp)
	.cfi_restore 8
	.cfi_def_cfa 2, 96
	addi	sp,sp,96
	.cfi_def_cfa_offset 0
	jr	ra
	.cfi_endproc
.LFE0:
	.size	InternalMemSetMem, .-InternalMemSetMem
	.text
.Letext0:
	.file 2 "/home/xephyr/Documents/edk2/MdePkg/Include/RiscV64/ProcessorBind.h"
	.file 3 "/home/xephyr/Documents/edk2/MdePkg/Include/Base.h"
	.file 4 "/home/xephyr/Documents/edk2/Build/Mde/DEBUG_GCC5/RISCV64/MdePkg/Library/BaseMemoryLib/BaseMemoryLib/DEBUG/AutoGen.h"