	.file	"BitField.c"
	.option nopic
	.option norelax
	.attribute arch, "rv64i2p0_m2p0_a2p0_f2p0_d2p0_c2p0"
	.attribute unaligned_access, 0
	.attribute stack_align, 16
	.text
.Ltext0:
	.cfi_sections	.debug_frame
	.section	.text.InternalBaseLibBitFieldReadUint,"ax",@progbits
	.align	1
	.globl	InternalBaseLibBitFieldReadUint
	.type	InternalBaseLibBitFieldReadUint, @function
InternalBaseLibBitFieldReadUint:
.LFB0:
	.file 1 "/home/xephyr/Documents/edk2/MdePkg/Library/BaseLib/BitField.c"
	.loc 1 30 1
	.cfi_startproc
	addi	sp,sp,-48
	.cfi_def_cfa_offset 48
	sd	s0,40(sp)
	.cfi_offset 8, -8
	addi	s0,sp,48
	.cfi_def_cfa 8, 0
	sd	a0,-24(s0)
	sd	a1,-32(s0)
	sd	a2,-40(s0)
	.loc 1 35 33
	ld	a5,-40(s0)
	sext.w	a5,a5
	mv	a4,a5
	li	a5,-2
	sll	a5,a5,a4
	.loc 1 35 21
	not	a4,a5
	.loc 1 35 19
	ld	a5,-24(s0)
	and	a5,a4,a5
	.loc 1 35 45
	ld	a4,-32(s0)
	sext.w	a4,a4
	srl	a5,a5,a4
	.loc 1 36 1
	mv	a0,a5
	ld	s0,40(sp)
	.cfi_restore 8
	.cfi_def_cfa 2, 48
	addi	sp,sp,48
	.cfi_def_cfa_offset 0
	jr	ra
	.cfi_endproc
.LFE0:
	.size	InternalBaseLibBitFieldReadUint, .-InternalBaseLibBitFieldReadUint
	.section	.rodata
	.align	3
.LC0:
	.string	"(OrData >> (EndBit - StartBit)) == ((OrData >> (EndBit - StartBit)) & 1)"
	.align	3
.LC1:
	.string	"/home/xephyr/Documents/edk2/MdePkg/Library/BaseLib/BitField.c"
	.section	.text.InternalBaseLibBitFieldOrUint,"ax",@progbits
	.align	1
	.globl	InternalBaseLibBitFieldOrUint
	.type	InternalBaseLibBitFieldOrUint, @function
InternalBaseLibBitFieldOrUint:
.LFB1:
	.loc 1 64 1
	.cfi_startproc
	addi	sp,sp,-48
	.cfi_def_cfa_offset 48
	sd	ra,40(sp)
	sd	s0,32(sp)
	.cfi_offset 1, -8
	.cfi_offset 8, -16
	addi	s0,sp,48
	.cfi_def_cfa 8, 0
	sd	a0,-24(s0)
	sd	a1,-32(s0)
	sd	a2,-40(s0)
	sd	a3,-48(s0)
	.loc 1 71 12
	call	DebugAssertEnabled
	mv	a5,a0
	.loc 1 71 11
	beq	a5,zero,.L4
	.loc 1 71 62 discriminator 1
	ld	a5,-40(s0)
	sext.w	a4,a5
	ld	a5,-32(s0)
	sext.w	a5,a5
	subw	a5,a4,a5
	sext.w	a5,a5
	.loc 1 71 51 discriminator 1
	mv	a4,a5
	ld	a5,-48(s0)
	srl	a4,a5,a4
	.loc 1 71 98 discriminator 1
	ld	a5,-40(s0)
	sext.w	a3,a5
	ld	a5,-32(s0)
	sext.w	a5,a5
	subw	a5,a3,a5
	sext.w	a5,a5
	.loc 1 71 87 discriminator 1
	mv	a3,a5
	ld	a5,-48(s0)
	srl	a5,a5,a3
	.loc 1 71 111 discriminator 1
	andi	a5,a5,1
	.loc 1 71 40 discriminator 1
	beq	a4,a5,.L4
	.loc 1 71 120 discriminator 2
	lla	a2,.LC0
	li	a1,71
	lla	a0,.LC1
	call	UnitTestDebugAssert
.L4:
	.loc 1 77 29
	ld	a5,-32(s0)
	sext.w	a5,a5
	mv	a4,a5
	ld	a5,-48(s0)
	sll	a4,a5,a4
	.loc 1 77 57
	ld	a5,-40(s0)
	sext.w	a5,a5
	mv	a3,a5
	li	a5,-2
	sll	a5,a5,a3
	.loc 1 77 44
	not	a5,a5
	.loc 1 77 42
	and	a4,a4,a5
	.loc 1 77 18
	ld	a5,-24(s0)
	or	a5,a4,a5
	.loc 1 78 1
	mv	a0,a5
	ld	ra,40(sp)
	.cfi_restore 1
	ld	s0,32(sp)
	.cfi_restore 8
	.cfi_def_cfa 2, 48
	addi	sp,sp,48
	.cfi_def_cfa_offset 0
	jr	ra
	.cfi_endproc
.LFE1:
	.size	InternalBaseLibBitFieldOrUint, .-InternalBaseLibBitFieldOrUint
	.section	.rodata
	.align	3
.LC2:
	.string	"(AndData >> (EndBit - StartBit)) == ((AndData >> (EndBit - StartBit)) & 1)"
	.section	.text.InternalBaseLibBitFieldAndUint,"ax",@progbits
	.align	1
	.globl	InternalBaseLibBitFieldAndUint
	.type	InternalBaseLibBitFieldAndUint, @function
InternalBaseLibBitFieldAndUint:
.LFB2:
	.loc 1 106 1
	.cfi_startproc
	addi	sp,sp,-48
	.cfi_def_cfa_offset 48
	sd	ra,40(sp)
	sd	s0,32(sp)
	.cfi_offset 1, -8
	.cfi_offset 8, -16
	addi	s0,sp,48
	.cfi_def_cfa 8, 0
	sd	a0,-24(s0)
	sd	a1,-32(s0)
	sd	a2,-40(s0)
	sd	a3,-48(s0)
	.loc 1 113 12
	call	DebugAssertEnabled
	mv	a5,a0
	.loc 1 113 11
	beq	a5,zero,.L7
	.loc 1 113 63 discriminator 1
	ld	a5,-40(s0)
	sext.w	a4,a5
	ld	a5,-32(s0)
	sext.w	a5,a5
	subw	a5,a4,a5
	sext.w	a5,a5
	.loc 1 113 52 discriminator 1
	mv	a4,a5
	ld	a5,-48(s0)
	srl	a4,a5,a4
	.loc 1 113 100 discriminator 1
	ld	a5,-40(s0)
	sext.w	a3,a5
	ld	a5,-32(s0)
	sext.w	a5,a5
	subw	a5,a3,a5
	sext.w	a5,a5
	.loc 1 113 89 discriminator 1
	mv	a3,a5
	ld	a5,-48(s0)
	srl	a5,a5,a3
	.loc 1 113 113 discriminator 1
	andi	a5,a5,1
	.loc 1 113 40 discriminator 1
	beq	a4,a5,.L7
	.loc 1 113 122 discriminator 2
	lla	a2,.LC2
	li	a1,113
	lla	a0,.LC1
	call	UnitTestDebugAssert
.L7:
	.loc 1 119 59
	ld	a5,-40(s0)
	sext.w	a5,a5
	mv	a4,a5
	li	a5,-2
	sll	a4,a5,a4
	.loc 1 119 23
	ld	a5,-48(s0)
	not	a5,a5
	.loc 1 119 32
	ld	a3,-32(s0)
	sext.w	a3,a3
	sll	a5,a5,a3
	.loc 1 119 20
	not	a5,a5
	or	a4,a4,a5
	.loc 1 119 18
	ld	a5,-24(s0)
	and	a5,a4,a5
	.loc 1 120 1
	mv	a0,a5
	ld	ra,40(sp)
	.cfi_restore 1
	ld	s0,32(sp)
	.cfi_restore 8
	.cfi_def_cfa 2, 48
	addi	sp,sp,48
	.cfi_def_cfa_offset 0
	jr	ra
	.cfi_endproc
.LFE2:
	.size	InternalBaseLibBitFieldAndUint, .-InternalBaseLibBitFieldAndUint
	.section	.rodata
	.align	3
.LC3:
	.string	"EndBit < 8"
	.align	3
.LC4:
	.string	"StartBit <= EndBit"
	.section	.text.BitFieldRead8,"ax",@progbits
	.align	1
	.globl	BitFieldRead8
	.type	BitFieldRead8, @function
BitFieldRead8:
.LFB3:
	.loc 1 148 1
	.cfi_startproc
	addi	sp,sp,-48
	.cfi_def_cfa_offset 48
	sd	ra,40(sp)
	sd	s0,32(sp)
	.cfi_offset 1, -8
	.cfi_offset 8, -16
	addi	s0,sp,48
	.cfi_def_cfa 8, 0
	mv	a5,a0
	sd	a1,-32(s0)
	sd	a2,-40(s0)
	sb	a5,-17(s0)
	.loc 1 149 12
	call	DebugAssertEnabled
	mv	a5,a0
	.loc 1 149 11
	beq	a5,zero,.L10
	.loc 1 149 40 discriminator 1
	ld	a4,-40(s0)
	li	a5,7
	bleu	a4,a5,.L10
	.loc 1 149 58 discriminator 2
	lla	a2,.LC3
	li	a1,149
	lla	a0,.LC1
	call	UnitTestDebugAssert
.L10:
	.loc 1 150 12
	call	DebugAssertEnabled
	mv	a5,a0
	.loc 1 150 11
	beq	a5,zero,.L11
	.loc 1 150 40 discriminator 1
	ld	a4,-32(s0)
	ld	a5,-40(s0)
	bleu	a4,a5,.L11
	.loc 1 150 66 discriminator 2
	lla	a2,.LC4
	li	a1,150
	lla	a0,.LC1
	call	UnitTestDebugAssert
.L11:
	.loc 1 151 17
	lbu	a5,-17(s0)
	ld	a2,-40(s0)
	ld	a1,-32(s0)
	mv	a0,a5
	call	InternalBaseLibBitFieldReadUint
	mv	a5,a0
	.loc 1 151 10
	andi	a5,a5,0xff
	.loc 1 152 1
	mv	a0,a5
	ld	ra,40(sp)
	.cfi_restore 1
	ld	s0,32(sp)
	.cfi_restore 8
	.cfi_def_cfa 2, 48
	addi	sp,sp,48
	.cfi_def_cfa_offset 0
	jr	ra
	.cfi_endproc
.LFE3:
	.size	BitFieldRead8, .-BitFieldRead8
	.section	.text.BitFieldWrite8,"ax",@progbits
	.align	1
	.globl	BitFieldWrite8
	.type	BitFieldWrite8, @function
BitFieldWrite8:
.LFB4:
	.loc 1 185 1
	.cfi_startproc
	addi	sp,sp,-48
	.cfi_def_cfa_offset 48
	sd	ra,40(sp)
	sd	s0,32(sp)
	.cfi_offset 1, -8
	.cfi_offset 8, -16
	addi	s0,sp,48
	.cfi_def_cfa 8, 0
	mv	a5,a0
	sd	a1,-32(s0)
	sd	a2,-40(s0)
	mv	a4,a3
	sb	a5,-17(s0)
	mv	a5,a4
	sb	a5,-18(s0)
	.loc 1 186 12
	call	DebugAssertEnabled
	mv	a5,a0
	.loc 1 186 11
	beq	a5,zero,.L14
	.loc 1 186 40 discriminator 1
	ld	a4,-40(s0)
	li	a5,7
	bleu	a4,a5,.L14
	.loc 1 186 58 discriminator 2
	lla	a2,.LC3
	li	a1,186
	lla	a0,.LC1
	call	UnitTestDebugAssert
.L14:
	.loc 1 187 12
	call	DebugAssertEnabled
	mv	a5,a0
	.loc 1 187 11
	beq	a5,zero,.L15
	.loc 1 187 40 discriminator 1
	ld	a4,-32(s0)
	ld	a5,-40(s0)
	bleu	a4,a5,.L15
	.loc 1 187 66 discriminator 2
	lla	a2,.LC4
	li	a1,187
	lla	a0,.LC1
	call	UnitTestDebugAssert
.L15:
	.loc 1 188 10
	lbu	a4,-18(s0)
	lbu	a5,-17(s0)
	li	a3,0
	ld	a2,-40(s0)
	ld	a1,-32(s0)
	mv	a0,a5
	call	BitFieldAndThenOr8
	mv	a5,a0
	.loc 1 189 1
	mv	a0,a5
	ld	ra,40(sp)
	.cfi_restore 1
	ld	s0,32(sp)
	.cfi_restore 8
	.cfi_def_cfa 2, 48
	addi	sp,sp,48
	.cfi_def_cfa_offset 0
	jr	ra
	.cfi_endproc
.LFE4:
	.size	BitFieldWrite8, .-BitFieldWrite8
	.section	.text.BitFieldOr8,"ax",@progbits
	.align	1
	.globl	BitFieldOr8
	.type	BitFieldOr8, @function
BitFieldOr8:
.LFB5:
	.loc 1 223 1
	.cfi_startproc
	addi	sp,sp,-48
	.cfi_def_cfa_offset 48
	sd	ra,40(sp)
	sd	s0,32(sp)
	.cfi_offset 1, -8
	.cfi_offset 8, -16
	addi	s0,sp,48
	.cfi_def_cfa 8, 0
	mv	a5,a0
	sd	a1,-32(s0)
	sd	a2,-40(s0)
	mv	a4,a3
	sb	a5,-17(s0)
	mv	a5,a4
	sb	a5,-18(s0)
	.loc 1 224 12
	call	DebugAssertEnabled
	mv	a5,a0
	.loc 1 224 11
	beq	a5,zero,.L18
	.loc 1 224 40 discriminator 1
	ld	a4,-40(s0)
	li	a5,7
	bleu	a4,a5,.L18
	.loc 1 224 58 discriminator 2
	lla	a2,.LC3
	li	a1,224
	lla	a0,.LC1
	call	UnitTestDebugAssert
.L18:
	.loc 1 225 12
	call	DebugAssertEnabled
	mv	a5,a0
	.loc 1 225 11
	beq	a5,zero,.L19
	.loc 1 225 40 discriminator 1
	ld	a4,-32(s0)
	ld	a5,-40(s0)
	bleu	a4,a5,.L19
	.loc 1 225 66 discriminator 2
	lla	a2,.LC4
	li	a1,225
	lla	a0,.LC1
	call	UnitTestDebugAssert
.L19:
	.loc 1 226 17
	lbu	a5,-17(s0)
	lbu	a4,-18(s0)
	mv	a3,a4
	ld	a2,-40(s0)
	ld	a1,-32(s0)
	mv	a0,a5
	call	InternalBaseLibBitFieldOrUint
	mv	a5,a0
	.loc 1 226 10
	andi	a5,a5,0xff
	.loc 1 227 1
	mv	a0,a5
	ld	ra,40(sp)
	.cfi_restore 1
	ld	s0,32(sp)
	.cfi_restore 8
	.cfi_def_cfa 2, 48
	addi	sp,sp,48
	.cfi_def_cfa_offset 0
	jr	ra
	.cfi_endproc
.LFE5:
	.size	BitFieldOr8, .-BitFieldOr8
	.section	.text.BitFieldAnd8,"ax",@progbits
	.align	1
	.globl	BitFieldAnd8
	.type	BitFieldAnd8, @function
BitFieldAnd8:
.LFB6:
	.loc 1 261 1
	.cfi_startproc
	addi	sp,sp,-48
	.cfi_def_cfa_offset 48
	sd	ra,40(sp)
	sd	s0,32(sp)
	.cfi_offset 1, -8
	.cfi_offset 8, -16
	addi	s0,sp,48
	.cfi_def_cfa 8, 0
	mv	a5,a0
	sd	a1,-32(s0)
	sd	a2,-40(s0)
	mv	a4,a3
	sb	a5,-17(s0)
	mv	a5,a4
	sb	a5,-18(s0)
	.loc 1 262 12
	call	DebugAssertEnabled
	mv	a5,a0
	.loc 1 262 11
	beq	a5,zero,.L22
	.loc 1 262 40 discriminator 1
	ld	a4,-40(s0)
	li	a5,7
	bleu	a4,a5,.L22
	.loc 1 262 58 discriminator 2
	lla	a2,.LC3
	li	a1,262
	lla	a0,.LC1
	call	UnitTestDebugAssert
.L22:
	.loc 1 263 12
	call	DebugAssertEnabled
	mv	a5,a0
	.loc 1 263 11
	beq	a5,zero,.L23
	.loc 1 263 40 discriminator 1
	ld	a4,-32(s0)
	ld	a5,-40(s0)
	bleu	a4,a5,.L23
	.loc 1 263 66 discriminator 2
	lla	a2,.LC4
	li	a1,263
	lla	a0,.LC1
	call	UnitTestDebugAssert
.L23:
	.loc 1 264 17
	lbu	a5,-17(s0)
	lbu	a4,-18(s0)
	mv	a3,a4
	ld	a2,-40(s0)
	ld	a1,-32(s0)
	mv	a0,a5
	call	InternalBaseLibBitFieldAndUint
	mv	a5,a0
	.loc 1 264 10
	andi	a5,a5,0xff
	.loc 1 265 1
	mv	a0,a5
	ld	ra,40(sp)
	.cfi_restore 1
	ld	s0,32(sp)
	.cfi_restore 8
	.cfi_def_cfa 2, 48
	addi	sp,sp,48
	.cfi_def_cfa_offset 0
	jr	ra
	.cfi_endproc
.LFE6:
	.size	BitFieldAnd8, .-BitFieldAnd8
	.section	.text.BitFieldAndThenOr8,"ax",@progbits
	.align	1
	.globl	BitFieldAndThenOr8
	.type	BitFieldAndThenOr8, @function
BitFieldAndThenOr8:
.LFB7:
	.loc 1 303 1
	.cfi_startproc
	addi	sp,sp,-48
	.cfi_def_cfa_offset 48
	sd	ra,40(sp)
	sd	s0,32(sp)
	.cfi_offset 1, -8
	.cfi_offset 8, -16
	addi	s0,sp,48
	.cfi_def_cfa 8, 0
	mv	a5,a0
	sd	a1,-32(s0)
	sd	a2,-40(s0)
	sb	a5,-17(s0)
	mv	a5,a3
	sb	a5,-18(s0)
	mv	a5,a4
	sb	a5,-19(s0)
	.loc 1 304 12
	call	DebugAssertEnabled
	mv	a5,a0
	.loc 1 304 11
	beq	a5,zero,.L26
	.loc 1 304 40 discriminator 1
	ld	a4,-40(s0)
	li	a5,7
	bleu	a4,a5,.L26
	.loc 1 304 58 discriminator 2
	lla	a2,.LC3
	li	a1,304
	lla	a0,.LC1
	call	UnitTestDebugAssert
.L26:
	.loc 1 305 12
	call	DebugAssertEnabled
	mv	a5,a0
	.loc 1 305 11
	beq	a5,zero,.L27
	.loc 1 305 40 discriminator 1
	ld	a4,-32(s0)
	ld	a5,-40(s0)
	bleu	a4,a5,.L27
	.loc 1 305 66 discriminator 2
	lla	a2,.LC4
	li	a1,305
	lla	a0,.LC1
	call	UnitTestDebugAssert
.L27:
	.loc 1 306 10
	lbu	a4,-18(s0)
	lbu	a5,-17(s0)
	mv	a3,a4
	ld	a2,-40(s0)
	ld	a1,-32(s0)
	mv	a0,a5
	call	BitFieldAnd8
	mv	a5,a0
	mv	a4,a5
	lbu	a5,-19(s0)
	mv	a3,a5
	ld	a2,-40(s0)
	ld	a1,-32(s0)
	mv	a0,a4
	call	BitFieldOr8
	mv	a5,a0
	.loc 1 312 1
	mv	a0,a5
	ld	ra,40(sp)
	.cfi_restore 1
	ld	s0,32(sp)
	.cfi_restore 8
	.cfi_def_cfa 2, 48
	addi	sp,sp,48
	.cfi_def_cfa_offset 0
	jr	ra
	.cfi_endproc
.LFE7:
	.size	BitFieldAndThenOr8, .-BitFieldAndThenOr8
	.section	.rodata
	.align	3
.LC5:
	.string	"EndBit < 16"
	.section	.text.BitFieldRead16,"ax",@progbits
	.align	1
	.globl	BitFieldRead16
	.type	BitFieldRead16, @function
BitFieldRead16:
.LFB8:
	.loc 1 340 1
	.cfi_startproc
	addi	sp,sp,-48
	.cfi_def_cfa_offset 48
	sd	ra,40(sp)
	sd	s0,32(sp)
	.cfi_offset 1, -8
	.cfi_offset 8, -16
	addi	s0,sp,48
	.cfi_def_cfa 8, 0
	mv	a5,a0
	sd	a1,-32(s0)
	sd	a2,-40(s0)
	sh	a5,-18(s0)
	.loc 1 341 12
	call	DebugAssertEnabled
	mv	a5,a0
	.loc 1 341 11
	beq	a5,zero,.L30
	.loc 1 341 40 discriminator 1
	ld	a4,-40(s0)
	li	a5,15
	bleu	a4,a5,.L30
	.loc 1 341 59 discriminator 2
	lla	a2,.LC5
	li	a1,341
	lla	a0,.LC1
	call	UnitTestDebugAssert
.L30:
	.loc 1 342 12
	call	DebugAssertEnabled
	mv	a5,a0
	.loc 1 342 11
	beq	a5,zero,.L31
	.loc 1 342 40 discriminator 1
	ld	a4,-32(s0)
	ld	a5,-40(s0)
	bleu	a4,a5,.L31
	.loc 1 342 66 discriminator 2
	lla	a2,.LC4
	li	a1,342
	lla	a0,.LC1
	call	UnitTestDebugAssert
.L31:
	.loc 1 343 18
	lhu	a5,-18(s0)
	ld	a2,-40(s0)
	ld	a1,-32(s0)
	mv	a0,a5
	call	InternalBaseLibBitFieldReadUint
	mv	a5,a0
	.loc 1 343 10
	slli	a5,a5,48
	srli	a5,a5,48
	.loc 1 344 1
	mv	a0,a5
	ld	ra,40(sp)
	.cfi_restore 1
	ld	s0,32(sp)
	.cfi_restore 8
	.cfi_def_cfa 2, 48
	addi	sp,sp,48
	.cfi_def_cfa_offset 0
	jr	ra
	.cfi_endproc
.LFE8:
	.size	BitFieldRead16, .-BitFieldRead16
	.section	.text.BitFieldWrite16,"ax",@progbits
	.align	1
	.globl	BitFieldWrite16
	.type	BitFieldWrite16, @function
BitFieldWrite16:
.LFB9:
	.loc 1 377 1
	.cfi_startproc
	addi	sp,sp,-48
	.cfi_def_cfa_offset 48
	sd	ra,40(sp)
	sd	s0,32(sp)
	.cfi_offset 1, -8
	.cfi_offset 8, -16
	addi	s0,sp,48
	.cfi_def_cfa 8, 0
	mv	a5,a0
	sd	a1,-32(s0)
	sd	a2,-40(s0)
	mv	a4,a3
	sh	a5,-18(s0)
	mv	a5,a4
	sh	a5,-20(s0)
	.loc 1 378 12
	call	DebugAssertEnabled
	mv	a5,a0
	.loc 1 378 11
	beq	a5,zero,.L34
	.loc 1 378 40 discriminator 1
	ld	a4,-40(s0)
	li	a5,15
	bleu	a4,a5,.L34
	.loc 1 378 59 discriminator 2
	lla	a2,.LC5
	li	a1,378
	lla	a0,.LC1
	call	UnitTestDebugAssert
.L34:
	.loc 1 379 12
	call	DebugAssertEnabled
	mv	a5,a0
	.loc 1 379 11
	beq	a5,zero,.L35
	.loc 1 379 40 discriminator 1
	ld	a4,-32(s0)
	ld	a5,-40(s0)
	bleu	a4,a5,.L35
	.loc 1 379 66 discriminator 2
	lla	a2,.LC4
	li	a1,379
	lla	a0,.LC1
	call	UnitTestDebugAssert
.L35:
	.loc 1 380 10
	lhu	a4,-20(s0)
	lhu	a5,-18(s0)
	li	a3,0
	ld	a2,-40(s0)
	ld	a1,-32(s0)
	mv	a0,a5
	call	BitFieldAndThenOr16
	mv	a5,a0
	.loc 1 381 1
	mv	a0,a5
	ld	ra,40(sp)
	.cfi_restore 1
	ld	s0,32(sp)
	.cfi_restore 8
	.cfi_def_cfa 2, 48
	addi	sp,sp,48
	.cfi_def_cfa_offset 0
	jr	ra
	.cfi_endproc
.LFE9:
	.size	BitFieldWrite16, .-BitFieldWrite16
	.section	.text.BitFieldOr16,"ax",@progbits
	.align	1
	.globl	BitFieldOr16
	.type	BitFieldOr16, @function
BitFieldOr16:
.LFB10:
	.loc 1 415 1
	.cfi_startproc
	addi	sp,sp,-48
	.cfi_def_cfa_offset 48
	sd	ra,40(sp)
	sd	s0,32(sp)
	.cfi_offset 1, -8
	.cfi_offset 8, -16
	addi	s0,sp,48
	.cfi_def_cfa 8, 0
	mv	a5,a0
	sd	a1,-32(s0)
	sd	a2,-40(s0)
	mv	a4,a3
	sh	a5,-18(s0)
	mv	a5,a4
	sh	a5,-20(s0)
	.loc 1 416 12
	call	DebugAssertEnabled
	mv	a5,a0
	.loc 1 416 11
	beq	a5,zero,.L38
	.loc 1 416 40 discriminator 1
	ld	a4,-40(s0)
	li	a5,15
	bleu	a4,a5,.L38
	.loc 1 416 59 discriminator 2
	lla	a2,.LC5
	li	a1,416
	lla	a0,.LC1
	call	UnitTestDebugAssert
.L38:
	.loc 1 417 12
	call	DebugAssertEnabled
	mv	a5,a0
	.loc 1 417 11
	beq	a5,zero,.L39
	.loc 1 417 40 discriminator 1
	ld	a4,-32(s0)
	ld	a5,-40(s0)
	bleu	a4,a5,.L39
	.loc 1 417 66 discriminator 2
	lla	a2,.LC4
	li	a1,417
	lla	a0,.LC1
	call	UnitTestDebugAssert
.L39:
	.loc 1 418 18
	lhu	a5,-18(s0)
	lhu	a4,-20(s0)
	mv	a3,a4
	ld	a2,-40(s0)
	ld	a1,-32(s0)
	mv	a0,a5
	call	InternalBaseLibBitFieldOrUint
	mv	a5,a0
	.loc 1 418 10
	slli	a5,a5,48
	srli	a5,a5,48
	.loc 1 419 1
	mv	a0,a5
	ld	ra,40(sp)
	.cfi_restore 1
	ld	s0,32(sp)
	.cfi_restore 8
	.cfi_def_cfa 2, 48
	addi	sp,sp,48
	.cfi_def_cfa_offset 0
	jr	ra
	.cfi_endproc
.LFE10:
	.size	BitFieldOr16, .-BitFieldOr16
	.section	.text.BitFieldAnd16,"ax",@progbits
	.align	1
	.globl	BitFieldAnd16
	.type	BitFieldAnd16, @function
BitFieldAnd16:
.LFB11:
	.loc 1 453 1
	.cfi_startproc
	addi	sp,sp,-48
	.cfi_def_cfa_offset 48
	sd	ra,40(sp)
	sd	s0,32(sp)
	.cfi_offset 1, -8
	.cfi_offset 8, -16
	addi	s0,sp,48
	.cfi_def_cfa 8, 0
	mv	a5,a0
	sd	a1,-32(s0)
	sd	a2,-40(s0)
	mv	a4,a3
	sh	a5,-18(s0)
	mv	a5,a4
	sh	a5,-20(s0)
	.loc 1 454 12
	call	DebugAssertEnabled
	mv	a5,a0
	.loc 1 454 11
	beq	a5,zero,.L42
	.loc 1 454 40 discriminator 1
	ld	a4,-40(s0)
	li	a5,15
	bleu	a4,a5,.L42
	.loc 1 454 59 discriminator 2
	lla	a2,.LC5
	li	a1,454
	lla	a0,.LC1
	call	UnitTestDebugAssert
.L42:
	.loc 1 455 12
	call	DebugAssertEnabled
	mv	a5,a0
	.loc 1 455 11
	beq	a5,zero,.L43
	.loc 1 455 40 discriminator 1
	ld	a4,-32(s0)
	ld	a5,-40(s0)
	bleu	a4,a5,.L43
	.loc 1 455 66 discriminator 2
	lla	a2,.LC4
	li	a1,455
	lla	a0,.LC1
	call	UnitTestDebugAssert
.L43:
	.loc 1 456 18
	lhu	a5,-18(s0)
	lhu	a4,-20(s0)
	mv	a3,a4
	ld	a2,-40(s0)
	ld	a1,-32(s0)
	mv	a0,a5
	call	InternalBaseLibBitFieldAndUint
	mv	a5,a0
	.loc 1 456 10
	slli	a5,a5,48
	srli	a5,a5,48
	.loc 1 457 1
	mv	a0,a5
	ld	ra,40(sp)
	.cfi_restore 1
	ld	s0,32(sp)
	.cfi_restore 8
	.cfi_def_cfa 2, 48
	addi	sp,sp,48
	.cfi_def_cfa_offset 0
	jr	ra
	.cfi_endproc
.LFE11:
	.size	BitFieldAnd16, .-BitFieldAnd16
	.section	.text.BitFieldAndThenOr16,"ax",@progbits
	.align	1
	.globl	BitFieldAndThenOr16
	.type	BitFieldAndThenOr16, @function
BitFieldAndThenOr16:
.LFB12:
	.loc 1 495 1
	.cfi_startproc
	addi	sp,sp,-48
	.cfi_def_cfa_offset 48
	sd	ra,40(sp)
	sd	s0,32(sp)
	.cfi_offset 1, -8
	.cfi_offset 8, -16
	addi	s0,sp,48
	.cfi_def_cfa 8, 0
	mv	a5,a0
	sd	a1,-32(s0)
	sd	a2,-40(s0)
	sh	a5,-18(s0)
	mv	a5,a3
	sh	a5,-20(s0)
	mv	a5,a4
	sh	a5,-22(s0)
	.loc 1 496 12
	call	DebugAssertEnabled
	mv	a5,a0
	.loc 1 496 11
	beq	a5,zero,.L46
	.loc 1 496 40 discriminator 1
	ld	a4,-40(s0)
	li	a5,15
	bleu	a4,a5,.L46
	.loc 1 496 59 discriminator 2
	lla	a2,.LC5
	li	a1,496
	lla	a0,.LC1
	call	UnitTestDebugAssert
.L46:
	.loc 1 497 12
	call	DebugAssertEnabled
	mv	a5,a0
	.loc 1 497 11
	beq	a5,zero,.L47
	.loc 1 497 40 discriminator 1
	ld	a4,-32(s0)
	ld	a5,-40(s0)
	bleu	a4,a5,.L47
	.loc 1 497 66 discriminator 2
	lla	a2,.LC4
	li	a1,497
	lla	a0,.LC1
	call	UnitTestDebugAssert
.L47:
	.loc 1 498 10
	lhu	a4,-20(s0)
	lhu	a5,-18(s0)
	mv	a3,a4
	ld	a2,-40(s0)
	ld	a1,-32(s0)
	mv	a0,a5
	call	BitFieldAnd16
	mv	a5,a0
	mv	a4,a5
	lhu	a5,-22(s0)
	mv	a3,a5
	ld	a2,-40(s0)
	ld	a1,-32(s0)
	mv	a0,a4
	call	BitFieldOr16
	mv	a5,a0
	.loc 1 504 1
	mv	a0,a5
	ld	ra,40(sp)
	.cfi_restore 1
	ld	s0,32(sp)
	.cfi_restore 8
	.cfi_def_cfa 2, 48
	addi	sp,sp,48
	.cfi_def_cfa_offset 0
	jr	ra
	.cfi_endproc
.LFE12:
	.size	BitFieldAndThenOr16, .-BitFieldAndThenOr16
	.section	.rodata
	.align	3
.LC6:
	.string	"EndBit < 32"
	.section	.text.BitFieldRead32,"ax",@progbits
	.align	1
	.globl	BitFieldRead32
	.type	BitFieldRead32, @function
BitFieldRead32:
.LFB13:
	.loc 1 532 1
	.cfi_startproc
	addi	sp,sp,-48
	.cfi_def_cfa_offset 48
	sd	ra,40(sp)
	sd	s0,32(sp)
	.cfi_offset 1, -8
	.cfi_offset 8, -16
	addi	s0,sp,48
	.cfi_def_cfa 8, 0
	mv	a5,a0
	sd	a1,-32(s0)
	sd	a2,-40(s0)
	sw	a5,-20(s0)
	.loc 1 533 12
	call	DebugAssertEnabled
	mv	a5,a0
	.loc 1 533 11
	beq	a5,zero,.L50
	.loc 1 533 40 discriminator 1
	ld	a4,-40(s0)
	li	a5,31
	bleu	a4,a5,.L50
	.loc 1 533 59 discriminator 2
	lla	a2,.LC6
	li	a1,533
	lla	a0,.LC1
	call	UnitTestDebugAssert
.L50:
	.loc 1 534 12
	call	DebugAssertEnabled
	mv	a5,a0
	.loc 1 534 11
	beq	a5,zero,.L51
	.loc 1 534 40 discriminator 1
	ld	a4,-32(s0)
	ld	a5,-40(s0)
	bleu	a4,a5,.L51
	.loc 1 534 66 discriminator 2
	lla	a2,.LC4
	li	a1,534
	lla	a0,.LC1
	call	UnitTestDebugAssert
.L51:
	.loc 1 535 18
	lwu	a5,-20(s0)
	ld	a2,-40(s0)
	ld	a1,-32(s0)
	mv	a0,a5
	call	InternalBaseLibBitFieldReadUint
	mv	a5,a0
	.loc 1 535 10
	sext.w	a5,a5
	.loc 1 536 1
	mv	a0,a5
	ld	ra,40(sp)
	.cfi_restore 1
	ld	s0,32(sp)
	.cfi_restore 8
	.cfi_def_cfa 2, 48
	addi	sp,sp,48
	.cfi_def_cfa_offset 0
	jr	ra
	.cfi_endproc
.LFE13:
	.size	BitFieldRead32, .-BitFieldRead32
	.section	.text.BitFieldWrite32,"ax",@progbits
	.align	1
	.globl	BitFieldWrite32
	.type	BitFieldWrite32, @function
BitFieldWrite32:
.LFB14:
	.loc 1 569 1
	.cfi_startproc
	addi	sp,sp,-48
	.cfi_def_cfa_offset 48
	sd	ra,40(sp)
	sd	s0,32(sp)
	.cfi_offset 1, -8
	.cfi_offset 8, -16
	addi	s0,sp,48
	.cfi_def_cfa 8, 0
	mv	a5,a0
	sd	a1,-32(s0)
	sd	a2,-40(s0)
	mv	a4,a3
	sw	a5,-20(s0)
	mv	a5,a4
	sw	a5,-24(s0)
	.loc 1 570 12
	call	DebugAssertEnabled
	mv	a5,a0
	.loc 1 570 11
	beq	a5,zero,.L54
	.loc 1 570 40 discriminator 1
	ld	a4,-40(s0)
	li	a5,31
	bleu	a4,a5,.L54
	.loc 1 570 59 discriminator 2
	lla	a2,.LC6
	li	a1,570
	lla	a0,.LC1
	call	UnitTestDebugAssert
.L54:
	.loc 1 571 12
	call	DebugAssertEnabled
	mv	a5,a0
	.loc 1 571 11
	beq	a5,zero,.L55
	.loc 1 571 40 discriminator 1
	ld	a4,-32(s0)
	ld	a5,-40(s0)
	bleu	a4,a5,.L55
	.loc 1 571 66 discriminator 2
	lla	a2,.LC4
	li	a1,571
	lla	a0,.LC1
	call	UnitTestDebugAssert
.L55:
	.loc 1 572 10
	lw	a4,-24(s0)
	lw	a5,-20(s0)
	li	a3,0
	ld	a2,-40(s0)
	ld	a1,-32(s0)
	mv	a0,a5
	call	BitFieldAndThenOr32
	mv	a5,a0
	sext.w	a5,a5
	.loc 1 573 1
	mv	a0,a5
	ld	ra,40(sp)
	.cfi_restore 1
	ld	s0,32(sp)
	.cfi_restore 8
	.cfi_def_cfa 2, 48
	addi	sp,sp,48
	.cfi_def_cfa_offset 0
	jr	ra
	.cfi_endproc
.LFE14:
	.size	BitFieldWrite32, .-BitFieldWrite32
	.section	.text.BitFieldOr32,"ax",@progbits
	.align	1
	.globl	BitFieldOr32
	.type	BitFieldOr32, @function
BitFieldOr32:
.LFB15:
	.loc 1 607 1
	.cfi_startproc
	addi	sp,sp,-48
	.cfi_def_cfa_offset 48
	sd	ra,40(sp)
	sd	s0,32(sp)
	.cfi_offset 1, -8
	.cfi_offset 8, -16
	addi	s0,sp,48
	.cfi_def_cfa 8, 0
	mv	a5,a0
	sd	a1,-32(s0)
	sd	a2,-40(s0)
	mv	a4,a3
	sw	a5,-20(s0)
	mv	a5,a4
	sw	a5,-24(s0)
	.loc 1 608 12
	call	DebugAssertEnabled
	mv	a5,a0
	.loc 1 608 11
	beq	a5,zero,.L58
	.loc 1 608 40 discriminator 1
	ld	a4,-40(s0)
	li	a5,31
	bleu	a4,a5,.L58
	.loc 1 608 59 discriminator 2
	lla	a2,.LC6
	li	a1,608
	lla	a0,.LC1
	call	UnitTestDebugAssert
.L58:
	.loc 1 609 12
	call	DebugAssertEnabled
	mv	a5,a0
	.loc 1 609 11
	beq	a5,zero,.L59
	.loc 1 609 40 discriminator 1
	ld	a4,-32(s0)
	ld	a5,-40(s0)
	bleu	a4,a5,.L59
	.loc 1 609 66 discriminator 2
	lla	a2,.LC4
	li	a1,609
	lla	a0,.LC1
	call	UnitTestDebugAssert
.L59:
	.loc 1 610 18
	lwu	a5,-20(s0)
	lwu	a4,-24(s0)
	mv	a3,a4
	ld	a2,-40(s0)
	ld	a1,-32(s0)
	mv	a0,a5
	call	InternalBaseLibBitFieldOrUint
	mv	a5,a0
	.loc 1 610 10
	sext.w	a5,a5
	.loc 1 611 1
	mv	a0,a5
	ld	ra,40(sp)
	.cfi_restore 1
	ld	s0,32(sp)
	.cfi_restore 8
	.cfi_def_cfa 2, 48
	addi	sp,sp,48
	.cfi_def_cfa_offset 0
	jr	ra
	.cfi_endproc
.LFE15:
	.size	BitFieldOr32, .-BitFieldOr32
	.section	.text.BitFieldAnd32,"ax",@progbits
	.align	1
	.globl	BitFieldAnd32
	.type	BitFieldAnd32, @function
BitFieldAnd32:
.LFB16:
	.loc 1 645 1
	.cfi_startproc
	addi	sp,sp,-48
	.cfi_def_cfa_offset 48
	sd	ra,40(sp)
	sd	s0,32(sp)
	.cfi_offset 1, -8
	.cfi_offset 8, -16
	addi	s0,sp,48
	.cfi_def_cfa 8, 0
	mv	a5,a0
	sd	a1,-32(s0)
	sd	a2,-40(s0)
	mv	a4,a3
	sw	a5,-20(s0)
	mv	a5,a4
	sw	a5,-24(s0)
	.loc 1 646 12
	call	DebugAssertEnabled
	mv	a5,a0
	.loc 1 646 11
	beq	a5,zero,.L62
	.loc 1 646 40 discriminator 1
	ld	a4,-40(s0)
	li	a5,31
	bleu	a4,a5,.L62
	.loc 1 646 59 discriminator 2
	lla	a2,.LC6
	li	a1,646
	lla	a0,.LC1
	call	UnitTestDebugAssert
.L62:
	.loc 1 647 12
	call	DebugAssertEnabled
	mv	a5,a0
	.loc 1 647 11
	beq	a5,zero,.L63
	.loc 1 647 40 discriminator 1
	ld	a4,-32(s0)
	ld	a5,-40(s0)
	bleu	a4,a5,.L63
	.loc 1 647 66 discriminator 2
	lla	a2,.LC4
	li	a1,647
	lla	a0,.LC1
	call	UnitTestDebugAssert
.L63:
	.loc 1 648 18
	lwu	a5,-20(s0)
	lwu	a4,-24(s0)
	mv	a3,a4
	ld	a2,-40(s0)
	ld	a1,-32(s0)
	mv	a0,a5
	call	InternalBaseLibBitFieldAndUint
	mv	a5,a0
	.loc 1 648 10
	sext.w	a5,a5
	.loc 1 649 1
	mv	a0,a5
	ld	ra,40(sp)
	.cfi_restore 1
	ld	s0,32(sp)
	.cfi_restore 8
	.cfi_def_cfa 2, 48
	addi	sp,sp,48
	.cfi_def_cfa_offset 0
	jr	ra
	.cfi_endproc
.LFE16:
	.size	BitFieldAnd32, .-BitFieldAnd32
	.section	.text.BitFieldAndThenOr32,"ax",@progbits
	.align	1
	.globl	BitFieldAndThenOr32
	.type	BitFieldAndThenOr32, @function
BitFieldAndThenOr32:
.LFB17:
	.loc 1 687 1
	.cfi_startproc
	addi	sp,sp,-48
	.cfi_def_cfa_offset 48
	sd	ra,40(sp)
	sd	s0,32(sp)
	.cfi_offset 1, -8
	.cfi_offset 8, -16
	addi	s0,sp,48
	.cfi_def_cfa 8, 0
	mv	a5,a0
	sd	a1,-32(s0)
	sd	a2,-40(s0)
	sw	a5,-20(s0)
	mv	a5,a3
	sw	a5,-24(s0)
	mv	a5,a4
	sw	a5,-44(s0)
	.loc 1 688 12
	call	DebugAssertEnabled
	mv	a5,a0
	.loc 1 688 11
	beq	a5,zero,.L66
	.loc 1 688 40 discriminator 1
	ld	a4,-40(s0)
	li	a5,31
	bleu	a4,a5,.L66
	.loc 1 688 59 discriminator 2
	lla	a2,.LC6
	li	a1,688
	lla	a0,.LC1
	call	UnitTestDebugAssert
.L66:
	.loc 1 689 12
	call	DebugAssertEnabled
	mv	a5,a0
	.loc 1 689 11
	beq	a5,zero,.L67
	.loc 1 689 40 discriminator 1
	ld	a4,-32(s0)
	ld	a5,-40(s0)
	bleu	a4,a5,.L67
	.loc 1 689 66 discriminator 2
	lla	a2,.LC4
	li	a1,689
	lla	a0,.LC1
	call	UnitTestDebugAssert
.L67:
	.loc 1 690 10
	lw	a4,-24(s0)
	lw	a5,-20(s0)
	mv	a3,a4
	ld	a2,-40(s0)
	ld	a1,-32(s0)
	mv	a0,a5
	call	BitFieldAnd32
	mv	a5,a0
	sext.w	a5,a5
	lw	a4,-44(s0)
	mv	a3,a4
	ld	a2,-40(s0)
	ld	a1,-32(s0)
	mv	a0,a5
	call	BitFieldOr32
	mv	a5,a0
	sext.w	a5,a5
	.loc 1 696 1
	mv	a0,a5
	ld	ra,40(sp)
	.cfi_restore 1
	ld	s0,32(sp)
	.cfi_restore 8
	.cfi_def_cfa 2, 48
	addi	sp,sp,48
	.cfi_def_cfa_offset 0
	jr	ra
	.cfi_endproc
.LFE17:
	.size	BitFieldAndThenOr32, .-BitFieldAndThenOr32
	.section	.rodata
	.align	3
.LC7:
	.string	"EndBit < 64"
	.section	.text.BitFieldRead64,"ax",@progbits
	.align	1
	.globl	BitFieldRead64
	.type	BitFieldRead64, @function
BitFieldRead64:
.LFB18:
	.loc 1 724 1
	.cfi_startproc
	addi	sp,sp,-48
	.cfi_def_cfa_offset 48
	sd	ra,40(sp)
	sd	s0,32(sp)
	.cfi_offset 1, -8
	.cfi_offset 8, -16
	addi	s0,sp,48
	.cfi_def_cfa 8, 0
	sd	a0,-24(s0)
	sd	a1,-32(s0)
	sd	a2,-40(s0)
	.loc 1 725 12
	call	DebugAssertEnabled
	mv	a5,a0
	.loc 1 725 11
	beq	a5,zero,.L70
	.loc 1 725 40 discriminator 1
	ld	a4,-40(s0)
	li	a5,63
	bleu	a4,a5,.L70
	.loc 1 725 59 discriminator 2
	lla	a2,.LC7
	li	a1,725
	lla	a0,.LC1
	call	UnitTestDebugAssert
.L70:
	.loc 1 726 12
	call	DebugAssertEnabled
	mv	a5,a0
	.loc 1 726 11
	beq	a5,zero,.L71
	.loc 1 726 40 discriminator 1
	ld	a4,-32(s0)
	ld	a5,-40(s0)
	bleu	a4,a5,.L71
	.loc 1 726 66 discriminator 2
	lla	a2,.LC4
	li	a1,726
	lla	a0,.LC1
	call	UnitTestDebugAssert
.L71:
	.loc 1 727 32
	ld	a1,-40(s0)
	li	a0,-2
	call	LShiftU64
	mv	a5,a0
	.loc 1 727 31
	not	a4,a5
	.loc 1 727 10
	ld	a5,-24(s0)
	and	a5,a4,a5
	ld	a1,-32(s0)
	mv	a0,a5
	call	RShiftU64
	mv	a5,a0
	.loc 1 728 1
	mv	a0,a5
	ld	ra,40(sp)
	.cfi_restore 1
	ld	s0,32(sp)
	.cfi_restore 8
	.cfi_def_cfa 2, 48
	addi	sp,sp,48
	.cfi_def_cfa_offset 0
	jr	ra
	.cfi_endproc
.LFE18:
	.size	BitFieldRead64, .-BitFieldRead64
	.section	.text.BitFieldWrite64,"ax",@progbits
	.align	1
	.globl	BitFieldWrite64
	.type	BitFieldWrite64, @function
BitFieldWrite64:
.LFB19:
	.loc 1 761 1
	.cfi_startproc
	addi	sp,sp,-48
	.cfi_def_cfa_offset 48
	sd	ra,40(sp)
	sd	s0,32(sp)
	.cfi_offset 1, -8
	.cfi_offset 8, -16
	addi	s0,sp,48
	.cfi_def_cfa 8, 0
	sd	a0,-24(s0)
	sd	a1,-32(s0)
	sd	a2,-40(s0)
	sd	a3,-48(s0)
	.loc 1 762 12
	call	DebugAssertEnabled
	mv	a5,a0
	.loc 1 762 11
	beq	a5,zero,.L74
	.loc 1 762 40 discriminator 1
	ld	a4,-40(s0)
	li	a5,63
	bleu	a4,a5,.L74
	.loc 1 762 59 discriminator 2
	lla	a2,.LC7
	li	a1,762
	lla	a0,.LC1
	call	UnitTestDebugAssert
.L74:
	.loc 1 763 12
	call	DebugAssertEnabled
	mv	a5,a0
	.loc 1 763 11
	beq	a5,zero,.L75
	.loc 1 763 40 discriminator 1
	ld	a4,-32(s0)
	ld	a5,-40(s0)
	bleu	a4,a5,.L75
	.loc 1 763 66 discriminator 2
	lla	a2,.LC4
	li	a1,763
	lla	a0,.LC1
	call	UnitTestDebugAssert
.L75:
	.loc 1 764 10
	ld	a4,-48(s0)
	li	a3,0
	ld	a2,-40(s0)
	ld	a1,-32(s0)
	ld	a0,-24(s0)
	call	BitFieldAndThenOr64
	mv	a5,a0
	.loc 1 765 1
	mv	a0,a5
	ld	ra,40(sp)
	.cfi_restore 1
	ld	s0,32(sp)
	.cfi_restore 8
	.cfi_def_cfa 2, 48
	addi	sp,sp,48
	.cfi_def_cfa_offset 0
	jr	ra
	.cfi_endproc
.LFE19:
	.size	BitFieldWrite64, .-BitFieldWrite64
	.section	.rodata
	.align	3
.LC8:
	.string	"RShiftU64 (OrData, EndBit - StartBit) == (RShiftU64 (OrData, EndBit - StartBit) & 1)"
	.section	.text.BitFieldOr64,"ax",@progbits
	.align	1
	.globl	BitFieldOr64
	.type	BitFieldOr64, @function
BitFieldOr64:
.LFB20:
	.loc 1 799 1
	.cfi_startproc
	addi	sp,sp,-80
	.cfi_def_cfa_offset 80
	sd	ra,72(sp)
	sd	s0,64(sp)
	sd	s1,56(sp)
	.cfi_offset 1, -8
	.cfi_offset 8, -16
	.cfi_offset 9, -24
	addi	s0,sp,80
	.cfi_def_cfa 8, 0
	sd	a0,-56(s0)
	sd	a1,-64(s0)
	sd	a2,-72(s0)
	sd	a3,-80(s0)
	.loc 1 803 12
	call	DebugAssertEnabled
	mv	a5,a0
	.loc 1 803 11
	beq	a5,zero,.L78
	.loc 1 803 40 discriminator 1
	ld	a4,-72(s0)
	li	a5,63
	bleu	a4,a5,.L78
	.loc 1 803 59 discriminator 2
	lla	a2,.LC7
	li	a1,803
	lla	a0,.LC1
	call	UnitTestDebugAssert
.L78:
	.loc 1 804 12
	call	DebugAssertEnabled
	mv	a5,a0
	.loc 1 804 11
	beq	a5,zero,.L79
	.loc 1 804 40 discriminator 1
	ld	a4,-64(s0)
	ld	a5,-72(s0)
	bleu	a4,a5,.L79
	.loc 1 804 66 discriminator 2
	lla	a2,.LC4
	li	a1,804
	lla	a0,.LC1
	call	UnitTestDebugAssert
.L79:
	.loc 1 811 12
	call	DebugAssertEnabled
	mv	a5,a0
	.loc 1 811 11
	beq	a5,zero,.L80
	.loc 1 811 43 discriminator 1
	ld	a4,-72(s0)
	ld	a5,-64(s0)
	sub	a5,a4,a5
	mv	a1,a5
	ld	a0,-80(s0)
	call	RShiftU64
	mv	s1,a0
	.loc 1 811 85 discriminator 1
	ld	a4,-72(s0)
	ld	a5,-64(s0)
	sub	a5,a4,a5
	mv	a1,a5
	ld	a0,-80(s0)
	call	RShiftU64
	mv	a5,a0
	.loc 1 811 123 discriminator 1
	andi	a5,a5,1
	.loc 1 811 40 discriminator 1
	beq	s1,a5,.L80
	.loc 1 811 132 discriminator 2
	lla	a2,.LC8
	li	a1,811
	lla	a0,.LC1
	call	UnitTestDebugAssert
.L80:
	.loc 1 813 12
	ld	a1,-64(s0)
	ld	a0,-80(s0)
	call	LShiftU64
	sd	a0,-40(s0)
	.loc 1 814 12
	ld	a1,-72(s0)
	li	a0,-2
	call	LShiftU64
	sd	a0,-48(s0)
	.loc 1 816 30
	ld	a5,-48(s0)
	not	a4,a5
	.loc 1 816 28
	ld	a5,-40(s0)
	and	a4,a4,a5
	.loc 1 816 18
	ld	a5,-56(s0)
	or	a5,a4,a5
	.loc 1 817 1
	mv	a0,a5
	ld	ra,72(sp)
	.cfi_restore 1
	ld	s0,64(sp)
	.cfi_restore 8
	.cfi_def_cfa 2, 80
	ld	s1,56(sp)
	.cfi_restore 9
	addi	sp,sp,80
	.cfi_def_cfa_offset 0
	jr	ra
	.cfi_endproc
.LFE20:
	.size	BitFieldOr64, .-BitFieldOr64
	.section	.rodata
	.align	3
.LC9:
	.string	"RShiftU64 (AndData, EndBit - StartBit) == (RShiftU64 (AndData, EndBit - StartBit) & 1)"
	.section	.text.BitFieldAnd64,"ax",@progbits
	.align	1
	.globl	BitFieldAnd64
	.type	BitFieldAnd64, @function
BitFieldAnd64:
.LFB21:
	.loc 1 851 1
	.cfi_startproc
	addi	sp,sp,-80
	.cfi_def_cfa_offset 80
	sd	ra,72(sp)
	sd	s0,64(sp)
	sd	s1,56(sp)
	.cfi_offset 1, -8
	.cfi_offset 8, -16
	.cfi_offset 9, -24
	addi	s0,sp,80
	.cfi_def_cfa 8, 0
	sd	a0,-56(s0)
	sd	a1,-64(s0)
	sd	a2,-72(s0)
	sd	a3,-80(s0)
	.loc 1 855 12
	call	DebugAssertEnabled
	mv	a5,a0
	.loc 1 855 11
	beq	a5,zero,.L83
	.loc 1 855 40 discriminator 1
	ld	a4,-72(s0)
	li	a5,63
	bleu	a4,a5,.L83
	.loc 1 855 59 discriminator 2
	lla	a2,.LC7
	li	a1,855
	lla	a0,.LC1
	call	UnitTestDebugAssert
.L83:
	.loc 1 856 12
	call	DebugAssertEnabled
	mv	a5,a0
	.loc 1 856 11
	beq	a5,zero,.L84
	.loc 1 856 40 discriminator 1
	ld	a4,-64(s0)
	ld	a5,-72(s0)
	bleu	a4,a5,.L84
	.loc 1 856 66 discriminator 2
	lla	a2,.LC4
	li	a1,856
	lla	a0,.LC1
	call	UnitTestDebugAssert
.L84:
	.loc 1 863 12
	call	DebugAssertEnabled
	mv	a5,a0
	.loc 1 863 11
	beq	a5,zero,.L85
	.loc 1 863 43 discriminator 1
	ld	a4,-72(s0)
	ld	a5,-64(s0)
	sub	a5,a4,a5
	mv	a1,a5
	ld	a0,-80(s0)
	call	RShiftU64
	mv	s1,a0
	.loc 1 863 86 discriminator 1
	ld	a4,-72(s0)
	ld	a5,-64(s0)
	sub	a5,a4,a5
	mv	a1,a5
	ld	a0,-80(s0)
	call	RShiftU64
	mv	a5,a0
	.loc 1 863 125 discriminator 1
	andi	a5,a5,1
	.loc 1 863 40 discriminator 1
	beq	s1,a5,.L85
	.loc 1 863 134 discriminator 2
	lla	a2,.LC9
	li	a1,863
	lla	a0,.LC1
	call	UnitTestDebugAssert
.L85:
	.loc 1 865 12
	ld	a5,-80(s0)
	not	a5,a5
	ld	a1,-64(s0)
	mv	a0,a5
	call	LShiftU64
	sd	a0,-40(s0)
	.loc 1 866 12
	ld	a1,-72(s0)
	li	a0,-2
	call	LShiftU64
	sd	a0,-48(s0)
	.loc 1 868 20
	ld	a5,-40(s0)
	not	a4,a5
	ld	a5,-48(s0)
	or	a4,a4,a5
	.loc 1 868 18
	ld	a5,-56(s0)
	and	a5,a4,a5
	.loc 1 869 1
	mv	a0,a5
	ld	ra,72(sp)
	.cfi_restore 1
	ld	s0,64(sp)
	.cfi_restore 8
	.cfi_def_cfa 2, 80
	ld	s1,56(sp)
	.cfi_restore 9
	addi	sp,sp,80
	.cfi_def_cfa_offset 0
	jr	ra
	.cfi_endproc
.LFE21:
	.size	BitFieldAnd64, .-BitFieldAnd64
	.section	.text.BitFieldAndThenOr64,"ax",@progbits
	.align	1
	.globl	BitFieldAndThenOr64
	.type	BitFieldAndThenOr64, @function
BitFieldAndThenOr64:
.LFB22:
	.loc 1 907 1
	.cfi_startproc
	addi	sp,sp,-64
	.cfi_def_cfa_offset 64
	sd	ra,56(sp)
	sd	s0,48(sp)
	.cfi_offset 1, -8
	.cfi_offset 8, -16
	addi	s0,sp,64
	.cfi_def_cfa 8, 0
	sd	a0,-24(s0)
	sd	a1,-32(s0)
	sd	a2,-40(s0)
	sd	a3,-48(s0)
	sd	a4,-56(s0)
	.loc 1 908 12
	call	DebugAssertEnabled
	mv	a5,a0
	.loc 1 908 11
	beq	a5,zero,.L88
	.loc 1 908 40 discriminator 1
	ld	a4,-40(s0)
	li	a5,63
	bleu	a4,a5,.L88
	.loc 1 908 59 discriminator 2
	lla	a2,.LC7
	li	a1,908
	lla	a0,.LC1
	call	UnitTestDebugAssert
.L88:
	.loc 1 909 12
	call	DebugAssertEnabled
	mv	a5,a0
	.loc 1 909 11
	beq	a5,zero,.L89
	.loc 1 909 40 discriminator 1
	ld	a4,-32(s0)
	ld	a5,-40(s0)
	bleu	a4,a5,.L89
	.loc 1 909 66 discriminator 2
	lla	a2,.LC4
	li	a1,909
	lla	a0,.LC1
	call	UnitTestDebugAssert
.L89:
	.loc 1 910 10
	ld	a3,-48(s0)
	ld	a2,-40(s0)
	ld	a1,-32(s0)
	ld	a0,-24(s0)
	call	BitFieldAnd64
	mv	a5,a0
	ld	a3,-56(s0)
	ld	a2,-40(s0)
	ld	a1,-32(s0)
	mv	a0,a5
	call	BitFieldOr64
	mv	a5,a0
	.loc 1 916 1
	mv	a0,a5
	ld	ra,56(sp)
	.cfi_restore 1
	ld	s0,48(sp)
	.cfi_restore 8
	.cfi_def_cfa 2, 64
	addi	sp,sp,64
	.cfi_def_cfa_offset 0
	jr	ra
	.cfi_endproc
.LFE22:
	.size	BitFieldAndThenOr64, .-BitFieldAndThenOr64
	.section	.text.BitFieldCountOnes32,"ax",@progbits
	.align	1
	.globl	BitFieldCountOnes32
	.type	BitFieldCountOnes32, @function
BitFieldCountOnes32:
.LFB23:
	.loc 1 945 1
	.cfi_startproc
	addi	sp,sp,-64
	.cfi_def_cfa_offset 64
	sd	ra,56(sp)
	sd	s0,48(sp)
	.cfi_offset 1, -8
	.cfi_offset 8, -16
	addi	s0,sp,64
	.cfi_def_cfa 8, 0
	mv	a5,a0
	sd	a1,-48(s0)
	sd	a2,-56(s0)
	sw	a5,-36(s0)
	.loc 1 948 12
	call	DebugAssertEnabled
	mv	a5,a0
	.loc 1 948 11
	beq	a5,zero,.L92
	.loc 1 948 40 discriminator 1
	ld	a4,-56(s0)
	li	a5,31
	bleu	a4,a5,.L92
	.loc 1 948 59 discriminator 2
	lla	a2,.LC6
	li	a1,948
	lla	a0,.LC1
	call	UnitTestDebugAssert
.L92:
	.loc 1 949 12
	call	DebugAssertEnabled
	mv	a5,a0
	.loc 1 949 11
	beq	a5,zero,.L93
	.loc 1 949 40 discriminator 1
	ld	a4,-48(s0)
	ld	a5,-56(s0)
	bleu	a4,a5,.L93
	.loc 1 949 66 discriminator 2
	lla	a2,.LC4
	li	a1,949
	lla	a0,.LC1
	call	UnitTestDebugAssert
.L93:
	.loc 1 951 11
	lw	a5,-36(s0)
	ld	a2,-56(s0)
	ld	a1,-48(s0)
	mv	a0,a5
	call	BitFieldRead32
	mv	a5,a0
	sw	a5,-20(s0)
	.loc 1 952 20
	lw	a5,-20(s0)
	srliw	a5,a5,1
	sext.w	a5,a5
	.loc 1 952 26
	mv	a4,a5
	li	a5,1431654400
	addi	a5,a5,1365
	and	a5,a4,a5
	sext.w	a5,a5
	.loc 1 952 9
	lw	a4,-20(s0)
	subw	a5,a4,a5
	sw	a5,-20(s0)
	.loc 1 953 18
	lw	a4,-20(s0)
	li	a5,858992640
	addi	a5,a5,819
	and	a5,a4,a5
	sext.w	a4,a5
	.loc 1 953 42
	lw	a5,-20(s0)
	srliw	a5,a5,2
	sext.w	a5,a5
	.loc 1 953 48
	mv	a3,a5
	li	a5,858992640
	addi	a5,a5,819
	and	a5,a3,a5
	sext.w	a5,a5
	.loc 1 953 9
	addw	a5,a4,a5
	sw	a5,-20(s0)
	.loc 1 954 18
	lw	a5,-20(s0)
	srliw	a5,a5,4
	sext.w	a5,a5
	.loc 1 954 9
	lw	a4,-20(s0)
	addw	a5,a4,a5
	sw	a5,-20(s0)
	.loc 1 955 9
	lw	a4,-20(s0)
	li	a5,252645376
	addi	a5,a5,-241
	and	a5,a4,a5
	sw	a5,-20(s0)
	.loc 1 956 18
	lw	a5,-20(s0)
	srliw	a5,a5,8
	sext.w	a5,a5
	.loc 1 956 9
	lw	a4,-20(s0)
	addw	a5,a4,a5
	sw	a5,-20(s0)
	.loc 1 957 18
	lw	a5,-20(s0)
	srliw	a5,a5,16
	sext.w	a5,a5
	.loc 1 957 9
	lw	a4,-20(s0)
	addw	a5,a4,a5
	sw	a5,-20(s0)
	.loc 1 959 24
	lw	a5,-20(s0)
	andi	a5,a5,0xff
	andi	a5,a5,63
	andi	a5,a5,0xff
	.loc 1 960 1
	mv	a0,a5
	ld	ra,56(sp)
	.cfi_restore 1
	ld	s0,48(sp)
	.cfi_restore 8
	.cfi_def_cfa 2, 64
	addi	sp,sp,64
	.cfi_def_cfa_offset 0
	jr	ra
	.cfi_endproc
.LFE23:
	.size	BitFieldCountOnes32, .-BitFieldCountOnes32
	.section	.text.BitFieldCountOnes64,"ax",@progbits
	.align	1
	.globl	BitFieldCountOnes64
	.type	BitFieldCountOnes64, @function
BitFieldCountOnes64:
.LFB24:
	.loc 1 989 1
	.cfi_startproc
	addi	sp,sp,-64
	.cfi_def_cfa_offset 64
	sd	ra,56(sp)
	sd	s0,48(sp)
	.cfi_offset 1, -8
	.cfi_offset 8, -16
	addi	s0,sp,64
	.cfi_def_cfa 8, 0
	sd	a0,-40(s0)
	sd	a1,-48(s0)
	sd	a2,-56(s0)
	.loc 1 993 12
	call	DebugAssertEnabled
	mv	a5,a0
	.loc 1 993 11
	beq	a5,zero,.L96
	.loc 1 993 40 discriminator 1
	ld	a4,-56(s0)
	li	a5,63
	bleu	a4,a5,.L96
	.loc 1 993 59 discriminator 2
	lla	a2,.LC7
	li	a1,993
	lla	a0,.LC1
	call	UnitTestDebugAssert
.L96:
	.loc 1 994 12
	call	DebugAssertEnabled
	mv	a5,a0
	.loc 1 994 11
	beq	a5,zero,.L97
	.loc 1 994 40 discriminator 1
	ld	a4,-48(s0)
	ld	a5,-56(s0)
	bleu	a4,a5,.L97
	.loc 1 994 66 discriminator 2
	lla	a2,.LC4
	li	a1,994
	lla	a0,.LC1
	call	UnitTestDebugAssert
.L97:
	.loc 1 996 14
	ld	a2,-56(s0)
	ld	a1,-48(s0)
	ld	a0,-40(s0)
	call	BitFieldRead64
	sd	a0,-24(s0)
	.loc 1 997 11
	ld	a5,-24(s0)
	sext.w	a5,a5
	li	a2,31
	li	a1,0
	mv	a0,a5
	call	BitFieldCountOnes32
	mv	a5,a0
	sb	a5,-25(s0)
	.loc 1 998 42
	li	a1,32
	ld	a0,-24(s0)
	call	RShiftU64
	mv	a5,a0
	.loc 1 998 12
	sext.w	a5,a5
	li	a2,31
	li	a1,0
	mv	a0,a5
	call	BitFieldCountOnes32
	mv	a5,a0
	mv	a4,a5
	.loc 1 998 9
	lbu	a5,-25(s0)
	addw	a5,a4,a5
	sb	a5,-25(s0)
	.loc 1 1000 10
	lbu	a5,-25(s0)
	.loc 1 1001 1
	mv	a0,a5
	ld	ra,56(sp)
	.cfi_restore 1
	ld	s0,48(sp)
	.cfi_restore 8
	.cfi_def_cfa 2, 64
	addi	sp,sp,64
	.cfi_def_cfa_offset 0
	jr	ra
	.cfi_endproc
.LFE24:
	.size	BitFieldCountOnes64, .-BitFieldCountOnes64
	.text
.Letext0:
	.file 2 "/home/xephyr/Documents/edk2/MdePkg/Include/RiscV64/ProcessorBind.h"
	.file 3 "/home/xephyr/Documents/edk2/MdePkg/Include/Base.h"
	.file 4 "/home/xephyr/Documents/edk2/Build/Mde/DEBUG_GCC5/RISCV64/MdePkg/Library/BaseLib/BaseLib/DEBUG/AutoGen.h"