	.file	"LinkedList.c"
	.option nopic
	.option norelax
	.attribute arch, "rv64i2p0_m2p0_a2p0_f2p0_d2p0_c2p0"
	.attribute unaligned_access, 0
	.attribute stack_align, 16
	.text
.Ltext0:
	.cfi_sections	.debug_frame
	.section	.rodata
	.align	3
.LC0:
	.string	"List != ((void *) 0)"
	.align	3
.LC1:
	.string	"/home/xephyr/Documents/edk2/MdePkg/Library/BaseLib/LinkedList.c"
	.align	3
.LC2:
	.string	"List->ForwardLink != ((void *) 0)"
	.align	3
.LC3:
	.string	"List->BackLink != ((void *) 0)"
	.section	.text.InternalBaseLibIsListValid,"ax",@progbits
	.align	1
	.globl	InternalBaseLibIsListValid
	.type	InternalBaseLibIsListValid, @function
InternalBaseLibIsListValid:
.LFB0:
	.file 1 "/home/xephyr/Documents/edk2/MdePkg/Library/BaseLib/LinkedList.c"
	.loc 1 67 1
	.cfi_startproc
	addi	sp,sp,-48
	.cfi_def_cfa_offset 48
	sd	ra,40(sp)
	sd	s0,32(sp)
	.cfi_offset 1, -8
	.cfi_offset 8, -16
	addi	s0,sp,48
	.cfi_def_cfa 8, 0
	sd	a0,-40(s0)
	.loc 1 74 12
	call	DebugAssertEnabled
	mv	a5,a0
	.loc 1 74 11
	beq	a5,zero,.L2
	.loc 1 74 40 discriminator 1
	ld	a5,-40(s0)
	bne	a5,zero,.L2
	.loc 1 74 68 discriminator 2
	lla	a2,.LC0
	li	a1,74
	lla	a0,.LC1
	call	UnitTestDebugAssert
.L2:
	.loc 1 75 12
	call	DebugAssertEnabled
	mv	a5,a0
	.loc 1 75 11
	beq	a5,zero,.L3
	.loc 1 75 47 discriminator 1
	ld	a5,-40(s0)
	ld	a5,0(a5)
	.loc 1 75 40 discriminator 1
	bne	a5,zero,.L3
	.loc 1 75 81 discriminator 2
	lla	a2,.LC2
	li	a1,75
	lla	a0,.LC1
	call	UnitTestDebugAssert
.L3:
	.loc 1 76 12
	call	DebugAssertEnabled
	mv	a5,a0
	.loc 1 76 11
	beq	a5,zero,.L4
	.loc 1 76 47 discriminator 1
	ld	a5,-40(s0)
	ld	a5,8(a5)
	.loc 1 76 40 discriminator 1
	bne	a5,zero,.L4
	.loc 1 76 78 discriminator 2
	lla	a2,.LC3
	li	a1,76
	lla	a0,.LC1
	call	UnitTestDebugAssert
.L4:
	.loc 1 78 53
	lla	a5,_gPcd_FixedAtBuild_PcdMaximumLinkedListLength
	lw	a5,0(a5)
	.loc 1 78 6
	beq	a5,zero,.L5
	.loc 1 79 11
	sd	zero,-24(s0)
	.loc 1 80 9
	ld	a5,-40(s0)
	sd	a5,-32(s0)
.L7:
	.loc 1 87 11 discriminator 2
	ld	a5,-32(s0)
	ld	a5,0(a5)
	sd	a5,-32(s0)
	.loc 1 88 12 discriminator 2
	ld	a5,-24(s0)
	addi	a5,a5,1
	sd	a5,-24(s0)
	.loc 1 89 5 discriminator 2
	ld	a4,-32(s0)
	ld	a5,-40(s0)
	beq	a4,a5,.L6
	.loc 1 89 38 discriminator 1
	lla	a5,_gPcd_FixedAtBuild_PcdMaximumLinkedListLength
	lw	a5,0(a5)
	slli	a5,a5,32
	srli	a5,a5,32
	.loc 1 89 28 discriminator 1
	ld	a4,-24(s0)
	bltu	a4,a5,.L7
.L6:
	.loc 1 94 12
	lla	a5,_gPcd_FixedAtBuild_PcdMaximumLinkedListLength
	lw	a5,0(a5)
	slli	a5,a5,32
	srli	a5,a5,32
	ld	a4,-24(s0)
	sltu	a5,a4,a5
	andi	a5,a5,0xff
	j	.L8
.L5:
	.loc 1 97 10
	li	a5,1
.L8:
	.loc 1 98 1
	mv	a0,a5
	ld	ra,40(sp)
	.cfi_restore 1
	ld	s0,32(sp)
	.cfi_restore 8
	.cfi_def_cfa 2, 48
	addi	sp,sp,48
	.cfi_def_cfa_offset 0
	jr	ra
	.cfi_endproc
.LFE0:
	.size	InternalBaseLibIsListValid, .-InternalBaseLibIsListValid
	.section	.rodata
	.align	3
.LC4:
	.string	"InternalBaseLibIsListValid (FirstEntry)"
	.align	3
.LC5:
	.string	"SecondEntry != ((void *) 0)"
	.section	.text.IsNodeInList,"ax",@progbits
	.align	1
	.globl	IsNodeInList
	.type	IsNodeInList, @function
IsNodeInList:
.LFB1:
	.loc 1 125 1
	.cfi_startproc
	addi	sp,sp,-48
	.cfi_def_cfa_offset 48
	sd	ra,40(sp)
	sd	s0,32(sp)
	.cfi_offset 1, -8
	.cfi_offset 8, -16
	addi	s0,sp,48
	.cfi_def_cfa 8, 0
	sd	a0,-40(s0)
	sd	a1,-48(s0)
	.loc 1 132 12
	call	DebugAssertEnabled
	mv	a5,a0
	.loc 1 132 11
	beq	a5,zero,.L10
	.loc 1 132 43 discriminator 1
	ld	a0,-40(s0)
	call	InternalBaseLibIsListValid
	mv	a5,a0
	.loc 1 132 40 discriminator 1
	bne	a5,zero,.L10
	.loc 1 132 87 discriminator 2
	lla	a2,.LC4
	li	a1,132
	lla	a0,.LC1
	call	UnitTestDebugAssert
.L10:
	.loc 1 134 12
	call	DebugAssertEnabled
	mv	a5,a0
	.loc 1 134 11
	beq	a5,zero,.L11
	.loc 1 134 40 discriminator 1
	ld	a5,-48(s0)
	bne	a5,zero,.L11
	.loc 1 134 75 discriminator 2
	lla	a2,.LC5
	li	a1,134
	lla	a0,.LC1
	call	UnitTestDebugAssert
.L11:
	.loc 1 136 9
	sd	zero,-24(s0)
	.loc 1 137 7
	ld	a5,-40(s0)
	sd	a5,-32(s0)
.L15:
	.loc 1 144 9
	ld	a5,-32(s0)
	ld	a5,0(a5)
	sd	a5,-32(s0)
	.loc 1 145 55
	lla	a5,_gPcd_FixedAtBuild_PcdMaximumLinkedListLength
	lw	a5,0(a5)
	.loc 1 145 8
	beq	a5,zero,.L12
	.loc 1 146 12
	ld	a5,-24(s0)
	addi	a5,a5,1
	sd	a5,-24(s0)
	.loc 1 151 17
	lla	a5,_gPcd_FixedAtBuild_PcdMaximumLinkedListLength
	lw	a5,0(a5)
	slli	a5,a5,32
	srli	a5,a5,32
	.loc 1 151 10
	ld	a4,-24(s0)
	bne	a4,a5,.L12
	.loc 1 152 16
	ld	a4,-32(s0)
	ld	a5,-48(s0)
	sub	a5,a4,a5
	seqz	a5,a5
	andi	a5,a5,0xff
	j	.L13
.L12:
	.loc 1 156 8
	ld	a4,-32(s0)
	ld	a5,-48(s0)
	bne	a4,a5,.L14
	.loc 1 157 14
	li	a5,1
	j	.L13
.L14:
	.loc 1 159 3
	ld	a4,-32(s0)
	ld	a5,-40(s0)
	bne	a4,a5,.L15
	.loc 1 161 10
	li	a5,0
.L13:
	.loc 1 162 1
	mv	a0,a5
	ld	ra,40(sp)
	.cfi_restore 1
	ld	s0,32(sp)
	.cfi_restore 8
	.cfi_def_cfa 2, 48
	addi	sp,sp,48
	.cfi_def_cfa_offset 0
	jr	ra
	.cfi_endproc
.LFE1:
	.size	IsNodeInList, .-IsNodeInList
	.section	.rodata
	.align	3
.LC6:
	.string	"ListHead != ((void *) 0)"
	.section	.text.InitializeListHead,"ax",@progbits
	.align	1
	.globl	InitializeListHead
	.type	InitializeListHead, @function
InitializeListHead:
.LFB2:
	.loc 1 186 1
	.cfi_startproc
	addi	sp,sp,-32
	.cfi_def_cfa_offset 32
	sd	ra,24(sp)
	sd	s0,16(sp)
	.cfi_offset 1, -8
	.cfi_offset 8, -16
	addi	s0,sp,32
	.cfi_def_cfa 8, 0
	sd	a0,-24(s0)
	.loc 1 187 12
	call	DebugAssertEnabled
	mv	a5,a0
	.loc 1 187 11
	beq	a5,zero,.L17
	.loc 1 187 40 discriminator 1
	ld	a5,-24(s0)
	bne	a5,zero,.L17
	.loc 1 187 72 discriminator 2
	lla	a2,.LC6
	li	a1,187
	lla	a0,.LC1
	call	UnitTestDebugAssert
.L17:
	.loc 1 189 25
	ld	a5,-24(s0)
	ld	a4,-24(s0)
	sd	a4,0(a5)
	.loc 1 190 22
	ld	a5,-24(s0)
	ld	a4,-24(s0)
	sd	a4,8(a5)
	.loc 1 191 10
	ld	a5,-24(s0)
	.loc 1 192 1
	mv	a0,a5
	ld	ra,24(sp)
	.cfi_restore 1
	ld	s0,16(sp)
	.cfi_restore 8
	.cfi_def_cfa 2, 32
	addi	sp,sp,32
	.cfi_def_cfa_offset 0
	jr	ra
	.cfi_endproc
.LFE2:
	.size	InitializeListHead, .-InitializeListHead
	.section	.rodata
	.align	3
.LC7:
	.string	"((BOOLEAN)(0==1)) == IsNodeInList ((ListHead), (Entry))"
	.align	3
.LC8:
	.string	"InternalBaseLibIsListValid (ListHead)"
	.section	.text.InsertHeadList,"ax",@progbits
	.align	1
	.globl	InsertHeadList
	.type	InsertHeadList, @function
InsertHeadList:
.LFB3:
	.loc 1 222 1
	.cfi_startproc
	addi	sp,sp,-32
	.cfi_def_cfa_offset 32
	sd	ra,24(sp)
	sd	s0,16(sp)
	.cfi_offset 1, -8
	.cfi_offset 8, -16
	addi	s0,sp,32
	.cfi_def_cfa 8, 0
	sd	a0,-24(s0)
	sd	a1,-32(s0)
	.loc 1 226 12
	lla	a5,_gPcd_FixedAtBuild_PcdVerifyNodeInList
	lbu	a5,0(a5)
	.loc 1 226 11
	beq	a5,zero,.L20
	.loc 1 226 63 discriminator 1
	call	DebugAssertEnabled
	mv	a5,a0
	.loc 1 226 62 discriminator 1
	beq	a5,zero,.L21
	.loc 1 226 115 discriminator 3
	ld	a1,-32(s0)
	ld	a0,-24(s0)
	call	IsNodeInList
	mv	a5,a0
	.loc 1 226 91 discriminator 3
	beq	a5,zero,.L21
	.loc 1 226 154 discriminator 4
	lla	a2,.LC7
	li	a1,226
	lla	a0,.LC1
	call	UnitTestDebugAssert
	j	.L21
.L20:
	.loc 1 226 360 discriminator 2
	call	DebugAssertEnabled
	mv	a5,a0
	.loc 1 226 359 discriminator 2
	beq	a5,zero,.L21
	.loc 1 226 391 discriminator 5
	ld	a0,-24(s0)
	call	InternalBaseLibIsListValid
	mv	a5,a0
	.loc 1 226 388 discriminator 5
	bne	a5,zero,.L21
	.loc 1 226 433 discriminator 6
	lla	a2,.LC8
	li	a1,226
	lla	a0,.LC1
	call	UnitTestDebugAssert
.L21:
	.loc 1 228 32
	ld	a5,-24(s0)
	ld	a4,0(a5)
	.loc 1 228 22
	ld	a5,-32(s0)
	sd	a4,0(a5)
	.loc 1 229 19
	ld	a5,-32(s0)
	ld	a4,-24(s0)
	sd	a4,8(a5)
	.loc 1 230 8
	ld	a5,-32(s0)
	ld	a5,0(a5)
	.loc 1 230 32
	ld	a4,-32(s0)
	sd	a4,8(a5)
	.loc 1 231 25
	ld	a5,-24(s0)
	ld	a4,-32(s0)
	sd	a4,0(a5)
	.loc 1 232 10
	ld	a5,-24(s0)
	.loc 1 233 1
	mv	a0,a5
	ld	ra,24(sp)
	.cfi_restore 1
	ld	s0,16(sp)
	.cfi_restore 8
	.cfi_def_cfa 2, 32
	addi	sp,sp,32
	.cfi_def_cfa_offset 0
	jr	ra
	.cfi_endproc
.LFE3:
	.size	InsertHeadList, .-InsertHeadList
	.section	.text.InsertTailList,"ax",@progbits
	.align	1
	.globl	InsertTailList
	.type	InsertTailList, @function
InsertTailList:
.LFB4:
	.loc 1 263 1
	.cfi_startproc
	addi	sp,sp,-32
	.cfi_def_cfa_offset 32
	sd	ra,24(sp)
	sd	s0,16(sp)
	.cfi_offset 1, -8
	.cfi_offset 8, -16
	addi	s0,sp,32
	.cfi_def_cfa 8, 0
	sd	a0,-24(s0)
	sd	a1,-32(s0)
	.loc 1 267 12
	lla	a5,_gPcd_FixedAtBuild_PcdVerifyNodeInList
	lbu	a5,0(a5)
	.loc 1 267 11
	beq	a5,zero,.L24
	.loc 1 267 63 discriminator 1
	call	DebugAssertEnabled
	mv	a5,a0
	.loc 1 267 62 discriminator 1
	beq	a5,zero,.L25
	.loc 1 267 115 discriminator 3
	ld	a1,-32(s0)
	ld	a0,-24(s0)
	call	IsNodeInList
	mv	a5,a0
	.loc 1 267 91 discriminator 3
	beq	a5,zero,.L25
	.loc 1 267 154 discriminator 4
	lla	a2,.LC7
	li	a1,267
	lla	a0,.LC1
	call	UnitTestDebugAssert
	j	.L25
.L24:
	.loc 1 267 360 discriminator 2
	call	DebugAssertEnabled
	mv	a5,a0
	.loc 1 267 359 discriminator 2
	beq	a5,zero,.L25
	.loc 1 267 391 discriminator 5
	ld	a0,-24(s0)
	call	InternalBaseLibIsListValid
	mv	a5,a0
	.loc 1 267 388 discriminator 5
	bne	a5,zero,.L25
	.loc 1 267 433 discriminator 6
	lla	a2,.LC8
	li	a1,267
	lla	a0,.LC1
	call	UnitTestDebugAssert
.L25:
	.loc 1 269 22
	ld	a5,-32(s0)
	ld	a4,-24(s0)
	sd	a4,0(a5)
	.loc 1 270 29
	ld	a5,-24(s0)
	ld	a4,8(a5)
	.loc 1 270 19
	ld	a5,-32(s0)
	sd	a4,8(a5)
	.loc 1 271 8
	ld	a5,-32(s0)
	ld	a5,8(a5)
	.loc 1 271 32
	ld	a4,-32(s0)
	sd	a4,0(a5)
	.loc 1 272 22
	ld	a5,-24(s0)
	ld	a4,-32(s0)
	sd	a4,8(a5)
	.loc 1 273 10
	ld	a5,-24(s0)
	.loc 1 274 1
	mv	a0,a5
	ld	ra,24(sp)
	.cfi_restore 1
	ld	s0,16(sp)
	.cfi_restore 8
	.cfi_def_cfa 2, 32
	addi	sp,sp,32
	.cfi_def_cfa_offset 0
	jr	ra
	.cfi_endproc
.LFE4:
	.size	InsertTailList, .-InsertTailList
	.section	.rodata
	.align	3
.LC9:
	.string	"InternalBaseLibIsListValid (List)"
	.section	.text.GetFirstNode,"ax",@progbits
	.align	1
	.globl	GetFirstNode
	.type	GetFirstNode, @function
GetFirstNode:
.LFB5:
	.loc 1 301 1
	.cfi_startproc
	addi	sp,sp,-32
	.cfi_def_cfa_offset 32
	sd	ra,24(sp)
	sd	s0,16(sp)
	.cfi_offset 1, -8
	.cfi_offset 8, -16
	addi	s0,sp,32
	.cfi_def_cfa 8, 0
	sd	a0,-24(s0)
	.loc 1 305 12
	call	DebugAssertEnabled
	mv	a5,a0
	.loc 1 305 11
	beq	a5,zero,.L28
	.loc 1 305 43 discriminator 1
	ld	a0,-24(s0)
	call	InternalBaseLibIsListValid
	mv	a5,a0
	.loc 1 305 40 discriminator 1
	bne	a5,zero,.L28
	.loc 1 305 81 discriminator 2
	lla	a2,.LC9
	li	a1,305
	lla	a0,.LC1
	call	UnitTestDebugAssert
.L28:
	.loc 1 307 14
	ld	a5,-24(s0)
	ld	a5,0(a5)
	.loc 1 308 1
	mv	a0,a5
	ld	ra,24(sp)
	.cfi_restore 1
	ld	s0,16(sp)
	.cfi_restore 8
	.cfi_def_cfa 2, 32
	addi	sp,sp,32
	.cfi_def_cfa_offset 0
	jr	ra
	.cfi_endproc
.LFE5:
	.size	GetFirstNode, .-GetFirstNode
	.section	.rodata
	.align	3
.LC10:
	.string	"((BOOLEAN)(1==1)) == IsNodeInList ((List), (Node))"
	.section	.text.GetNextNode,"ax",@progbits
	.align	1
	.globl	GetNextNode
	.type	GetNextNode, @function
GetNextNode:
.LFB6:
	.loc 1 337 1
	.cfi_startproc
	addi	sp,sp,-32
	.cfi_def_cfa_offset 32
	sd	ra,24(sp)
	sd	s0,16(sp)
	.cfi_offset 1, -8
	.cfi_offset 8, -16
	addi	s0,sp,32
	.cfi_def_cfa 8, 0
	sd	a0,-24(s0)
	sd	a1,-32(s0)
	.loc 1 341 12
	lla	a5,_gPcd_FixedAtBuild_PcdVerifyNodeInList
	lbu	a5,0(a5)
	.loc 1 341 11
	beq	a5,zero,.L31
	.loc 1 341 63 discriminator 1
	call	DebugAssertEnabled
	mv	a5,a0
	.loc 1 341 62 discriminator 1
	beq	a5,zero,.L32
	.loc 1 341 115 discriminator 3
	ld	a1,-32(s0)
	ld	a0,-24(s0)
	call	IsNodeInList
	mv	a5,a0
	.loc 1 341 91 discriminator 3
	mv	a4,a5
	li	a5,1
	beq	a4,a5,.L32
	.loc 1 341 149 discriminator 4
	lla	a2,.LC10
	li	a1,341
	lla	a0,.LC1
	call	UnitTestDebugAssert
	j	.L32
.L31:
	.loc 1 341 350 discriminator 2
	call	DebugAssertEnabled
	mv	a5,a0
	.loc 1 341 349 discriminator 2
	beq	a5,zero,.L32
	.loc 1 341 381 discriminator 5
	ld	a0,-24(s0)
	call	InternalBaseLibIsListValid
	mv	a5,a0
	.loc 1 341 378 discriminator 5
	bne	a5,zero,.L32
	.loc 1 341 419 discriminator 6
	lla	a2,.LC9
	li	a1,341
	lla	a0,.LC1
	call	UnitTestDebugAssert
.L32:
	.loc 1 343 14
	ld	a5,-32(s0)
	ld	a5,0(a5)
	.loc 1 344 1
	mv	a0,a5
	ld	ra,24(sp)
	.cfi_restore 1
	ld	s0,16(sp)
	.cfi_restore 8
	.cfi_def_cfa 2, 32
	addi	sp,sp,32
	.cfi_def_cfa_offset 0
	jr	ra
	.cfi_endproc
.LFE6:
	.size	GetNextNode, .-GetNextNode
	.section	.text.GetPreviousNode,"ax",@progbits
	.align	1
	.globl	GetPreviousNode
	.type	GetPreviousNode, @function
GetPreviousNode:
.LFB7:
	.loc 1 373 1
	.cfi_startproc
	addi	sp,sp,-32
	.cfi_def_cfa_offset 32
	sd	ra,24(sp)
	sd	s0,16(sp)
	.cfi_offset 1, -8
	.cfi_offset 8, -16
	addi	s0,sp,32
	.cfi_def_cfa 8, 0
	sd	a0,-24(s0)
	sd	a1,-32(s0)
	.loc 1 377 12
	lla	a5,_gPcd_FixedAtBuild_PcdVerifyNodeInList
	lbu	a5,0(a5)
	.loc 1 377 11
	beq	a5,zero,.L35
	.loc 1 377 63 discriminator 1
	call	DebugAssertEnabled
	mv	a5,a0
	.loc 1 377 62 discriminator 1
	beq	a5,zero,.L36
	.loc 1 377 115 discriminator 3
	ld	a1,-32(s0)
	ld	a0,-24(s0)
	call	IsNodeInList
	mv	a5,a0
	.loc 1 377 91 discriminator 3
	mv	a4,a5
	li	a5,1
	beq	a4,a5,.L36
	.loc 1 377 149 discriminator 4
	lla	a2,.LC10
	li	a1,377
	lla	a0,.LC1
	call	UnitTestDebugAssert
	j	.L36
.L35:
	.loc 1 377 350 discriminator 2
	call	DebugAssertEnabled
	mv	a5,a0
	.loc 1 377 349 discriminator 2
	beq	a5,zero,.L36
	.loc 1 377 381 discriminator 5
	ld	a0,-24(s0)
	call	InternalBaseLibIsListValid
	mv	a5,a0
	.loc 1 377 378 discriminator 5
	bne	a5,zero,.L36
	.loc 1 377 419 discriminator 6
	lla	a2,.LC9
	li	a1,377
	lla	a0,.LC1
	call	UnitTestDebugAssert
.L36:
	.loc 1 379 14
	ld	a5,-32(s0)
	ld	a5,8(a5)
	.loc 1 380 1
	mv	a0,a5
	ld	ra,24(sp)
	.cfi_restore 1
	ld	s0,16(sp)
	.cfi_restore 8
	.cfi_def_cfa 2, 32
	addi	sp,sp,32
	.cfi_def_cfa_offset 0
	jr	ra
	.cfi_endproc
.LFE7:
	.size	GetPreviousNode, .-GetPreviousNode
	.section	.text.IsListEmpty,"ax",@progbits
	.align	1
	.globl	IsListEmpty
	.type	IsListEmpty, @function
IsListEmpty:
.LFB8:
	.loc 1 406 1
	.cfi_startproc
	addi	sp,sp,-32
	.cfi_def_cfa_offset 32
	sd	ra,24(sp)
	sd	s0,16(sp)
	.cfi_offset 1, -8
	.cfi_offset 8, -16
	addi	s0,sp,32
	.cfi_def_cfa 8, 0
	sd	a0,-24(s0)
	.loc 1 410 12
	call	DebugAssertEnabled
	mv	a5,a0
	.loc 1 410 11
	beq	a5,zero,.L39
	.loc 1 410 43 discriminator 1
	ld	a0,-24(s0)
	call	InternalBaseLibIsListValid
	mv	a5,a0
	.loc 1 410 40 discriminator 1
	bne	a5,zero,.L39
	.loc 1 410 85 discriminator 2
	lla	a2,.LC8
	li	a1,410
	lla	a0,.LC1
	call	UnitTestDebugAssert
.L39:
	.loc 1 412 28
	ld	a5,-24(s0)
	ld	a5,0(a5)
	.loc 1 412 10
	ld	a4,-24(s0)
	sub	a5,a4,a5
	seqz	a5,a5
	andi	a5,a5,0xff
	.loc 1 413 1
	mv	a0,a5
	ld	ra,24(sp)
	.cfi_restore 1
	ld	s0,16(sp)
	.cfi_restore 8
	.cfi_def_cfa 2, 32
	addi	sp,sp,32
	.cfi_def_cfa_offset 0
	jr	ra
	.cfi_endproc
.LFE8:
	.size	IsListEmpty, .-IsListEmpty
	.section	.text.IsNull,"ax",@progbits
	.align	1
	.globl	IsNull
	.type	IsNull, @function
IsNull:
.LFB9:
	.loc 1 447 1
	.cfi_startproc
	addi	sp,sp,-32
	.cfi_def_cfa_offset 32
	sd	ra,24(sp)
	sd	s0,16(sp)
	.cfi_offset 1, -8
	.cfi_offset 8, -16
	addi	s0,sp,32
	.cfi_def_cfa 8, 0
	sd	a0,-24(s0)
	sd	a1,-32(s0)
	.loc 1 451 12
	lla	a5,_gPcd_FixedAtBuild_PcdVerifyNodeInList
	lbu	a5,0(a5)
	.loc 1 451 11
	beq	a5,zero,.L42
	.loc 1 451 63 discriminator 1
	call	DebugAssertEnabled
	mv	a5,a0
	.loc 1 451 62 discriminator 1
	beq	a5,zero,.L43
	.loc 1 451 115 discriminator 3
	ld	a1,-32(s0)
	ld	a0,-24(s0)
	call	IsNodeInList
	mv	a5,a0
	.loc 1 451 91 discriminator 3
	mv	a4,a5
	li	a5,1
	beq	a4,a5,.L43
	.loc 1 451 149 discriminator 4
	lla	a2,.LC10
	li	a1,451
	lla	a0,.LC1
	call	UnitTestDebugAssert
	j	.L43
.L42:
	.loc 1 451 350 discriminator 2
	call	DebugAssertEnabled
	mv	a5,a0
	.loc 1 451 349 discriminator 2
	beq	a5,zero,.L43
	.loc 1 451 381 discriminator 5
	ld	a0,-24(s0)
	call	InternalBaseLibIsListValid
	mv	a5,a0
	.loc 1 451 378 discriminator 5
	bne	a5,zero,.L43
	.loc 1 451 419 discriminator 6
	lla	a2,.LC9
	li	a1,451
	lla	a0,.LC1
	call	UnitTestDebugAssert
.L43:
	.loc 1 453 10
	ld	a4,-32(s0)
	ld	a5,-24(s0)
	sub	a5,a4,a5
	seqz	a5,a5
	andi	a5,a5,0xff
	.loc 1 454 1
	mv	a0,a5
	ld	ra,24(sp)
	.cfi_restore 1
	ld	s0,16(sp)
	.cfi_restore 8
	.cfi_def_cfa 2, 32
	addi	sp,sp,32
	.cfi_def_cfa_offset 0
	jr	ra
	.cfi_endproc
.LFE9:
	.size	IsNull, .-IsNull
	.section	.text.IsNodeAtEnd,"ax",@progbits
	.align	1
	.globl	IsNodeAtEnd
	.type	IsNodeAtEnd, @function
IsNodeAtEnd:
.LFB10:
	.loc 1 485 1
	.cfi_startproc
	addi	sp,sp,-32
	.cfi_def_cfa_offset 32
	sd	ra,24(sp)
	sd	s0,16(sp)
	.cfi_offset 1, -8
	.cfi_offset 8, -16
	addi	s0,sp,32
	.cfi_def_cfa 8, 0
	sd	a0,-24(s0)
	sd	a1,-32(s0)
	.loc 1 489 12
	lla	a5,_gPcd_FixedAtBuild_PcdVerifyNodeInList
	lbu	a5,0(a5)
	.loc 1 489 11
	beq	a5,zero,.L46
	.loc 1 489 63 discriminator 1
	call	DebugAssertEnabled
	mv	a5,a0
	.loc 1 489 62 discriminator 1
	beq	a5,zero,.L47
	.loc 1 489 115 discriminator 3
	ld	a1,-32(s0)
	ld	a0,-24(s0)
	call	IsNodeInList
	mv	a5,a0
	.loc 1 489 91 discriminator 3
	mv	a4,a5
	li	a5,1
	beq	a4,a5,.L47
	.loc 1 489 149 discriminator 4
	lla	a2,.LC10
	li	a1,489
	lla	a0,.LC1
	call	UnitTestDebugAssert
	j	.L47
.L46:
	.loc 1 489 350 discriminator 2
	call	DebugAssertEnabled
	mv	a5,a0
	.loc 1 489 349 discriminator 2
	beq	a5,zero,.L47
	.loc 1 489 381 discriminator 5
	ld	a0,-24(s0)
	call	InternalBaseLibIsListValid
	mv	a5,a0
	.loc 1 489 378 discriminator 5
	bne	a5,zero,.L47
	.loc 1 489 419 discriminator 6
	lla	a2,.LC9
	li	a1,489
	lla	a0,.LC1
	call	UnitTestDebugAssert
.L47:
	.loc 1 491 21
	ld	a1,-32(s0)
	ld	a0,-24(s0)
	call	IsNull
	mv	a5,a0
	.loc 1 491 41
	bne	a5,zero,.L48
	.loc 1 491 48 discriminator 1
	ld	a5,-24(s0)
	ld	a5,8(a5)
	.loc 1 491 41 discriminator 1
	ld	a4,-32(s0)
	bne	a4,a5,.L48
	.loc 1 491 41 is_stmt 0 discriminator 3
	li	a5,1
	j	.L49
.L48:
	.loc 1 491 41 discriminator 4
	li	a5,0
.L49:
	.loc 1 491 10 is_stmt 1 discriminator 6
	andi	a5,a5,0xff
	.loc 1 492 1 discriminator 6
	mv	a0,a5
	ld	ra,24(sp)
	.cfi_restore 1
	ld	s0,16(sp)
	.cfi_restore 8
	.cfi_def_cfa 2, 32
	addi	sp,sp,32
	.cfi_def_cfa_offset 0
	jr	ra
	.cfi_endproc
.LFE10:
	.size	IsNodeAtEnd, .-IsNodeAtEnd
	.section	.rodata
	.align	3
.LC11:
	.string	"((BOOLEAN)(1==1)) == IsNodeInList ((FirstEntry), (SecondEntry))"
	.section	.text.SwapListEntries,"ax",@progbits
	.align	1
	.globl	SwapListEntries
	.type	SwapListEntries, @function
SwapListEntries:
.LFB11:
	.loc 1 526 1
	.cfi_startproc
	addi	sp,sp,-48
	.cfi_def_cfa_offset 48
	sd	ra,40(sp)
	sd	s0,32(sp)
	.cfi_offset 1, -8
	.cfi_offset 8, -16
	addi	s0,sp,48
	.cfi_def_cfa 8, 0
	sd	a0,-40(s0)
	sd	a1,-48(s0)
	.loc 1 529 6
	ld	a4,-40(s0)
	ld	a5,-48(s0)
	bne	a4,a5,.L52
	.loc 1 530 12
	ld	a5,-48(s0)
	j	.L53
.L52:
	.loc 1 536 12
	lla	a5,_gPcd_FixedAtBuild_PcdVerifyNodeInList
	lbu	a5,0(a5)
	.loc 1 536 11
	beq	a5,zero,.L54
	.loc 1 536 63 discriminator 1
	call	DebugAssertEnabled
	mv	a5,a0
	.loc 1 536 62 discriminator 1
	beq	a5,zero,.L55
	.loc 1 536 115 discriminator 3
	ld	a1,-48(s0)
	ld	a0,-40(s0)
	call	IsNodeInList
	mv	a5,a0
	.loc 1 536 91 discriminator 3
	mv	a4,a5
	li	a5,1
	beq	a4,a5,.L55
	.loc 1 536 162 discriminator 4
	lla	a2,.LC11
	li	a1,536
	lla	a0,.LC1
	call	UnitTestDebugAssert
	j	.L55
.L54:
	.loc 1 536 376 discriminator 2
	call	DebugAssertEnabled
	mv	a5,a0
	.loc 1 536 375 discriminator 2
	beq	a5,zero,.L55
	.loc 1 536 407 discriminator 5
	ld	a0,-40(s0)
	call	InternalBaseLibIsListValid
	mv	a5,a0
	.loc 1 536 404 discriminator 5
	bne	a5,zero,.L55
	.loc 1 536 451 discriminator 6
	lla	a2,.LC4
	li	a1,536
	lla	a0,.LC1
	call	UnitTestDebugAssert
.L55:
	.loc 1 541 9
	ld	a0,-40(s0)
	call	RemoveEntryList
	sd	a0,-24(s0)
	.loc 1 547 10
	ld	a5,-24(s0)
	ld	a5,8(a5)
	.loc 1 547 6
	ld	a4,-48(s0)
	bne	a4,a5,.L56
	.loc 1 548 12
	ld	a1,-40(s0)
	ld	a0,-48(s0)
	call	InsertTailList
	mv	a5,a0
	j	.L53
.L56:
	.loc 1 555 14
	ld	a1,-40(s0)
	ld	a0,-48(s0)
	call	InsertHeadList
	mv	a4,a0
	.loc 1 555 6
	ld	a5,-24(s0)
	bne	a5,a4,.L57
	.loc 1 556 12
	ld	a5,-24(s0)
	j	.L53
.L57:
	.loc 1 562 3
	ld	a0,-48(s0)
	call	RemoveEntryList
	.loc 1 563 3
	ld	a1,-48(s0)
	ld	a0,-24(s0)
	call	InsertTailList
	.loc 1 564 10
	ld	a5,-48(s0)
.L53:
	.loc 1 565 1
	mv	a0,a5
	ld	ra,40(sp)
	.cfi_restore 1
	ld	s0,32(sp)
	.cfi_restore 8
	.cfi_def_cfa 2, 48
	addi	sp,sp,48
	.cfi_def_cfa_offset 0
	jr	ra
	.cfi_endproc
.LFE11:
	.size	SwapListEntries, .-SwapListEntries
	.section	.rodata
	.align	3
.LC12:
	.string	"!IsListEmpty (Entry)"
	.section	.text.RemoveEntryList,"ax",@progbits
	.align	1
	.globl	RemoveEntryList
	.type	RemoveEntryList, @function
RemoveEntryList:
.LFB12:
	.loc 1 593 1
	.cfi_startproc
	addi	sp,sp,-32
	.cfi_def_cfa_offset 32
	sd	ra,24(sp)
	sd	s0,16(sp)
	.cfi_offset 1, -8
	.cfi_offset 8, -16
	addi	s0,sp,32
	.cfi_def_cfa 8, 0
	sd	a0,-24(s0)
	.loc 1 594 12
	call	DebugAssertEnabled
	mv	a5,a0
	.loc 1 594 11
	beq	a5,zero,.L59
	.loc 1 594 44 discriminator 1
	ld	a0,-24(s0)
	call	IsListEmpty
	mv	a5,a0
	.loc 1 594 40 discriminator 1
	beq	a5,zero,.L59
	.loc 1 594 68 discriminator 2
	lla	a2,.LC12
	li	a1,594
	lla	a0,.LC1
	call	UnitTestDebugAssert
.L59:
	.loc 1 596 8
	ld	a5,-24(s0)
	ld	a5,0(a5)
	.loc 1 596 39
	ld	a4,-24(s0)
	ld	a4,8(a4)
	.loc 1 596 32
	sd	a4,8(a5)
	.loc 1 597 8
	ld	a5,-24(s0)
	ld	a5,8(a5)
	.loc 1 597 39
	ld	a4,-24(s0)
	ld	a4,0(a4)
	.loc 1 597 32
	sd	a4,0(a5)
	.loc 1 598 15
	ld	a5,-24(s0)
	ld	a5,0(a5)
	.loc 1 599 1
	mv	a0,a5
	ld	ra,24(sp)
	.cfi_restore 1
	ld	s0,16(sp)
	.cfi_restore 8
	.cfi_def_cfa 2, 32
	addi	sp,sp,32
	.cfi_def_cfa_offset 0
	jr	ra
	.cfi_endproc
.LFE12:
	.size	RemoveEntryList, .-RemoveEntryList
	.text
.Letext0:
	.file 2 "/home/xephyr/Documents/edk2/MdePkg/Include/RiscV64/ProcessorBind.h"
	.file 3 "/home/xephyr/Documents/edk2/MdePkg/Include/Base.h"
	.file 4 "/home/xephyr/Documents/edk2/Build/Mde/DEBUG_GCC5/RISCV64/MdePkg/Library/BaseLib/BaseLib/DEBUG/AutoGen.h"