	.file	"SwitchStack.c"
	.option nopic
	.option norelax
	.attribute arch, "rv64i2p0_m2p0_a2p0_f2p0_d2p0_c2p0"
	.attribute unaligned_access, 0
	.attribute stack_align, 16
	.text
.Ltext0:
	.cfi_sections	.debug_frame
	.section	.rodata
	.align	3
.LC0:
	.string	"EntryPoint != ((void *) 0)"
	.align	3
.LC1:
	.string	"/home/xephyr/Documents/edk2/MdePkg/Library/BaseLib/SwitchStack.c"
	.align	3
.LC2:
	.string	"NewStack != ((void *) 0)"
	.align	3
.LC3:
	.string	"((UINTN)NewStack & (16 - 1)) == 0"
	.align	3
.LC4:
	.string	"((BOOLEAN)(0==1))"
	.section	.text.SwitchStack,"ax",@progbits
	.align	1
	.globl	SwitchStack
	.type	SwitchStack, @function
SwitchStack:
.LFB0:
	.file 1 "/home/xephyr/Documents/edk2/MdePkg/Library/BaseLib/SwitchStack.c"
	.loc 1 49 1
	.cfi_startproc
	addi	sp,sp,-112
	.cfi_def_cfa_offset 112
	sd	ra,72(sp)
	sd	s0,64(sp)
	.cfi_offset 1, -40
	.cfi_offset 8, -48
	addi	s0,sp,80
	.cfi_def_cfa 8, 32
	sd	a0,-40(s0)
	sd	a1,-48(s0)
	sd	a2,-56(s0)
	sd	a3,-64(s0)
	sd	a4,0(s0)
	sd	a5,8(s0)
	sd	a6,16(s0)
	sd	a7,24(s0)
	.loc 1 52 12
	call	DebugAssertEnabled
	mv	a5,a0
	.loc 1 52 11
	beq	a5,zero,.L2
	.loc 1 52 40 discriminator 1
	ld	a5,-40(s0)
	bne	a5,zero,.L2
	.loc 1 52 74 discriminator 2
	lla	a2,.LC0
	li	a1,52
	lla	a0,.LC1
	call	UnitTestDebugAssert
.L2:
	.loc 1 53 12
	call	DebugAssertEnabled
	mv	a5,a0
	.loc 1 53 11
	beq	a5,zero,.L3
	.loc 1 53 40 discriminator 1
	ld	a5,-64(s0)
	bne	a5,zero,.L3
	.loc 1 53 72 discriminator 2
	lla	a2,.LC2
	li	a1,53
	lla	a0,.LC1
	call	UnitTestDebugAssert
.L3:
	.loc 1 58 12
	call	DebugAssertEnabled
	mv	a5,a0
	.loc 1 58 11
	beq	a5,zero,.L4
	.loc 1 58 44 discriminator 1
	ld	a5,-64(s0)
	.loc 1 58 60 discriminator 1
	andi	a5,a5,15
	.loc 1 58 40 discriminator 1
	beq	a5,zero,.L4
	.loc 1 58 81 discriminator 2
	lla	a2,.LC3
	li	a1,58
	lla	a0,.LC1
	call	UnitTestDebugAssert
.L4:
	.loc 1 60 3
	addi	a5,s0,32
	sd	a5,-72(s0)
	ld	a5,-72(s0)
	addi	a5,a5,-32
	sd	a5,-24(s0)
	.loc 1 62 3
	ld	a5,-24(s0)
	mv	a4,a5
	ld	a3,-64(s0)
	ld	a2,-56(s0)
	ld	a1,-48(s0)
	ld	a0,-40(s0)
	call	InternalSwitchStack
	.loc 1 69 12
	call	DebugAssertEnabled
	mv	a5,a0
	.loc 1 69 11
	beq	a5,zero,.L6
	.loc 1 69 65 discriminator 2
	lla	a2,.LC4
	li	a1,69
	lla	a0,.LC1
	call	UnitTestDebugAssert
.L6:
	.loc 1 70 1
	nop
	ld	ra,72(sp)
	.cfi_restore 1
	ld	s0,64(sp)
	.cfi_restore 8
	.cfi_def_cfa 2, 112
	addi	sp,sp,112
	.cfi_def_cfa_offset 0
	jr	ra
	.cfi_endproc
.LFE0:
	.size	SwitchStack, .-SwitchStack
	.text
.Letext0:
	.file 2 "/home/xephyr/Documents/edk2/MdePkg/Include/RiscV64/ProcessorBind.h"
	.file 3 "/home/xephyr/Documents/edk2/MdePkg/Include/Base.h"
	.file 4 "/home/xephyr/Documents/edk2/Build/Mde/DEBUG_GCC5/RISCV64/MdePkg/Library/BaseLib/BaseLib/DEBUG/AutoGen.h"
	.file 5 "/home/xephyr/Documents/edk2/MdePkg/Include/Library/BaseLib.h"