	.file	"DxePcdLib.c"
	.option nopic
	.option norelax
	.attribute arch, "rv64i2p0_m2p0_a2p0_f2p0_d2p0_c2p0"
	.attribute unaligned_access, 0
	.attribute stack_align, 16
	.text
.Ltext0:
	.cfi_sections	.debug_frame
	.globl	mPcd
	.section	.bss.mPcd,"aw",@nobits
	.align	3
	.type	mPcd, @object
	.size	mPcd, 8
mPcd:
	.zero	8
	.globl	mPiPcd
	.section	.bss.mPiPcd,"aw",@nobits
	.align	3
	.type	mPiPcd, @object
	.size	mPiPcd, 8
mPiPcd:
	.zero	8
	.globl	mPcdInfo
	.section	.bss.mPcdInfo,"aw",@nobits
	.align	3
	.type	mPcdInfo, @object
	.size	mPcdInfo, 8
mPcdInfo:
	.zero	8
	.globl	mPiPcdInfo
	.section	.bss.mPiPcdInfo,"aw",@nobits
	.align	3
	.type	mPiPcdInfo, @object
	.size	mPiPcdInfo, 8
mPiPcdInfo:
	.zero	8
	.section	.rodata
	.align	3
.LC0:
	.string	"\nASSERT_EFI_ERROR (Status = %r)\n"
	.align	3
.LC1:
	.string	"!EFI_ERROR (Status)"
	.align	3
.LC2:
	.string	"/home/xephyr/Documents/edk2/MdePkg/Library/DxePcdLib/DxePcdLib.c"
	.align	3
.LC3:
	.string	"mPiPcd != ((void *) 0)"
	.section	.text.GetPiPcdProtocol,"ax",@progbits
	.align	1
	.globl	GetPiPcdProtocol
	.type	GetPiPcdProtocol, @function
GetPiPcdProtocol:
.LFB0:
	.file 1 "/home/xephyr/Documents/edk2/MdePkg/Library/DxePcdLib/DxePcdLib.c"
	.loc 1 38 1
	.cfi_startproc
	addi	sp,sp,-32
	.cfi_def_cfa_offset 32
	sd	ra,24(sp)
	sd	s0,16(sp)
	.cfi_offset 1, -8
	.cfi_offset 8, -16
	addi	s0,sp,32
	.cfi_def_cfa 8, 0
	.loc 1 41 14
	lla	a5,mPiPcd
	ld	a5,0(a5)
	.loc 1 41 6
	bne	a5,zero,.L2
	.loc 1 46 17
	lla	a5,gBS
	ld	a5,0(a5)
	ld	a5,320(a5)
	.loc 1 46 14
	lla	a2,mPiPcd
	li	a1,0
	lla	a0,gEfiPcdProtocolGuid
	jalr	a5
.LVL0:
	sd	a0,-24(s0)
	.loc 1 47 14
	call	DebugAssertEnabled
	mv	a5,a0
	.loc 1 47 13
	beq	a5,zero,.L3
	.loc 1 47 45 discriminator 1
	ld	a5,-24(s0)
	.loc 1 47 42 discriminator 1
	bge	a5,zero,.L3
	.loc 1 47 93 discriminator 2
	call	DebugPrintEnabled
	mv	a5,a0
	.loc 1 47 92 discriminator 2
	beq	a5,zero,.L4
	.loc 1 47 126 discriminator 3
	li	a5,1
	slli	a0,a5,31
	call	DebugPrintLevelEnabled
	mv	a5,a0
	.loc 1 47 125 discriminator 3
	beq	a5,zero,.L4
	.loc 1 47 165 discriminator 5
	ld	a2,-24(s0)
	lla	a1,.LC0
	li	a5,1
	slli	a0,a5,31
	call	DebugPrint
.L4:
	.loc 1 47 298 discriminator 7
	lla	a2,.LC1
	li	a1,47
	lla	a0,.LC2
	call	UnitTestDebugAssert
.L3:
	.loc 1 48 14
	call	DebugAssertEnabled
	mv	a5,a0
	.loc 1 48 13
	beq	a5,zero,.L2
	.loc 1 48 43 discriminator 1
	lla	a5,mPiPcd
	ld	a5,0(a5)
	.loc 1 48 42 discriminator 1
	bne	a5,zero,.L2
	.loc 1 48 72 discriminator 2
	lla	a2,.LC3
	li	a1,48
	lla	a0,.LC2
	call	UnitTestDebugAssert
.L2:
	.loc 1 50 10
	lla	a5,mPiPcd
	ld	a5,0(a5)
	.loc 1 51 1
	mv	a0,a5
	ld	ra,24(sp)
	.cfi_restore 1
	ld	s0,16(sp)
	.cfi_restore 8
	.cfi_def_cfa 2, 32
	addi	sp,sp,32
	.cfi_def_cfa_offset 0
	jr	ra
	.cfi_endproc
.LFE0:
	.size	GetPiPcdProtocol, .-GetPiPcdProtocol
	.section	.rodata
	.align	3
.LC4:
	.string	"mPcd != ((void *) 0)"
	.section	.text.GetPcdProtocol,"ax",@progbits
	.align	1
	.globl	GetPcdProtocol
	.type	GetPcdProtocol, @function
GetPcdProtocol:
.LFB1:
	.loc 1 63 1
	.cfi_startproc
	addi	sp,sp,-32
	.cfi_def_cfa_offset 32
	sd	ra,24(sp)
	sd	s0,16(sp)
	.cfi_offset 1, -8
	.cfi_offset 8, -16
	addi	s0,sp,32
	.cfi_def_cfa 8, 0
	.loc 1 66 12
	lla	a5,mPcd
	ld	a5,0(a5)
	.loc 1 66 6
	bne	a5,zero,.L7
	.loc 1 71 17
	lla	a5,gBS
	ld	a5,0(a5)
	ld	a5,320(a5)
	.loc 1 71 14
	lla	a2,mPcd
	li	a1,0
	lla	a0,gPcdProtocolGuid
	jalr	a5
.LVL1:
	sd	a0,-24(s0)
	.loc 1 72 14
	call	DebugAssertEnabled
	mv	a5,a0
	.loc 1 72 13
	beq	a5,zero,.L8
	.loc 1 72 45 discriminator 1
	ld	a5,-24(s0)
	.loc 1 72 42 discriminator 1
	bge	a5,zero,.L8
	.loc 1 72 93 discriminator 2
	call	DebugPrintEnabled
	mv	a5,a0
	.loc 1 72 92 discriminator 2
	beq	a5,zero,.L9
	.loc 1 72 126 discriminator 3
	li	a5,1
	slli	a0,a5,31
	call	DebugPrintLevelEnabled
	mv	a5,a0
	.loc 1 72 125 discriminator 3
	beq	a5,zero,.L9
	.loc 1 72 165 discriminator 5
	ld	a2,-24(s0)
	lla	a1,.LC0
	li	a5,1
	slli	a0,a5,31
	call	DebugPrint
.L9:
	.loc 1 72 298 discriminator 7
	lla	a2,.LC1
	li	a1,72
	lla	a0,.LC2
	call	UnitTestDebugAssert
.L8:
	.loc 1 73 14
	call	DebugAssertEnabled
	mv	a5,a0
	.loc 1 73 13
	beq	a5,zero,.L7
	.loc 1 73 43 discriminator 1
	lla	a5,mPcd
	ld	a5,0(a5)
	.loc 1 73 42 discriminator 1
	bne	a5,zero,.L7
	.loc 1 73 70 discriminator 2
	lla	a2,.LC4
	li	a1,73
	lla	a0,.LC2
	call	UnitTestDebugAssert
.L7:
	.loc 1 75 10
	lla	a5,mPcd
	ld	a5,0(a5)
	.loc 1 76 1
	mv	a0,a5
	ld	ra,24(sp)
	.cfi_restore 1
	ld	s0,16(sp)
	.cfi_restore 8
	.cfi_def_cfa 2, 32
	addi	sp,sp,32
	.cfi_def_cfa_offset 0
	jr	ra
	.cfi_endproc
.LFE1:
	.size	GetPcdProtocol, .-GetPcdProtocol
	.section	.rodata
	.align	3
.LC5:
	.string	"mPiPcdInfo != ((void *) 0)"
	.section	.text.GetPiPcdInfoProtocolPointer,"ax",@progbits
	.align	1
	.globl	GetPiPcdInfoProtocolPointer
	.type	GetPiPcdInfoProtocolPointer, @function
GetPiPcdInfoProtocolPointer:
.LFB2:
	.loc 1 87 1
	.cfi_startproc
	addi	sp,sp,-32
	.cfi_def_cfa_offset 32
	sd	ra,24(sp)
	sd	s0,16(sp)
	.cfi_offset 1, -8
	.cfi_offset 8, -16
	addi	s0,sp,32
	.cfi_def_cfa 8, 0
	.loc 1 90 18
	lla	a5,mPiPcdInfo
	ld	a5,0(a5)
	.loc 1 90 6
	bne	a5,zero,.L12
	.loc 1 91 17
	lla	a5,gBS
	ld	a5,0(a5)
	ld	a5,320(a5)
	.loc 1 91 14
	lla	a2,mPiPcdInfo
	li	a1,0
	lla	a0,gEfiGetPcdInfoProtocolGuid
	jalr	a5
.LVL2:
	sd	a0,-24(s0)
	.loc 1 92 14
	call	DebugAssertEnabled
	mv	a5,a0
	.loc 1 92 13
	beq	a5,zero,.L13
	.loc 1 92 45 discriminator 1
	ld	a5,-24(s0)
	.loc 1 92 42 discriminator 1
	bge	a5,zero,.L13
	.loc 1 92 93 discriminator 2
	call	DebugPrintEnabled
	mv	a5,a0
	.loc 1 92 92 discriminator 2
	beq	a5,zero,.L14
	.loc 1 92 126 discriminator 3
	li	a5,1
	slli	a0,a5,31
	call	DebugPrintLevelEnabled
	mv	a5,a0
	.loc 1 92 125 discriminator 3
	beq	a5,zero,.L14
	.loc 1 92 165 discriminator 5
	ld	a2,-24(s0)
	lla	a1,.LC0
	li	a5,1
	slli	a0,a5,31
	call	DebugPrint
.L14:
	.loc 1 92 298 discriminator 7
	lla	a2,.LC1
	li	a1,92
	lla	a0,.LC2
	call	UnitTestDebugAssert
.L13:
	.loc 1 93 14
	call	DebugAssertEnabled
	mv	a5,a0
	.loc 1 93 13
	beq	a5,zero,.L12
	.loc 1 93 43 discriminator 1
	lla	a5,mPiPcdInfo
	ld	a5,0(a5)
	.loc 1 93 42 discriminator 1
	bne	a5,zero,.L12
	.loc 1 93 76 discriminator 2
	lla	a2,.LC5
	li	a1,93
	lla	a0,.LC2
	call	UnitTestDebugAssert
.L12:
	.loc 1 95 10
	lla	a5,mPiPcdInfo
	ld	a5,0(a5)
	.loc 1 96 1
	mv	a0,a5
	ld	ra,24(sp)
	.cfi_restore 1
	ld	s0,16(sp)
	.cfi_restore 8
	.cfi_def_cfa 2, 32
	addi	sp,sp,32
	.cfi_def_cfa_offset 0
	jr	ra
	.cfi_endproc
.LFE2:
	.size	GetPiPcdInfoProtocolPointer, .-GetPiPcdInfoProtocolPointer
	.section	.rodata
	.align	3
.LC6:
	.string	"mPcdInfo != ((void *) 0)"
	.section	.text.GetPcdInfoProtocolPointer,"ax",@progbits
	.align	1
	.globl	GetPcdInfoProtocolPointer
	.type	GetPcdInfoProtocolPointer, @function
GetPcdInfoProtocolPointer:
.LFB3:
	.loc 1 107 1
	.cfi_startproc
	addi	sp,sp,-32
	.cfi_def_cfa_offset 32
	sd	ra,24(sp)
	sd	s0,16(sp)
	.cfi_offset 1, -8
	.cfi_offset 8, -16
	addi	s0,sp,32
	.cfi_def_cfa 8, 0
	.loc 1 110 16
	lla	a5,mPcdInfo
	ld	a5,0(a5)
	.loc 1 110 6
	bne	a5,zero,.L17
	.loc 1 111 17
	lla	a5,gBS
	ld	a5,0(a5)
	ld	a5,320(a5)
	.loc 1 111 14
	lla	a2,mPcdInfo
	li	a1,0
	lla	a0,gGetPcdInfoProtocolGuid
	jalr	a5
.LVL3:
	sd	a0,-24(s0)
	.loc 1 112 14
	call	DebugAssertEnabled
	mv	a5,a0
	.loc 1 112 13
	beq	a5,zero,.L18
	.loc 1 112 45 discriminator 1
	ld	a5,-24(s0)
	.loc 1 112 42 discriminator 1
	bge	a5,zero,.L18
	.loc 1 112 93 discriminator 2
	call	DebugPrintEnabled
	mv	a5,a0
	.loc 1 112 92 discriminator 2
	beq	a5,zero,.L19
	.loc 1 112 126 discriminator 3
	li	a5,1
	slli	a0,a5,31
	call	DebugPrintLevelEnabled
	mv	a5,a0
	.loc 1 112 125 discriminator 3
	beq	a5,zero,.L19
	.loc 1 112 165 discriminator 5
	ld	a2,-24(s0)
	lla	a1,.LC0
	li	a5,1
	slli	a0,a5,31
	call	DebugPrint
.L19:
	.loc 1 112 298 discriminator 7
	lla	a2,.LC1
	li	a1,112
	lla	a0,.LC2
	call	UnitTestDebugAssert
.L18:
	.loc 1 113 14
	call	DebugAssertEnabled
	mv	a5,a0
	.loc 1 113 13
	beq	a5,zero,.L17
	.loc 1 113 43 discriminator 1
	lla	a5,mPcdInfo
	ld	a5,0(a5)
	.loc 1 113 42 discriminator 1
	bne	a5,zero,.L17
	.loc 1 113 74 discriminator 2
	lla	a2,.LC6
	li	a1,113
	lla	a0,.LC2
	call	UnitTestDebugAssert
.L17:
	.loc 1 115 10
	lla	a5,mPcdInfo
	ld	a5,0(a5)
	.loc 1 116 1
	mv	a0,a5
	ld	ra,24(sp)
	.cfi_restore 1
	ld	s0,16(sp)
	.cfi_restore 8
	.cfi_def_cfa 2, 32
	addi	sp,sp,32
	.cfi_def_cfa_offset 0
	jr	ra
	.cfi_endproc
.LFE3:
	.size	GetPcdInfoProtocolPointer, .-GetPcdInfoProtocolPointer
	.section	.text.LibPcdSetSku,"ax",@progbits
	.align	1
	.globl	LibPcdSetSku
	.type	LibPcdSetSku, @function
LibPcdSetSku:
.LFB4:
	.loc 1 134 1
	.cfi_startproc
	addi	sp,sp,-32
	.cfi_def_cfa_offset 32
	sd	ra,24(sp)
	sd	s0,16(sp)
	.cfi_offset 1, -8
	.cfi_offset 8, -16
	addi	s0,sp,32
	.cfi_def_cfa 8, 0
	sd	a0,-24(s0)
	.loc 1 135 3
	call	GetPcdProtocol
	mv	a5,a0
	.loc 1 135 19
	ld	a5,0(a5)
	.loc 1 135 3
	ld	a0,-24(s0)
	jalr	a5
.LVL4:
	.loc 1 137 10
	ld	a5,-24(s0)
	.loc 1 138 1
	mv	a0,a5
	ld	ra,24(sp)
	.cfi_restore 1
	ld	s0,16(sp)
	.cfi_restore 8
	.cfi_def_cfa 2, 32
	addi	sp,sp,32
	.cfi_def_cfa_offset 0
	jr	ra
	.cfi_endproc
.LFE4:
	.size	LibPcdSetSku, .-LibPcdSetSku
	.section	.text.LibPcdGet8,"ax",@progbits
	.align	1
	.globl	LibPcdGet8
	.type	LibPcdGet8, @function
LibPcdGet8:
.LFB5:
	.loc 1 157 1
	.cfi_startproc
	addi	sp,sp,-32
	.cfi_def_cfa_offset 32
	sd	ra,24(sp)
	sd	s0,16(sp)
	.cfi_offset 1, -8
	.cfi_offset 8, -16
	addi	s0,sp,32
	.cfi_def_cfa 8, 0
	sd	a0,-24(s0)
	.loc 1 158 10
	call	GetPcdProtocol
	mv	a5,a0
	.loc 1 158 26
	ld	a5,8(a5)
	.loc 1 158 10
	ld	a0,-24(s0)
	jalr	a5
.LVL5:
	mv	a5,a0
	.loc 1 159 1
	mv	a0,a5
	ld	ra,24(sp)
	.cfi_restore 1
	ld	s0,16(sp)
	.cfi_restore 8
	.cfi_def_cfa 2, 32
	addi	sp,sp,32
	.cfi_def_cfa_offset 0
	jr	ra
	.cfi_endproc
.LFE5:
	.size	LibPcdGet8, .-LibPcdGet8
	.section	.text.LibPcdGet16,"ax",@progbits
	.align	1
	.globl	LibPcdGet16
	.type	LibPcdGet16, @function
LibPcdGet16:
.LFB6:
	.loc 1 178 1
	.cfi_startproc
	addi	sp,sp,-32
	.cfi_def_cfa_offset 32
	sd	ra,24(sp)
	sd	s0,16(sp)
	.cfi_offset 1, -8
	.cfi_offset 8, -16
	addi	s0,sp,32
	.cfi_def_cfa 8, 0
	sd	a0,-24(s0)
	.loc 1 179 10
	call	GetPcdProtocol
	mv	a5,a0
	.loc 1 179 26
	ld	a5,16(a5)
	.loc 1 179 10
	ld	a0,-24(s0)
	jalr	a5
.LVL6:
	mv	a5,a0
	.loc 1 180 1
	mv	a0,a5
	ld	ra,24(sp)
	.cfi_restore 1
	ld	s0,16(sp)
	.cfi_restore 8
	.cfi_def_cfa 2, 32
	addi	sp,sp,32
	.cfi_def_cfa_offset 0
	jr	ra
	.cfi_endproc
.LFE6:
	.size	LibPcdGet16, .-LibPcdGet16
	.section	.text.LibPcdGet32,"ax",@progbits
	.align	1
	.globl	LibPcdGet32
	.type	LibPcdGet32, @function
LibPcdGet32:
.LFB7:
	.loc 1 199 1
	.cfi_startproc
	addi	sp,sp,-32
	.cfi_def_cfa_offset 32
	sd	ra,24(sp)
	sd	s0,16(sp)
	.cfi_offset 1, -8
	.cfi_offset 8, -16
	addi	s0,sp,32
	.cfi_def_cfa 8, 0
	sd	a0,-24(s0)
	.loc 1 200 10
	call	GetPcdProtocol
	mv	a5,a0
	.loc 1 200 26
	ld	a5,24(a5)
	.loc 1 200 10
	ld	a0,-24(s0)
	jalr	a5
.LVL7:
	mv	a5,a0
	sext.w	a5,a5
	.loc 1 201 1
	mv	a0,a5
	ld	ra,24(sp)
	.cfi_restore 1
	ld	s0,16(sp)
	.cfi_restore 8
	.cfi_def_cfa 2, 32
	addi	sp,sp,32
	.cfi_def_cfa_offset 0
	jr	ra
	.cfi_endproc
.LFE7:
	.size	LibPcdGet32, .-LibPcdGet32
	.section	.text.LibPcdGet64,"ax",@progbits
	.align	1
	.globl	LibPcdGet64
	.type	LibPcdGet64, @function
LibPcdGet64:
.LFB8:
	.loc 1 220 1
	.cfi_startproc
	addi	sp,sp,-32
	.cfi_def_cfa_offset 32
	sd	ra,24(sp)
	sd	s0,16(sp)
	.cfi_offset 1, -8
	.cfi_offset 8, -16
	addi	s0,sp,32
	.cfi_def_cfa 8, 0
	sd	a0,-24(s0)
	.loc 1 221 10
	call	GetPcdProtocol
	mv	a5,a0
	.loc 1 221 26
	ld	a5,32(a5)
	.loc 1 221 10
	ld	a0,-24(s0)
	jalr	a5
.LVL8:
	mv	a5,a0
	.loc 1 222 1
	mv	a0,a5
	ld	ra,24(sp)
	.cfi_restore 1
	ld	s0,16(sp)
	.cfi_restore 8
	.cfi_def_cfa 2, 32
	addi	sp,sp,32
	.cfi_def_cfa_offset 0
	jr	ra
	.cfi_endproc
.LFE8:
	.size	LibPcdGet64, .-LibPcdGet64
	.section	.text.LibPcdGetPtr,"ax",@progbits
	.align	1
	.globl	LibPcdGetPtr
	.type	LibPcdGetPtr, @function
LibPcdGetPtr:
.LFB9:
	.loc 1 241 1
	.cfi_startproc
	addi	sp,sp,-32
	.cfi_def_cfa_offset 32
	sd	ra,24(sp)
	sd	s0,16(sp)
	.cfi_offset 1, -8
	.cfi_offset 8, -16
	addi	s0,sp,32
	.cfi_def_cfa 8, 0
	sd	a0,-24(s0)
	.loc 1 242 10
	call	GetPcdProtocol
	mv	a5,a0
	.loc 1 242 26
	ld	a5,40(a5)
	.loc 1 242 10
	ld	a0,-24(s0)
	jalr	a5
.LVL9:
	mv	a5,a0
	.loc 1 243 1
	mv	a0,a5
	ld	ra,24(sp)
	.cfi_restore 1
	ld	s0,16(sp)
	.cfi_restore 8
	.cfi_def_cfa 2, 32
	addi	sp,sp,32
	.cfi_def_cfa_offset 0
	jr	ra
	.cfi_endproc
.LFE9:
	.size	LibPcdGetPtr, .-LibPcdGetPtr
	.section	.text.LibPcdGetBool,"ax",@progbits
	.align	1
	.globl	LibPcdGetBool
	.type	LibPcdGetBool, @function
LibPcdGetBool:
.LFB10:
	.loc 1 262 1
	.cfi_startproc
	addi	sp,sp,-32
	.cfi_def_cfa_offset 32
	sd	ra,24(sp)
	sd	s0,16(sp)
	.cfi_offset 1, -8
	.cfi_offset 8, -16
	addi	s0,sp,32
	.cfi_def_cfa 8, 0
	sd	a0,-24(s0)
	.loc 1 263 10
	call	GetPcdProtocol
	mv	a5,a0
	.loc 1 263 26
	ld	a5,48(a5)
	.loc 1 263 10
	ld	a0,-24(s0)
	jalr	a5
.LVL10:
	mv	a5,a0
	.loc 1 264 1
	mv	a0,a5
	ld	ra,24(sp)
	.cfi_restore 1
	ld	s0,16(sp)
	.cfi_restore 8
	.cfi_def_cfa 2, 32
	addi	sp,sp,32
	.cfi_def_cfa_offset 0
	jr	ra
	.cfi_endproc
.LFE10:
	.size	LibPcdGetBool, .-LibPcdGetBool
	.section	.text.LibPcdGetSize,"ax",@progbits
	.align	1
	.globl	LibPcdGetSize
	.type	LibPcdGetSize, @function
LibPcdGetSize:
.LFB11:
	.loc 1 281 1
	.cfi_startproc
	addi	sp,sp,-32
	.cfi_def_cfa_offset 32
	sd	ra,24(sp)
	sd	s0,16(sp)
	.cfi_offset 1, -8
	.cfi_offset 8, -16
	addi	s0,sp,32
	.cfi_def_cfa 8, 0
	sd	a0,-24(s0)
	.loc 1 282 10
	call	GetPcdProtocol
	mv	a5,a0
	.loc 1 282 26
	ld	a5,56(a5)
	.loc 1 282 10
	ld	a0,-24(s0)
	jalr	a5
.LVL11:
	mv	a5,a0
	.loc 1 283 1
	mv	a0,a5
	ld	ra,24(sp)
	.cfi_restore 1
	ld	s0,16(sp)
	.cfi_restore 8
	.cfi_def_cfa 2, 32
	addi	sp,sp,32
	.cfi_def_cfa_offset 0
	jr	ra
	.cfi_endproc
.LFE11:
	.size	LibPcdGetSize, .-LibPcdGetSize
	.section	.rodata
	.align	3
.LC7:
	.string	"Guid != ((void *) 0)"
	.section	.text.LibPcdGetEx8,"ax",@progbits
	.align	1
	.globl	LibPcdGetEx8
	.type	LibPcdGetEx8, @function
LibPcdGetEx8:
.LFB12:
	.loc 1 307 1
	.cfi_startproc
	addi	sp,sp,-32
	.cfi_def_cfa_offset 32
	sd	ra,24(sp)
	sd	s0,16(sp)
	.cfi_offset 1, -8
	.cfi_offset 8, -16
	addi	s0,sp,32
	.cfi_def_cfa 8, 0
	sd	a0,-24(s0)
	sd	a1,-32(s0)
	.loc 1 308 12
	call	DebugAssertEnabled
	mv	a5,a0
	.loc 1 308 11
	beq	a5,zero,.L38
	.loc 1 308 40 discriminator 1
	ld	a5,-24(s0)
	bne	a5,zero,.L38
	.loc 1 308 68 discriminator 2
	lla	a2,.LC7
	li	a1,308
	lla	a0,.LC2
	call	UnitTestDebugAssert
.L38:
	.loc 1 310 10
	call	GetPiPcdProtocol
	mv	a5,a0
	.loc 1 310 28
	ld	a5,8(a5)
	.loc 1 310 10
	ld	a1,-32(s0)
	ld	a0,-24(s0)
	jalr	a5
.LVL12:
	mv	a5,a0
	.loc 1 311 1
	mv	a0,a5
	ld	ra,24(sp)
	.cfi_restore 1
	ld	s0,16(sp)
	.cfi_restore 8
	.cfi_def_cfa 2, 32
	addi	sp,sp,32
	.cfi_def_cfa_offset 0
	jr	ra
	.cfi_endproc
.LFE12:
	.size	LibPcdGetEx8, .-LibPcdGetEx8
	.section	.text.LibPcdGetEx16,"ax",@progbits
	.align	1
	.globl	LibPcdGetEx16
	.type	LibPcdGetEx16, @function
LibPcdGetEx16:
.LFB13:
	.loc 1 334 1
	.cfi_startproc
	addi	sp,sp,-32
	.cfi_def_cfa_offset 32
	sd	ra,24(sp)
	sd	s0,16(sp)
	.cfi_offset 1, -8
	.cfi_offset 8, -16
	addi	s0,sp,32
	.cfi_def_cfa 8, 0
	sd	a0,-24(s0)
	sd	a1,-32(s0)
	.loc 1 335 12
	call	DebugAssertEnabled
	mv	a5,a0
	.loc 1 335 11
	beq	a5,zero,.L41
	.loc 1 335 40 discriminator 1
	ld	a5,-24(s0)
	bne	a5,zero,.L41
	.loc 1 335 68 discriminator 2
	lla	a2,.LC7
	li	a1,335
	lla	a0,.LC2
	call	UnitTestDebugAssert
.L41:
	.loc 1 337 10
	call	GetPiPcdProtocol
	mv	a5,a0
	.loc 1 337 28
	ld	a5,16(a5)
	.loc 1 337 10
	ld	a1,-32(s0)
	ld	a0,-24(s0)
	jalr	a5
.LVL13:
	mv	a5,a0
	.loc 1 338 1
	mv	a0,a5
	ld	ra,24(sp)
	.cfi_restore 1
	ld	s0,16(sp)
	.cfi_restore 8
	.cfi_def_cfa 2, 32
	addi	sp,sp,32
	.cfi_def_cfa_offset 0
	jr	ra
	.cfi_endproc
.LFE13:
	.size	LibPcdGetEx16, .-LibPcdGetEx16
	.section	.text.LibPcdGetEx32,"ax",@progbits
	.align	1
	.globl	LibPcdGetEx32
	.type	LibPcdGetEx32, @function
LibPcdGetEx32:
.LFB14:
	.loc 1 358 1
	.cfi_startproc
	addi	sp,sp,-32
	.cfi_def_cfa_offset 32
	sd	ra,24(sp)
	sd	s0,16(sp)
	.cfi_offset 1, -8
	.cfi_offset 8, -16
	addi	s0,sp,32
	.cfi_def_cfa 8, 0
	sd	a0,-24(s0)
	sd	a1,-32(s0)
	.loc 1 359 12
	call	DebugAssertEnabled
	mv	a5,a0
	.loc 1 359 11
	beq	a5,zero,.L44
	.loc 1 359 40 discriminator 1
	ld	a5,-24(s0)
	bne	a5,zero,.L44
	.loc 1 359 68 discriminator 2
	lla	a2,.LC7
	li	a1,359
	lla	a0,.LC2
	call	UnitTestDebugAssert
.L44:
	.loc 1 361 10
	call	GetPiPcdProtocol
	mv	a5,a0
	.loc 1 361 28
	ld	a5,24(a5)
	.loc 1 361 10
	ld	a1,-32(s0)
	ld	a0,-24(s0)
	jalr	a5
.LVL14:
	mv	a5,a0
	sext.w	a5,a5
	.loc 1 362 1
	mv	a0,a5
	ld	ra,24(sp)
	.cfi_restore 1
	ld	s0,16(sp)
	.cfi_restore 8
	.cfi_def_cfa 2, 32
	addi	sp,sp,32
	.cfi_def_cfa_offset 0
	jr	ra
	.cfi_endproc
.LFE14:
	.size	LibPcdGetEx32, .-LibPcdGetEx32
	.section	.text.LibPcdGetEx64,"ax",@progbits
	.align	1
	.globl	LibPcdGetEx64
	.type	LibPcdGetEx64, @function
LibPcdGetEx64:
.LFB15:
	.loc 1 386 1
	.cfi_startproc
	addi	sp,sp,-32
	.cfi_def_cfa_offset 32
	sd	ra,24(sp)
	sd	s0,16(sp)
	.cfi_offset 1, -8
	.cfi_offset 8, -16
	addi	s0,sp,32
	.cfi_def_cfa 8, 0
	sd	a0,-24(s0)
	sd	a1,-32(s0)
	.loc 1 387 12
	call	DebugAssertEnabled
	mv	a5,a0
	.loc 1 387 11
	beq	a5,zero,.L47
	.loc 1 387 40 discriminator 1
	ld	a5,-24(s0)
	bne	a5,zero,.L47
	.loc 1 387 68 discriminator 2
	lla	a2,.LC7
	li	a1,387
	lla	a0,.LC2
	call	UnitTestDebugAssert
.L47:
	.loc 1 389 10
	call	GetPiPcdProtocol
	mv	a5,a0
	.loc 1 389 28
	ld	a5,32(a5)
	.loc 1 389 10
	ld	a1,-32(s0)
	ld	a0,-24(s0)
	jalr	a5
.LVL15:
	mv	a5,a0
	.loc 1 390 1
	mv	a0,a5
	ld	ra,24(sp)
	.cfi_restore 1
	ld	s0,16(sp)
	.cfi_restore 8
	.cfi_def_cfa 2, 32
	addi	sp,sp,32
	.cfi_def_cfa_offset 0
	jr	ra
	.cfi_endproc
.LFE15:
	.size	LibPcdGetEx64, .-LibPcdGetEx64
	.section	.text.LibPcdGetExPtr,"ax",@progbits
	.align	1
	.globl	LibPcdGetExPtr
	.type	LibPcdGetExPtr, @function
LibPcdGetExPtr:
.LFB16:
	.loc 1 414 1
	.cfi_startproc
	addi	sp,sp,-32
	.cfi_def_cfa_offset 32
	sd	ra,24(sp)
	sd	s0,16(sp)
	.cfi_offset 1, -8
	.cfi_offset 8, -16
	addi	s0,sp,32
	.cfi_def_cfa 8, 0
	sd	a0,-24(s0)
	sd	a1,-32(s0)
	.loc 1 415 12
	call	DebugAssertEnabled
	mv	a5,a0
	.loc 1 415 11
	beq	a5,zero,.L50
	.loc 1 415 40 discriminator 1
	ld	a5,-24(s0)
	bne	a5,zero,.L50
	.loc 1 415 68 discriminator 2
	lla	a2,.LC7
	li	a1,415
	lla	a0,.LC2
	call	UnitTestDebugAssert
.L50:
	.loc 1 417 10
	call	GetPiPcdProtocol
	mv	a5,a0
	.loc 1 417 28
	ld	a5,40(a5)
	.loc 1 417 10
	ld	a1,-32(s0)
	ld	a0,-24(s0)
	jalr	a5
.LVL16:
	mv	a5,a0
	.loc 1 418 1
	mv	a0,a5
	ld	ra,24(sp)
	.cfi_restore 1
	ld	s0,16(sp)
	.cfi_restore 8
	.cfi_def_cfa 2, 32
	addi	sp,sp,32
	.cfi_def_cfa_offset 0
	jr	ra
	.cfi_endproc
.LFE16:
	.size	LibPcdGetExPtr, .-LibPcdGetExPtr
	.section	.text.LibPcdGetExBool,"ax",@progbits
	.align	1
	.globl	LibPcdGetExBool
	.type	LibPcdGetExBool, @function
LibPcdGetExBool:
.LFB17:
	.loc 1 442 1
	.cfi_startproc
	addi	sp,sp,-32
	.cfi_def_cfa_offset 32
	sd	ra,24(sp)
	sd	s0,16(sp)
	.cfi_offset 1, -8
	.cfi_offset 8, -16
	addi	s0,sp,32
	.cfi_def_cfa 8, 0
	sd	a0,-24(s0)
	sd	a1,-32(s0)
	.loc 1 443 12
	call	DebugAssertEnabled
	mv	a5,a0
	.loc 1 443 11
	beq	a5,zero,.L53
	.loc 1 443 40 discriminator 1
	ld	a5,-24(s0)
	bne	a5,zero,.L53
	.loc 1 443 68 discriminator 2
	lla	a2,.LC7
	li	a1,443
	lla	a0,.LC2
	call	UnitTestDebugAssert
.L53:
	.loc 1 445 10
	call	GetPiPcdProtocol
	mv	a5,a0
	.loc 1 445 28
	ld	a5,48(a5)
	.loc 1 445 10
	ld	a1,-32(s0)
	ld	a0,-24(s0)
	jalr	a5
.LVL17:
	mv	a5,a0
	.loc 1 446 1
	mv	a0,a5
	ld	ra,24(sp)
	.cfi_restore 1
	ld	s0,16(sp)
	.cfi_restore 8
	.cfi_def_cfa 2, 32
	addi	sp,sp,32
	.cfi_def_cfa_offset 0
	jr	ra
	.cfi_endproc
.LFE17:
	.size	LibPcdGetExBool, .-LibPcdGetExBool
	.section	.text.LibPcdGetExSize,"ax",@progbits
	.align	1
	.globl	LibPcdGetExSize
	.type	LibPcdGetExSize, @function
LibPcdGetExSize:
.LFB18:
	.loc 1 470 1
	.cfi_startproc
	addi	sp,sp,-32
	.cfi_def_cfa_offset 32
	sd	ra,24(sp)
	sd	s0,16(sp)
	.cfi_offset 1, -8
	.cfi_offset 8, -16
	addi	s0,sp,32
	.cfi_def_cfa 8, 0
	sd	a0,-24(s0)
	sd	a1,-32(s0)
	.loc 1 471 12
	call	DebugAssertEnabled
	mv	a5,a0
	.loc 1 471 11
	beq	a5,zero,.L56
	.loc 1 471 40 discriminator 1
	ld	a5,-24(s0)
	bne	a5,zero,.L56
	.loc 1 471 68 discriminator 2
	lla	a2,.LC7
	li	a1,471
	lla	a0,.LC2
	call	UnitTestDebugAssert
.L56:
	.loc 1 473 10
	call	GetPiPcdProtocol
	mv	a5,a0
	.loc 1 473 28
	ld	a5,56(a5)
	.loc 1 473 10
	ld	a1,-32(s0)
	ld	a0,-24(s0)
	jalr	a5
.LVL18:
	mv	a5,a0
	.loc 1 474 1
	mv	a0,a5
	ld	ra,24(sp)
	.cfi_restore 1
	ld	s0,16(sp)
	.cfi_restore 8
	.cfi_def_cfa 2, 32
	addi	sp,sp,32
	.cfi_def_cfa_offset 0
	jr	ra
	.cfi_endproc
.LFE18:
	.size	LibPcdGetExSize, .-LibPcdGetExSize
	.section	.text.LibPcdSet8S,"ax",@progbits
	.align	1
	.globl	LibPcdSet8S
	.type	LibPcdSet8S, @function
LibPcdSet8S:
.LFB19:
	.loc 1 495 1
	.cfi_startproc
	addi	sp,sp,-32
	.cfi_def_cfa_offset 32
	sd	ra,24(sp)
	sd	s0,16(sp)
	.cfi_offset 1, -8
	.cfi_offset 8, -16
	addi	s0,sp,32
	.cfi_def_cfa 8, 0
	sd	a0,-24(s0)
	mv	a5,a1
	sb	a5,-25(s0)
	.loc 1 496 10
	call	GetPcdProtocol
	mv	a5,a0
	.loc 1 496 26
	ld	a4,120(a5)
	.loc 1 496 10
	lbu	a5,-25(s0)
	mv	a1,a5
	ld	a0,-24(s0)
	jalr	a4
.LVL19:
	mv	a5,a0
	.loc 1 497 1
	mv	a0,a5
	ld	ra,24(sp)
	.cfi_restore 1
	ld	s0,16(sp)
	.cfi_restore 8
	.cfi_def_cfa 2, 32
	addi	sp,sp,32
	.cfi_def_cfa_offset 0
	jr	ra
	.cfi_endproc
.LFE19:
	.size	LibPcdSet8S, .-LibPcdSet8S
	.section	.text.LibPcdSet16S,"ax",@progbits
	.align	1
	.globl	LibPcdSet16S
	.type	LibPcdSet16S, @function
LibPcdSet16S:
.LFB20:
	.loc 1 517 1
	.cfi_startproc
	addi	sp,sp,-32
	.cfi_def_cfa_offset 32
	sd	ra,24(sp)
	sd	s0,16(sp)
	.cfi_offset 1, -8
	.cfi_offset 8, -16
	addi	s0,sp,32
	.cfi_def_cfa 8, 0
	sd	a0,-24(s0)
	mv	a5,a1
	sh	a5,-26(s0)
	.loc 1 518 10
	call	GetPcdProtocol
	mv	a5,a0
	.loc 1 518 26
	ld	a4,128(a5)
	.loc 1 518 10
	lhu	a5,-26(s0)
	mv	a1,a5
	ld	a0,-24(s0)
	jalr	a4
.LVL20:
	mv	a5,a0
	.loc 1 519 1
	mv	a0,a5
	ld	ra,24(sp)
	.cfi_restore 1
	ld	s0,16(sp)
	.cfi_restore 8
	.cfi_def_cfa 2, 32
	addi	sp,sp,32
	.cfi_def_cfa_offset 0
	jr	ra
	.cfi_endproc
.LFE20:
	.size	LibPcdSet16S, .-LibPcdSet16S
	.section	.text.LibPcdSet32S,"ax",@progbits
	.align	1
	.globl	LibPcdSet32S
	.type	LibPcdSet32S, @function
LibPcdSet32S:
.LFB21:
	.loc 1 539 1
	.cfi_startproc
	addi	sp,sp,-32
	.cfi_def_cfa_offset 32
	sd	ra,24(sp)
	sd	s0,16(sp)
	.cfi_offset 1, -8
	.cfi_offset 8, -16
	addi	s0,sp,32
	.cfi_def_cfa 8, 0
	sd	a0,-24(s0)
	mv	a5,a1
	sw	a5,-28(s0)
	.loc 1 540 10
	call	GetPcdProtocol
	mv	a5,a0
	.loc 1 540 26
	ld	a4,136(a5)
	.loc 1 540 10
	lw	a5,-28(s0)
	mv	a1,a5
	ld	a0,-24(s0)
	jalr	a4
.LVL21:
	mv	a5,a0
	.loc 1 541 1
	mv	a0,a5
	ld	ra,24(sp)
	.cfi_restore 1
	ld	s0,16(sp)
	.cfi_restore 8
	.cfi_def_cfa 2, 32
	addi	sp,sp,32
	.cfi_def_cfa_offset 0
	jr	ra
	.cfi_endproc
.LFE21:
	.size	LibPcdSet32S, .-LibPcdSet32S
	.section	.text.LibPcdSet64S,"ax",@progbits
	.align	1
	.globl	LibPcdSet64S
	.type	LibPcdSet64S, @function
LibPcdSet64S:
.LFB22:
	.loc 1 561 1
	.cfi_startproc
	addi	sp,sp,-32
	.cfi_def_cfa_offset 32
	sd	ra,24(sp)
	sd	s0,16(sp)
	.cfi_offset 1, -8
	.cfi_offset 8, -16
	addi	s0,sp,32
	.cfi_def_cfa 8, 0
	sd	a0,-24(s0)
	sd	a1,-32(s0)
	.loc 1 562 10
	call	GetPcdProtocol
	mv	a5,a0
	.loc 1 562 26
	ld	a5,144(a5)
	.loc 1 562 10
	ld	a1,-32(s0)
	ld	a0,-24(s0)
	jalr	a5
.LVL22:
	mv	a5,a0
	.loc 1 563 1
	mv	a0,a5
	ld	ra,24(sp)
	.cfi_restore 1
	ld	s0,16(sp)
	.cfi_restore 8
	.cfi_def_cfa 2, 32
	addi	sp,sp,32
	.cfi_def_cfa_offset 0
	jr	ra
	.cfi_endproc
.LFE22:
	.size	LibPcdSet64S, .-LibPcdSet64S
	.section	.rodata
	.align	3
.LC8:
	.string	"SizeOfBuffer != ((void *) 0)"
	.align	3
.LC9:
	.string	"Buffer != ((void *) 0)"
	.section	.text.LibPcdSetPtrS,"ax",@progbits
	.align	1
	.globl	LibPcdSetPtrS
	.type	LibPcdSetPtrS, @function
LibPcdSetPtrS:
.LFB23:
	.loc 1 594 1
	.cfi_startproc
	addi	sp,sp,-48
	.cfi_def_cfa_offset 48
	sd	ra,40(sp)
	sd	s0,32(sp)
	.cfi_offset 1, -8
	.cfi_offset 8, -16
	addi	s0,sp,48
	.cfi_def_cfa 8, 0
	sd	a0,-24(s0)
	sd	a1,-32(s0)
	sd	a2,-40(s0)
	.loc 1 595 12
	call	DebugAssertEnabled
	mv	a5,a0
	.loc 1 595 11
	beq	a5,zero,.L67
	.loc 1 595 40 discriminator 1
	ld	a5,-32(s0)
	bne	a5,zero,.L67
	.loc 1 595 76 discriminator 2
	lla	a2,.LC8
	li	a1,595
	lla	a0,.LC2
	call	UnitTestDebugAssert
.L67:
	.loc 1 597 7
	ld	a5,-32(s0)
	ld	a5,0(a5)
	.loc 1 597 6
	beq	a5,zero,.L68
	.loc 1 598 14
	call	DebugAssertEnabled
	mv	a5,a0
	.loc 1 598 13
	beq	a5,zero,.L68
	.loc 1 598 42 discriminator 1
	ld	a5,-40(s0)
	bne	a5,zero,.L68
	.loc 1 598 72 discriminator 2
	lla	a2,.LC9
	li	a1,598
	lla	a0,.LC2
	call	UnitTestDebugAssert
.L68:
	.loc 1 601 10
	call	GetPcdProtocol
	mv	a5,a0
	.loc 1 601 26
	ld	a5,152(a5)
	.loc 1 601 10
	ld	a2,-40(s0)
	ld	a1,-32(s0)
	ld	a0,-24(s0)
	jalr	a5
.LVL23:
	mv	a5,a0
	.loc 1 602 1
	mv	a0,a5
	ld	ra,40(sp)
	.cfi_restore 1
	ld	s0,32(sp)
	.cfi_restore 8
	.cfi_def_cfa 2, 48
	addi	sp,sp,48
	.cfi_def_cfa_offset 0
	jr	ra
	.cfi_endproc
.LFE23:
	.size	LibPcdSetPtrS, .-LibPcdSetPtrS
	.section	.text.LibPcdSetBoolS,"ax",@progbits
	.align	1
	.globl	LibPcdSetBoolS
	.type	LibPcdSetBoolS, @function
LibPcdSetBoolS:
.LFB24:
	.loc 1 622 1
	.cfi_startproc
	addi	sp,sp,-32
	.cfi_def_cfa_offset 32
	sd	ra,24(sp)
	sd	s0,16(sp)
	.cfi_offset 1, -8
	.cfi_offset 8, -16
	addi	s0,sp,32
	.cfi_def_cfa 8, 0
	sd	a0,-24(s0)
	mv	a5,a1
	sb	a5,-25(s0)
	.loc 1 623 10
	call	GetPcdProtocol
	mv	a5,a0
	.loc 1 623 26
	ld	a4,160(a5)
	.loc 1 623 10
	lbu	a5,-25(s0)
	mv	a1,a5
	ld	a0,-24(s0)
	jalr	a4
.LVL24:
	mv	a5,a0
	.loc 1 624 1
	mv	a0,a5
	ld	ra,24(sp)
	.cfi_restore 1
	ld	s0,16(sp)
	.cfi_restore 8
	.cfi_def_cfa 2, 32
	addi	sp,sp,32
	.cfi_def_cfa_offset 0
	jr	ra
	.cfi_endproc
.LFE24:
	.size	LibPcdSetBoolS, .-LibPcdSetBoolS
	.section	.text.LibPcdSetEx8S,"ax",@progbits
	.align	1
	.globl	LibPcdSetEx8S
	.type	LibPcdSetEx8S, @function
LibPcdSetEx8S:
.LFB25:
	.loc 1 649 1
	.cfi_startproc
	addi	sp,sp,-48
	.cfi_def_cfa_offset 48
	sd	ra,40(sp)
	sd	s0,32(sp)
	.cfi_offset 1, -8
	.cfi_offset 8, -16
	addi	s0,sp,48
	.cfi_def_cfa 8, 0
	sd	a0,-24(s0)
	sd	a1,-32(s0)
	mv	a5,a2
	sb	a5,-33(s0)
	.loc 1 650 12
	call	DebugAssertEnabled
	mv	a5,a0
	.loc 1 650 11
	beq	a5,zero,.L73
	.loc 1 650 40 discriminator 1
	ld	a5,-24(s0)
	bne	a5,zero,.L73
	.loc 1 650 68 discriminator 2
	lla	a2,.LC7
	li	a1,650
	lla	a0,.LC2
	call	UnitTestDebugAssert
.L73:
	.loc 1 652 10
	call	GetPiPcdProtocol
	mv	a5,a0
	.loc 1 652 28
	ld	a4,64(a5)
	.loc 1 652 10
	lbu	a5,-33(s0)
	mv	a2,a5
	ld	a1,-32(s0)
	ld	a0,-24(s0)
	jalr	a4
.LVL25:
	mv	a5,a0
	.loc 1 653 1
	mv	a0,a5
	ld	ra,40(sp)
	.cfi_restore 1
	ld	s0,32(sp)
	.cfi_restore 8
	.cfi_def_cfa 2, 48
	addi	sp,sp,48
	.cfi_def_cfa_offset 0
	jr	ra
	.cfi_endproc
.LFE25:
	.size	LibPcdSetEx8S, .-LibPcdSetEx8S
	.section	.text.LibPcdSetEx16S,"ax",@progbits
	.align	1
	.globl	LibPcdSetEx16S
	.type	LibPcdSetEx16S, @function
LibPcdSetEx16S:
.LFB26:
	.loc 1 678 1
	.cfi_startproc
	addi	sp,sp,-48
	.cfi_def_cfa_offset 48
	sd	ra,40(sp)
	sd	s0,32(sp)
	.cfi_offset 1, -8
	.cfi_offset 8, -16
	addi	s0,sp,48
	.cfi_def_cfa 8, 0
	sd	a0,-24(s0)
	sd	a1,-32(s0)
	mv	a5,a2
	sh	a5,-34(s0)
	.loc 1 679 12
	call	DebugAssertEnabled
	mv	a5,a0
	.loc 1 679 11
	beq	a5,zero,.L76
	.loc 1 679 40 discriminator 1
	ld	a5,-24(s0)
	bne	a5,zero,.L76
	.loc 1 679 68 discriminator 2
	lla	a2,.LC7
	li	a1,679
	lla	a0,.LC2
	call	UnitTestDebugAssert
.L76:
	.loc 1 681 10
	call	GetPiPcdProtocol
	mv	a5,a0
	.loc 1 681 28
	ld	a4,72(a5)
	.loc 1 681 10
	lhu	a5,-34(s0)
	mv	a2,a5
	ld	a1,-32(s0)
	ld	a0,-24(s0)
	jalr	a4
.LVL26:
	mv	a5,a0
	.loc 1 682 1
	mv	a0,a5
	ld	ra,40(sp)
	.cfi_restore 1
	ld	s0,32(sp)
	.cfi_restore 8
	.cfi_def_cfa 2, 48
	addi	sp,sp,48
	.cfi_def_cfa_offset 0
	jr	ra
	.cfi_endproc
.LFE26:
	.size	LibPcdSetEx16S, .-LibPcdSetEx16S
	.section	.text.LibPcdSetEx32S,"ax",@progbits
	.align	1
	.globl	LibPcdSetEx32S
	.type	LibPcdSetEx32S, @function
LibPcdSetEx32S:
.LFB27:
	.loc 1 707 1
	.cfi_startproc
	addi	sp,sp,-48
	.cfi_def_cfa_offset 48
	sd	ra,40(sp)
	sd	s0,32(sp)
	.cfi_offset 1, -8
	.cfi_offset 8, -16
	addi	s0,sp,48
	.cfi_def_cfa 8, 0
	sd	a0,-24(s0)
	sd	a1,-32(s0)
	mv	a5,a2
	sw	a5,-36(s0)
	.loc 1 708 12
	call	DebugAssertEnabled
	mv	a5,a0
	.loc 1 708 11
	beq	a5,zero,.L79
	.loc 1 708 40 discriminator 1
	ld	a5,-24(s0)
	bne	a5,zero,.L79
	.loc 1 708 68 discriminator 2
	lla	a2,.LC7
	li	a1,708
	lla	a0,.LC2
	call	UnitTestDebugAssert
.L79:
	.loc 1 710 10
	call	GetPiPcdProtocol
	mv	a5,a0
	.loc 1 710 28
	ld	a4,80(a5)
	.loc 1 710 10
	lw	a5,-36(s0)
	mv	a2,a5
	ld	a1,-32(s0)
	ld	a0,-24(s0)
	jalr	a4
.LVL27:
	mv	a5,a0
	.loc 1 711 1
	mv	a0,a5
	ld	ra,40(sp)
	.cfi_restore 1
	ld	s0,32(sp)
	.cfi_restore 8
	.cfi_def_cfa 2, 48
	addi	sp,sp,48
	.cfi_def_cfa_offset 0
	jr	ra
	.cfi_endproc
.LFE27:
	.size	LibPcdSetEx32S, .-LibPcdSetEx32S
	.section	.text.LibPcdSetEx64S,"ax",@progbits
	.align	1
	.globl	LibPcdSetEx64S
	.type	LibPcdSetEx64S, @function
LibPcdSetEx64S:
.LFB28:
	.loc 1 736 1
	.cfi_startproc
	addi	sp,sp,-48
	.cfi_def_cfa_offset 48
	sd	ra,40(sp)
	sd	s0,32(sp)
	.cfi_offset 1, -8
	.cfi_offset 8, -16
	addi	s0,sp,48
	.cfi_def_cfa 8, 0
	sd	a0,-24(s0)
	sd	a1,-32(s0)
	sd	a2,-40(s0)
	.loc 1 737 12
	call	DebugAssertEnabled
	mv	a5,a0
	.loc 1 737 11
	beq	a5,zero,.L82
	.loc 1 737 40 discriminator 1
	ld	a5,-24(s0)
	bne	a5,zero,.L82
	.loc 1 737 68 discriminator 2
	lla	a2,.LC7
	li	a1,737
	lla	a0,.LC2
	call	UnitTestDebugAssert
.L82:
	.loc 1 739 10
	call	GetPiPcdProtocol
	mv	a5,a0
	.loc 1 739 28
	ld	a5,88(a5)
	.loc 1 739 10
	ld	a2,-40(s0)
	ld	a1,-32(s0)
	ld	a0,-24(s0)
	jalr	a5
.LVL28:
	mv	a5,a0
	.loc 1 740 1
	mv	a0,a5
	ld	ra,40(sp)
	.cfi_restore 1
	ld	s0,32(sp)
	.cfi_restore 8
	.cfi_def_cfa 2, 48
	addi	sp,sp,48
	.cfi_def_cfa_offset 0
	jr	ra
	.cfi_endproc
.LFE28:
	.size	LibPcdSetEx64S, .-LibPcdSetEx64S
	.section	.text.LibPcdSetExPtrS,"ax",@progbits
	.align	1
	.globl	LibPcdSetExPtrS
	.type	LibPcdSetExPtrS, @function
LibPcdSetExPtrS:
.LFB29:
	.loc 1 772 1
	.cfi_startproc
	addi	sp,sp,-48
	.cfi_def_cfa_offset 48
	sd	ra,40(sp)
	sd	s0,32(sp)
	.cfi_offset 1, -8
	.cfi_offset 8, -16
	addi	s0,sp,48
	.cfi_def_cfa 8, 0
	sd	a0,-24(s0)
	sd	a1,-32(s0)
	sd	a2,-40(s0)
	sd	a3,-48(s0)
	.loc 1 773 12
	call	DebugAssertEnabled
	mv	a5,a0
	.loc 1 773 11
	beq	a5,zero,.L85
	.loc 1 773 40 discriminator 1
	ld	a5,-24(s0)
	bne	a5,zero,.L85
	.loc 1 773 68 discriminator 2
	lla	a2,.LC7
	li	a1,773
	lla	a0,.LC2
	call	UnitTestDebugAssert
.L85:
	.loc 1 775 12
	call	DebugAssertEnabled
	mv	a5,a0
	.loc 1 775 11
	beq	a5,zero,.L86
	.loc 1 775 40 discriminator 1
	ld	a5,-40(s0)
	bne	a5,zero,.L86
	.loc 1 775 76 discriminator 2
	lla	a2,.LC8
	li	a1,775
	lla	a0,.LC2
	call	UnitTestDebugAssert
.L86:
	.loc 1 777 7
	ld	a5,-40(s0)
	ld	a5,0(a5)
	.loc 1 777 6
	beq	a5,zero,.L87
	.loc 1 778 14
	call	DebugAssertEnabled
	mv	a5,a0
	.loc 1 778 13
	beq	a5,zero,.L87
	.loc 1 778 42 discriminator 1
	ld	a5,-48(s0)
	bne	a5,zero,.L87
	.loc 1 778 72 discriminator 2
	lla	a2,.LC9
	li	a1,778
	lla	a0,.LC2
	call	UnitTestDebugAssert
.L87:
	.loc 1 781 10
	call	GetPiPcdProtocol
	mv	a5,a0
	.loc 1 781 28
	ld	a5,96(a5)
	.loc 1 781 10
	ld	a3,-48(s0)
	ld	a2,-40(s0)
	ld	a1,-32(s0)
	ld	a0,-24(s0)
	jalr	a5
.LVL29:
	mv	a5,a0
	.loc 1 782 1
	mv	a0,a5
	ld	ra,40(sp)
	.cfi_restore 1
	ld	s0,32(sp)
	.cfi_restore 8
	.cfi_def_cfa 2, 48
	addi	sp,sp,48
	.cfi_def_cfa_offset 0
	jr	ra
	.cfi_endproc
.LFE29:
	.size	LibPcdSetExPtrS, .-LibPcdSetExPtrS
	.section	.text.LibPcdSetExBoolS,"ax",@progbits
	.align	1
	.globl	LibPcdSetExBoolS
	.type	LibPcdSetExBoolS, @function
LibPcdSetExBoolS:
.LFB30:
	.loc 1 807 1
	.cfi_startproc
	addi	sp,sp,-48
	.cfi_def_cfa_offset 48
	sd	ra,40(sp)
	sd	s0,32(sp)
	.cfi_offset 1, -8
	.cfi_offset 8, -16
	addi	s0,sp,48
	.cfi_def_cfa 8, 0
	sd	a0,-24(s0)
	sd	a1,-32(s0)
	mv	a5,a2
	sb	a5,-33(s0)
	.loc 1 808 12
	call	DebugAssertEnabled
	mv	a5,a0
	.loc 1 808 11
	beq	a5,zero,.L90
	.loc 1 808 40 discriminator 1
	ld	a5,-24(s0)
	bne	a5,zero,.L90
	.loc 1 808 68 discriminator 2
	lla	a2,.LC7
	li	a1,808
	lla	a0,.LC2
	call	UnitTestDebugAssert
.L90:
	.loc 1 810 10
	call	GetPiPcdProtocol
	mv	a5,a0
	.loc 1 810 28
	ld	a4,104(a5)
	.loc 1 810 10
	lbu	a5,-33(s0)
	mv	a2,a5
	ld	a1,-32(s0)
	ld	a0,-24(s0)
	jalr	a4
.LVL30:
	mv	a5,a0
	.loc 1 811 1
	mv	a0,a5
	ld	ra,40(sp)
	.cfi_restore 1
	ld	s0,32(sp)
	.cfi_restore 8
	.cfi_def_cfa 2, 48
	addi	sp,sp,48
	.cfi_def_cfa_offset 0
	jr	ra
	.cfi_endproc
.LFE30:
	.size	LibPcdSetExBoolS, .-LibPcdSetExBoolS
	.section	.rodata
	.align	3
.LC10:
	.string	"NotificationFunction != ((void *) 0)"
	.section	.text.LibPcdCallbackOnSet,"ax",@progbits
	.align	1
	.globl	LibPcdCallbackOnSet
	.type	LibPcdCallbackOnSet, @function
LibPcdCallbackOnSet:
.LFB31:
	.loc 1 836 1
	.cfi_startproc
	addi	sp,sp,-64
	.cfi_def_cfa_offset 64
	sd	ra,56(sp)
	sd	s0,48(sp)
	.cfi_offset 1, -8
	.cfi_offset 8, -16
	addi	s0,sp,64
	.cfi_def_cfa 8, 0
	sd	a0,-40(s0)
	sd	a1,-48(s0)
	sd	a2,-56(s0)
	.loc 1 839 12
	call	DebugAssertEnabled
	mv	a5,a0
	.loc 1 839 11
	beq	a5,zero,.L93
	.loc 1 839 40 discriminator 1
	ld	a5,-56(s0)
	bne	a5,zero,.L93
	.loc 1 839 84 discriminator 2
	lla	a2,.LC10
	li	a1,839
	lla	a0,.LC2
	call	UnitTestDebugAssert
.L93:
	.loc 1 841 12
	call	GetPiPcdProtocol
	mv	a5,a0
	.loc 1 841 30
	ld	a5,112(a5)
	.loc 1 841 12
	ld	a2,-56(s0)
	ld	a1,-48(s0)
	ld	a0,-40(s0)
	jalr	a5
.LVL31:
	sd	a0,-24(s0)
	.loc 1 842 12
	call	DebugAssertEnabled
	mv	a5,a0
	.loc 1 842 11
	beq	a5,zero,.L97
	.loc 1 842 43 discriminator 1
	ld	a5,-24(s0)
	.loc 1 842 40 discriminator 1
	bge	a5,zero,.L97
	.loc 1 842 91 discriminator 2
	call	DebugPrintEnabled
	mv	a5,a0
	.loc 1 842 90 discriminator 2
	beq	a5,zero,.L95
	.loc 1 842 124 discriminator 3
	li	a5,1
	slli	a0,a5,31
	call	DebugPrintLevelEnabled
	mv	a5,a0
	.loc 1 842 123 discriminator 3
	beq	a5,zero,.L95
	.loc 1 842 163 discriminator 5
	ld	a2,-24(s0)
	lla	a1,.LC0
	li	a5,1
	slli	a0,a5,31
	call	DebugPrint
.L95:
	.loc 1 842 296 discriminator 7
	lla	a2,.LC1
	li	a1,842
	lla	a0,.LC2
	call	UnitTestDebugAssert
	.loc 1 844 3 discriminator 7
	nop
.L97:
	.loc 1 844 3 is_stmt 0
	nop
	.loc 1 845 1 is_stmt 1
	ld	ra,56(sp)
	.cfi_restore 1
	ld	s0,48(sp)
	.cfi_restore 8
	.cfi_def_cfa 2, 64
	addi	sp,sp,64
	.cfi_def_cfa_offset 0
	jr	ra
	.cfi_endproc
.LFE31:
	.size	LibPcdCallbackOnSet, .-LibPcdCallbackOnSet
	.section	.text.LibPcdCancelCallback,"ax",@progbits
	.align	1
	.globl	LibPcdCancelCallback
	.type	LibPcdCancelCallback, @function
LibPcdCancelCallback:
.LFB32:
	.loc 1 869 1
	.cfi_startproc
	addi	sp,sp,-64
	.cfi_def_cfa_offset 64
	sd	ra,56(sp)
	sd	s0,48(sp)
	.cfi_offset 1, -8
	.cfi_offset 8, -16
	addi	s0,sp,64
	.cfi_def_cfa 8, 0
	sd	a0,-40(s0)
	sd	a1,-48(s0)
	sd	a2,-56(s0)
	.loc 1 872 12
	call	DebugAssertEnabled
	mv	a5,a0
	.loc 1 872 11
	beq	a5,zero,.L99
	.loc 1 872 40 discriminator 1
	ld	a5,-56(s0)
	bne	a5,zero,.L99
	.loc 1 872 84 discriminator 2
	lla	a2,.LC10
	li	a1,872
	lla	a0,.LC2
	call	UnitTestDebugAssert
.L99:
	.loc 1 874 12
	call	GetPiPcdProtocol
	mv	a5,a0
	.loc 1 874 30
	ld	a5,120(a5)
	.loc 1 874 12
	ld	a2,-56(s0)
	ld	a1,-48(s0)
	ld	a0,-40(s0)
	jalr	a5
.LVL32:
	sd	a0,-24(s0)
	.loc 1 875 12
	call	DebugAssertEnabled
	mv	a5,a0
	.loc 1 875 11
	beq	a5,zero,.L103
	.loc 1 875 43 discriminator 1
	ld	a5,-24(s0)
	.loc 1 875 40 discriminator 1
	bge	a5,zero,.L103
	.loc 1 875 91 discriminator 2
	call	DebugPrintEnabled
	mv	a5,a0
	.loc 1 875 90 discriminator 2
	beq	a5,zero,.L101
	.loc 1 875 124 discriminator 3
	li	a5,1
	slli	a0,a5,31
	call	DebugPrintLevelEnabled
	mv	a5,a0
	.loc 1 875 123 discriminator 3
	beq	a5,zero,.L101
	.loc 1 875 163 discriminator 5
	ld	a2,-24(s0)
	lla	a1,.LC0
	li	a5,1
	slli	a0,a5,31
	call	DebugPrint
.L101:
	.loc 1 875 296 discriminator 7
	lla	a2,.LC1
	li	a1,875
	lla	a0,.LC2
	call	UnitTestDebugAssert
	.loc 1 877 3 discriminator 7
	nop
.L103:
	.loc 1 877 3 is_stmt 0
	nop
	.loc 1 878 1 is_stmt 1
	ld	ra,56(sp)
	.cfi_restore 1
	ld	s0,48(sp)
	.cfi_restore 8
	.cfi_def_cfa 2, 64
	addi	sp,sp,64
	.cfi_def_cfa_offset 0
	jr	ra
	.cfi_endproc
.LFE32:
	.size	LibPcdCancelCallback, .-LibPcdCancelCallback
	.section	.rodata
	.align	3
.LC11:
	.string	"!(((INTN)(RETURN_STATUS)(Status)) < 0) || TokenNumber == 0"
	.section	.text.LibPcdGetNextToken,"ax",@progbits
	.align	1
	.globl	LibPcdGetNextToken
	.type	LibPcdGetNextToken, @function
LibPcdGetNextToken:
.LFB33:
	.loc 1 907 1
	.cfi_startproc
	addi	sp,sp,-48
	.cfi_def_cfa_offset 48
	sd	ra,40(sp)
	sd	s0,32(sp)
	.cfi_offset 1, -8
	.cfi_offset 8, -16
	addi	s0,sp,48
	.cfi_def_cfa 8, 0
	sd	a0,-40(s0)
	sd	a1,-48(s0)
	.loc 1 910 12
	call	GetPiPcdProtocol
	mv	a5,a0
	.loc 1 910 30
	ld	a4,128(a5)
	.loc 1 910 12
	addi	a5,s0,-48
	mv	a1,a5
	ld	a0,-40(s0)
	jalr	a4
.LVL33:
	sd	a0,-24(s0)
	.loc 1 911 12
	call	DebugAssertEnabled
	mv	a5,a0
	.loc 1 911 11
	beq	a5,zero,.L105
	.loc 1 911 46 discriminator 1
	ld	a5,-24(s0)
	.loc 1 911 40 discriminator 1
	bge	a5,zero,.L105
	.loc 1 911 97 discriminator 2
	ld	a5,-48(s0)
	.loc 1 911 41 discriminator 2
	beq	a5,zero,.L105
	.loc 1 911 106 discriminator 3
	lla	a2,.LC11
	li	a1,911
	lla	a0,.LC2
	call	UnitTestDebugAssert
.L105:
	.loc 1 913 10
	ld	a5,-48(s0)
	.loc 1 914 1
	mv	a0,a5
	ld	ra,40(sp)
	.cfi_restore 1
	ld	s0,32(sp)
	.cfi_restore 8
	.cfi_def_cfa 2, 48
	addi	sp,sp,48
	.cfi_def_cfa_offset 0
	jr	ra
	.cfi_endproc
.LFE33:
	.size	LibPcdGetNextToken, .-LibPcdGetNextToken
	.section	.text.LibPcdGetNextTokenSpace,"ax",@progbits
	.align	1
	.globl	LibPcdGetNextTokenSpace
	.type	LibPcdGetNextTokenSpace, @function
LibPcdGetNextTokenSpace:
.LFB34:
	.loc 1 936 1
	.cfi_startproc
	addi	sp,sp,-32
	.cfi_def_cfa_offset 32
	sd	ra,24(sp)
	sd	s0,16(sp)
	.cfi_offset 1, -8
	.cfi_offset 8, -16
	addi	s0,sp,32
	.cfi_def_cfa 8, 0
	sd	a0,-24(s0)
	.loc 1 937 3
	call	GetPiPcdProtocol
	mv	a5,a0
	.loc 1 937 21
	ld	a4,136(a5)
	.loc 1 937 3
	addi	a5,s0,-24
	mv	a0,a5
	jalr	a4
.LVL34:
	.loc 1 939 10
	ld	a5,-24(s0)
	.loc 1 940 1
	mv	a0,a5
	ld	ra,24(sp)
	.cfi_restore 1
	ld	s0,16(sp)
	.cfi_restore 8
	.cfi_def_cfa 2, 32
	addi	sp,sp,32
	.cfi_def_cfa_offset 0
	jr	ra
	.cfi_endproc
.LFE34:
	.size	LibPcdGetNextTokenSpace, .-LibPcdGetNextTokenSpace
	.section	.rodata
	.align	3
.LC12:
	.string	"PatchVariable != ((void *) 0)"
	.section	.text.LibPatchPcdSetPtr,"ax",@progbits
	.align	1
	.globl	LibPatchPcdSetPtr
	.type	LibPatchPcdSetPtr, @function
LibPatchPcdSetPtr:
.LFB35:
	.loc 1 974 1
	.cfi_startproc
	addi	sp,sp,-48
	.cfi_def_cfa_offset 48
	sd	ra,40(sp)
	sd	s0,32(sp)
	.cfi_offset 1, -8
	.cfi_offset 8, -16
	addi	s0,sp,48
	.cfi_def_cfa 8, 0
	sd	a0,-24(s0)
	sd	a1,-32(s0)
	sd	a2,-40(s0)
	sd	a3,-48(s0)
	.loc 1 975 12
	call	DebugAssertEnabled
	mv	a5,a0
	.loc 1 975 11
	beq	a5,zero,.L110
	.loc 1 975 40 discriminator 1
	ld	a5,-24(s0)
	bne	a5,zero,.L110
	.loc 1 975 77 discriminator 2
	lla	a2,.LC12
	li	a1,975
	lla	a0,.LC2
	call	UnitTestDebugAssert
.L110:
	.loc 1 976 12
	call	DebugAssertEnabled
	mv	a5,a0
	.loc 1 976 11
	beq	a5,zero,.L111
	.loc 1 976 40 discriminator 1
	ld	a5,-40(s0)
	bne	a5,zero,.L111
	.loc 1 976 76 discriminator 2
	lla	a2,.LC8
	li	a1,976
	lla	a0,.LC2
	call	UnitTestDebugAssert
.L111:
	.loc 1 978 7
	ld	a5,-40(s0)
	ld	a5,0(a5)
	.loc 1 978 6
	beq	a5,zero,.L112
	.loc 1 979 14
	call	DebugAssertEnabled
	mv	a5,a0
	.loc 1 979 13
	beq	a5,zero,.L112
	.loc 1 979 42 discriminator 1
	ld	a5,-48(s0)
	bne	a5,zero,.L112
	.loc 1 979 72 discriminator 2
	lla	a2,.LC9
	li	a1,979
	lla	a0,.LC2
	call	UnitTestDebugAssert
.L112:
	.loc 1 982 8
	ld	a5,-40(s0)
	ld	a5,0(a5)
	.loc 1 982 6
	ld	a4,-32(s0)
	bltu	a4,a5,.L113
	.loc 1 983 8 discriminator 1
	ld	a5,-40(s0)
	ld	a4,0(a5)
	.loc 1 982 42 discriminator 1
	li	a5,-1
	bne	a4,a5,.L114
.L113:
	.loc 1 984 19
	ld	a5,-40(s0)
	ld	a4,-32(s0)
	sd	a4,0(a5)
	.loc 1 985 12
	li	a5,0
	j	.L115
.L114:
	.loc 1 988 3
	ld	a5,-40(s0)
	ld	a5,0(a5)
	mv	a2,a5
	ld	a1,-48(s0)
	ld	a0,-24(s0)
	call	CopyMem
	.loc 1 990 10
	ld	a5,-48(s0)
.L115:
	.loc 1 991 1
	mv	a0,a5
	ld	ra,40(sp)
	.cfi_restore 1
	ld	s0,32(sp)
	.cfi_restore 8
	.cfi_def_cfa 2, 48
	addi	sp,sp,48
	.cfi_def_cfa_offset 0
	jr	ra
	.cfi_endproc
.LFE35:
	.size	LibPatchPcdSetPtr, .-LibPatchPcdSetPtr
	.section	.text.LibPatchPcdSetPtrS,"ax",@progbits
	.align	1
	.globl	LibPatchPcdSetPtrS
	.type	LibPatchPcdSetPtrS, @function
LibPatchPcdSetPtrS:
.LFB36:
	.loc 1 1024 1
	.cfi_startproc
	addi	sp,sp,-48
	.cfi_def_cfa_offset 48
	sd	ra,40(sp)
	sd	s0,32(sp)
	.cfi_offset 1, -8
	.cfi_offset 8, -16
	addi	s0,sp,48
	.cfi_def_cfa 8, 0
	sd	a0,-24(s0)
	sd	a1,-32(s0)
	sd	a2,-40(s0)
	sd	a3,-48(s0)
	.loc 1 1025 12
	call	DebugAssertEnabled
	mv	a5,a0
	.loc 1 1025 11
	beq	a5,zero,.L117
	.loc 1 1025 40 discriminator 1
	ld	a5,-24(s0)
	bne	a5,zero,.L117
	.loc 1 1025 77 discriminator 2
	lla	a2,.LC12
	li	a1,1025
	lla	a0,.LC2
	call	UnitTestDebugAssert
.L117:
	.loc 1 1026 12
	call	DebugAssertEnabled
	mv	a5,a0
	.loc 1 1026 11
	beq	a5,zero,.L118
	.loc 1 1026 40 discriminator 1
	ld	a5,-40(s0)
	bne	a5,zero,.L118
	.loc 1 1026 76 discriminator 2
	lla	a2,.LC8
	li	a1,1026
	lla	a0,.LC2
	call	UnitTestDebugAssert
.L118:
	.loc 1 1028 7
	ld	a5,-40(s0)
	ld	a5,0(a5)
	.loc 1 1028 6
	beq	a5,zero,.L119
	.loc 1 1029 14
	call	DebugAssertEnabled
	mv	a5,a0
	.loc 1 1029 13
	beq	a5,zero,.L119
	.loc 1 1029 42 discriminator 1
	ld	a5,-48(s0)
	bne	a5,zero,.L119
	.loc 1 1029 72 discriminator 2
	lla	a2,.LC9
	li	a1,1029
	lla	a0,.LC2
	call	UnitTestDebugAssert
.L119:
	.loc 1 1032 8
	ld	a5,-40(s0)
	ld	a5,0(a5)
	.loc 1 1032 6
	ld	a4,-32(s0)
	bltu	a4,a5,.L120
	.loc 1 1033 8 discriminator 1
	ld	a5,-40(s0)
	ld	a4,0(a5)
	.loc 1 1032 42 discriminator 1
	li	a5,-1
	bne	a4,a5,.L121
.L120:
	.loc 1 1034 19
	ld	a5,-40(s0)
	ld	a4,-32(s0)
	sd	a4,0(a5)
	.loc 1 1035 12
	li	a5,-1
	slli	a5,a5,63
	addi	a5,a5,2
	j	.L122
.L121:
	.loc 1 1038 3
	ld	a5,-40(s0)
	ld	a5,0(a5)
	mv	a2,a5
	ld	a1,-48(s0)
	ld	a0,-24(s0)
	call	CopyMem
	.loc 1 1040 10
	li	a5,0
.L122:
	.loc 1 1041 1
	mv	a0,a5
	ld	ra,40(sp)
	.cfi_restore 1
	ld	s0,32(sp)
	.cfi_restore 8
	.cfi_def_cfa 2, 48
	addi	sp,sp,48
	.cfi_def_cfa_offset 0
	jr	ra
	.cfi_endproc
.LFE36:
	.size	LibPatchPcdSetPtrS, .-LibPatchPcdSetPtrS
	.section	.rodata
	.align	3
.LC13:
	.string	"SizeOfPatchVariable != ((void *) 0)"
	.section	.text.LibPatchPcdSetPtrAndSize,"ax",@progbits
	.align	1
	.globl	LibPatchPcdSetPtrAndSize
	.type	LibPatchPcdSetPtrAndSize, @function
LibPatchPcdSetPtrAndSize:
.LFB37:
	.loc 1 1078 1
	.cfi_startproc
	addi	sp,sp,-64
	.cfi_def_cfa_offset 64
	sd	ra,56(sp)
	sd	s0,48(sp)
	.cfi_offset 1, -8
	.cfi_offset 8, -16
	addi	s0,sp,64
	.cfi_def_cfa 8, 0
	sd	a0,-24(s0)
	sd	a1,-32(s0)
	sd	a2,-40(s0)
	sd	a3,-48(s0)
	sd	a4,-56(s0)
	.loc 1 1079 12
	call	DebugAssertEnabled
	mv	a5,a0
	.loc 1 1079 11
	beq	a5,zero,.L124
	.loc 1 1079 40 discriminator 1
	ld	a5,-24(s0)
	bne	a5,zero,.L124
	.loc 1 1079 77 discriminator 2
	lla	a2,.LC12
	li	a1,1079
	lla	a0,.LC2
	call	UnitTestDebugAssert
.L124:
	.loc 1 1080 12
	call	DebugAssertEnabled
	mv	a5,a0
	.loc 1 1080 11
	beq	a5,zero,.L125
	.loc 1 1080 40 discriminator 1
	ld	a5,-32(s0)
	bne	a5,zero,.L125
	.loc 1 1080 83 discriminator 2
	lla	a2,.LC13
	li	a1,1080
	lla	a0,.LC2
	call	UnitTestDebugAssert
.L125:
	.loc 1 1081 12
	call	DebugAssertEnabled
	mv	a5,a0
	.loc 1 1081 11
	beq	a5,zero,.L126
	.loc 1 1081 40 discriminator 1
	ld	a5,-48(s0)
	bne	a5,zero,.L126
	.loc 1 1081 76 discriminator 2
	lla	a2,.LC8
	li	a1,1081
	lla	a0,.LC2
	call	UnitTestDebugAssert
.L126:
	.loc 1 1083 7
	ld	a5,-48(s0)
	ld	a5,0(a5)
	.loc 1 1083 6
	beq	a5,zero,.L127
	.loc 1 1084 14
	call	DebugAssertEnabled
	mv	a5,a0
	.loc 1 1084 13
	beq	a5,zero,.L127
	.loc 1 1084 42 discriminator 1
	ld	a5,-56(s0)
	bne	a5,zero,.L127
	.loc 1 1084 72 discriminator 2
	lla	a2,.LC9
	li	a1,1084
	lla	a0,.LC2
	call	UnitTestDebugAssert
.L127:
	.loc 1 1087 8
	ld	a5,-48(s0)
	ld	a5,0(a5)
	.loc 1 1087 6
	ld	a4,-40(s0)
	bltu	a4,a5,.L128
	.loc 1 1088 8 discriminator 1
	ld	a5,-48(s0)
	ld	a4,0(a5)
	.loc 1 1087 42 discriminator 1
	li	a5,-1
	bne	a4,a5,.L129
.L128:
	.loc 1 1089 19
	ld	a5,-48(s0)
	ld	a4,-40(s0)
	sd	a4,0(a5)
	.loc 1 1090 12
	li	a5,0
	j	.L130
.L129:
	.loc 1 1093 3
	ld	a5,-48(s0)
	ld	a5,0(a5)
	mv	a2,a5
	ld	a1,-56(s0)
	ld	a0,-24(s0)
	call	CopyMem
	.loc 1 1094 26
	ld	a5,-48(s0)
	ld	a4,0(a5)
	.loc 1 1094 24
	ld	a5,-32(s0)
	sd	a4,0(a5)
	.loc 1 1096 10
	ld	a5,-56(s0)
.L130:
	.loc 1 1097 1
	mv	a0,a5
	ld	ra,56(sp)
	.cfi_restore 1
	ld	s0,48(sp)
	.cfi_restore 8
	.cfi_def_cfa 2, 64
	addi	sp,sp,64
	.cfi_def_cfa_offset 0
	jr	ra
	.cfi_endproc
.LFE37:
	.size	LibPatchPcdSetPtrAndSize, .-LibPatchPcdSetPtrAndSize
	.section	.text.LibPatchPcdSetPtrAndSizeS,"ax",@progbits
	.align	1
	.globl	LibPatchPcdSetPtrAndSizeS
	.type	LibPatchPcdSetPtrAndSizeS, @function
LibPatchPcdSetPtrAndSizeS:
.LFB38:
	.loc 1 1133 1
	.cfi_startproc
	addi	sp,sp,-64
	.cfi_def_cfa_offset 64
	sd	ra,56(sp)
	sd	s0,48(sp)
	.cfi_offset 1, -8
	.cfi_offset 8, -16
	addi	s0,sp,64
	.cfi_def_cfa 8, 0
	sd	a0,-24(s0)
	sd	a1,-32(s0)
	sd	a2,-40(s0)
	sd	a3,-48(s0)
	sd	a4,-56(s0)
	.loc 1 1134 12
	call	DebugAssertEnabled
	mv	a5,a0
	.loc 1 1134 11
	beq	a5,zero,.L132
	.loc 1 1134 40 discriminator 1
	ld	a5,-24(s0)
	bne	a5,zero,.L132
	.loc 1 1134 77 discriminator 2
	lla	a2,.LC12
	li	a1,1134
	lla	a0,.LC2
	call	UnitTestDebugAssert
.L132:
	.loc 1 1135 12
	call	DebugAssertEnabled
	mv	a5,a0
	.loc 1 1135 11
	beq	a5,zero,.L133
	.loc 1 1135 40 discriminator 1
	ld	a5,-32(s0)
	bne	a5,zero,.L133
	.loc 1 1135 83 discriminator 2
	lla	a2,.LC13
	li	a1,1135
	lla	a0,.LC2
	call	UnitTestDebugAssert
.L133:
	.loc 1 1136 12
	call	DebugAssertEnabled
	mv	a5,a0
	.loc 1 1136 11
	beq	a5,zero,.L134
	.loc 1 1136 40 discriminator 1
	ld	a5,-48(s0)
	bne	a5,zero,.L134
	.loc 1 1136 76 discriminator 2
	lla	a2,.LC8
	li	a1,1136
	lla	a0,.LC2
	call	UnitTestDebugAssert
.L134:
	.loc 1 1138 7
	ld	a5,-48(s0)
	ld	a5,0(a5)
	.loc 1 1138 6
	beq	a5,zero,.L135
	.loc 1 1139 14
	call	DebugAssertEnabled
	mv	a5,a0
	.loc 1 1139 13
	beq	a5,zero,.L135
	.loc 1 1139 42 discriminator 1
	ld	a5,-56(s0)
	bne	a5,zero,.L135
	.loc 1 1139 72 discriminator 2
	lla	a2,.LC9
	li	a1,1139
	lla	a0,.LC2
	call	UnitTestDebugAssert
.L135:
	.loc 1 1142 8
	ld	a5,-48(s0)
	ld	a5,0(a5)
	.loc 1 1142 6
	ld	a4,-40(s0)
	bltu	a4,a5,.L136
	.loc 1 1143 8 discriminator 1
	ld	a5,-48(s0)
	ld	a4,0(a5)
	.loc 1 1142 42 discriminator 1
	li	a5,-1
	bne	a4,a5,.L137
.L136:
	.loc 1 1144 19
	ld	a5,-48(s0)
	ld	a4,-40(s0)
	sd	a4,0(a5)
	.loc 1 1145 12
	li	a5,-1
	slli	a5,a5,63
	addi	a5,a5,2
	j	.L138
.L137:
	.loc 1 1148 3
	ld	a5,-48(s0)
	ld	a5,0(a5)
	mv	a2,a5
	ld	a1,-56(s0)
	ld	a0,-24(s0)
	call	CopyMem
	.loc 1 1149 26
	ld	a5,-48(s0)
	ld	a4,0(a5)
	.loc 1 1149 24
	ld	a5,-32(s0)
	sd	a4,0(a5)
	.loc 1 1151 10
	li	a5,0
.L138:
	.loc 1 1152 1
	mv	a0,a5
	ld	ra,56(sp)
	.cfi_restore 1
	ld	s0,48(sp)
	.cfi_restore 8
	.cfi_def_cfa 2, 64
	addi	sp,sp,64
	.cfi_def_cfa_offset 0
	jr	ra
	.cfi_endproc
.LFE38:
	.size	LibPatchPcdSetPtrAndSizeS, .-LibPatchPcdSetPtrAndSizeS
	.section	.text.LibPcdGetInfo,"ax",@progbits
	.align	1
	.globl	LibPcdGetInfo
	.type	LibPcdGetInfo, @function
LibPcdGetInfo:
.LFB39:
	.loc 1 1172 1
	.cfi_startproc
	addi	sp,sp,-48
	.cfi_def_cfa_offset 48
	sd	ra,40(sp)
	sd	s0,32(sp)
	.cfi_offset 1, -8
	.cfi_offset 8, -16
	addi	s0,sp,48
	.cfi_def_cfa 8, 0
	sd	a0,-40(s0)
	sd	a1,-48(s0)
	.loc 1 1175 12
	call	GetPcdInfoProtocolPointer
	mv	a5,a0
	.loc 1 1175 39
	ld	a5,0(a5)
	.loc 1 1175 12
	ld	a1,-48(s0)
	ld	a0,-40(s0)
	jalr	a5
.LVL35:
	sd	a0,-24(s0)
	.loc 1 1176 12
	call	DebugAssertEnabled
	mv	a5,a0
	.loc 1 1176 11
	beq	a5,zero,.L142
	.loc 1 1176 43 discriminator 1
	ld	a5,-24(s0)
	.loc 1 1176 40 discriminator 1
	bge	a5,zero,.L142
	.loc 1 1176 91 discriminator 2
	call	DebugPrintEnabled
	mv	a5,a0
	.loc 1 1176 90 discriminator 2
	beq	a5,zero,.L141
	.loc 1 1176 124 discriminator 3
	li	a5,1
	slli	a0,a5,31
	call	DebugPrintLevelEnabled
	mv	a5,a0
	.loc 1 1176 123 discriminator 3
	beq	a5,zero,.L141
	.loc 1 1176 163 discriminator 5
	ld	a2,-24(s0)
	lla	a1,.LC0
	li	a5,1
	slli	a0,a5,31
	call	DebugPrint
.L141:
	.loc 1 1176 296 discriminator 7
	lla	a2,.LC1
	li	a1,1176
	lla	a0,.LC2
	call	UnitTestDebugAssert
.L142:
	.loc 1 1177 1
	nop
	ld	ra,40(sp)
	.cfi_restore 1
	ld	s0,32(sp)
	.cfi_restore 8
	.cfi_def_cfa 2, 48
	addi	sp,sp,48
	.cfi_def_cfa_offset 0
	jr	ra
	.cfi_endproc
.LFE39:
	.size	LibPcdGetInfo, .-LibPcdGetInfo
	.section	.text.LibPcdGetInfoEx,"ax",@progbits
	.align	1
	.globl	LibPcdGetInfoEx
	.type	LibPcdGetInfoEx, @function
LibPcdGetInfoEx:
.LFB40:
	.loc 1 1199 1
	.cfi_startproc
	addi	sp,sp,-64
	.cfi_def_cfa_offset 64
	sd	ra,56(sp)
	sd	s0,48(sp)
	.cfi_offset 1, -8
	.cfi_offset 8, -16
	addi	s0,sp,64
	.cfi_def_cfa 8, 0
	sd	a0,-40(s0)
	sd	a1,-48(s0)
	sd	a2,-56(s0)
	.loc 1 1202 12
	call	GetPiPcdInfoProtocolPointer
	mv	a5,a0
	.loc 1 1202 41
	ld	a5,0(a5)
	.loc 1 1202 12
	ld	a2,-56(s0)
	ld	a1,-48(s0)
	ld	a0,-40(s0)
	jalr	a5
.LVL36:
	sd	a0,-24(s0)
	.loc 1 1203 12
	call	DebugAssertEnabled
	mv	a5,a0
	.loc 1 1203 11
	beq	a5,zero,.L146
	.loc 1 1203 43 discriminator 1
	ld	a5,-24(s0)
	.loc 1 1203 40 discriminator 1
	bge	a5,zero,.L146
	.loc 1 1203 91 discriminator 2
	call	DebugPrintEnabled
	mv	a5,a0
	.loc 1 1203 90 discriminator 2
	beq	a5,zero,.L145
	.loc 1 1203 124 discriminator 3
	li	a5,1
	slli	a0,a5,31
	call	DebugPrintLevelEnabled
	mv	a5,a0
	.loc 1 1203 123 discriminator 3
	beq	a5,zero,.L145
	.loc 1 1203 163 discriminator 5
	ld	a2,-24(s0)
	lla	a1,.LC0
	li	a5,1
	slli	a0,a5,31
	call	DebugPrint
.L145:
	.loc 1 1203 296 discriminator 7
	lla	a2,.LC1
	li	a1,1203
	lla	a0,.LC2
	call	UnitTestDebugAssert
.L146:
	.loc 1 1204 1
	nop
	ld	ra,56(sp)
	.cfi_restore 1
	ld	s0,48(sp)
	.cfi_restore 8
	.cfi_def_cfa 2, 64
	addi	sp,sp,64
	.cfi_def_cfa_offset 0
	jr	ra
	.cfi_endproc
.LFE40:
	.size	LibPcdGetInfoEx, .-LibPcdGetInfoEx
	.section	.text.LibPcdGetSku,"ax",@progbits
	.align	1
	.globl	LibPcdGetSku
	.type	LibPcdGetSku, @function
LibPcdGetSku:
.LFB41:
	.loc 1 1218 1
	.cfi_startproc
	addi	sp,sp,-16
	.cfi_def_cfa_offset 16
	sd	ra,8(sp)
	sd	s0,0(sp)
	.cfi_offset 1, -8
	.cfi_offset 8, -16
	addi	s0,sp,16
	.cfi_def_cfa 8, 0
	.loc 1 1219 10
	call	GetPiPcdInfoProtocolPointer
	mv	a5,a0
	.loc 1 1219 39
	ld	a5,8(a5)
	.loc 1 1219 10
	jalr	a5
.LVL37:
	mv	a5,a0
	.loc 1 1220 1
	mv	a0,a5
	ld	ra,8(sp)
	.cfi_restore 1
	ld	s0,0(sp)
	.cfi_restore 8
	.cfi_def_cfa 2, 16
	addi	sp,sp,16
	.cfi_def_cfa_offset 0
	jr	ra
	.cfi_endproc
.LFE41:
	.size	LibPcdGetSku, .-LibPcdGetSku
	.text
.Letext0:
	.file 2 "/home/xephyr/Documents/edk2/MdePkg/Include/RiscV64/ProcessorBind.h"
	.file 3 "/home/xephyr/Documents/edk2/MdePkg/Include/Base.h"
	.file 4 "/home/xephyr/Documents/edk2/MdePkg/Include/Uefi/UefiBaseType.h"
	.file 5 "/home/xephyr/Documents/edk2/MdePkg/Include/Uefi/UefiMultiPhase.h"
	.file 6 "/home/xephyr/Documents/edk2/MdePkg/Include/Guid/WinCertificate.h"
	.file 7 "/home/xephyr/Documents/edk2/MdePkg/Include/Guid/PcAnsi.h"
	.file 8 "/home/xephyr/Documents/edk2/MdePkg/Include/Protocol/DevicePath.h"
	.file 9 "/home/xephyr/Documents/edk2/MdePkg/Include/Protocol/SimpleTextIn.h"
	.file 10 "/home/xephyr/Documents/edk2/MdePkg/Include/Protocol/SimpleTextInEx.h"
	.file 11 "/home/xephyr/Documents/edk2/MdePkg/Include/Protocol/SimpleTextOut.h"
	.file 12 "/home/xephyr/Documents/edk2/MdePkg/Include/Uefi/UefiSpec.h"
	.file 13 "/home/xephyr/Documents/edk2/MdePkg/Include/Guid/HiiFormMapMethodGuid.h"
	.file 14 "/home/xephyr/Documents/edk2/MdePkg/Include/Protocol/DebugSupport.h"
	.file 15 "/home/xephyr/Documents/edk2/MdePkg/Include/Pi/PiMultiPhase.h"
	.file 16 "/home/xephyr/Documents/edk2/Build/Mde/DEBUG_GCC5/RISCV64/MdePkg/Library/DxePcdLib/DxePcdLib/DEBUG/AutoGen.h"
	.file 17 "/home/xephyr/Documents/edk2/MdePkg/Include/Protocol/Pcd.h"
	.file 18 "/home/xephyr/Documents/edk2/MdePkg/Include/Protocol/PiPcd.h"
	.file 19 "/home/xephyr/Documents/edk2/MdePkg/Include/Protocol/PcdInfo.h"
	.file 20 "/home/xephyr/Documents/edk2/MdePkg/Include/Protocol/PiPcdInfo.h"
	.file 21 "/home/xephyr/Documents/edk2/MdePkg/Include/Library/PcdLib.h"
	.file 22 "/home/xephyr/Documents/edk2/MdePkg/Include/Library/UefiBootServicesTableLib.h"