	.file	"PeCoffGetEntryPoint.c"
	.option nopic
	.option norelax
	.attribute arch, "rv64i2p0_m2p0_a2p0_f2p0_d2p0_c2p0"
	.attribute unaligned_access, 0
	.attribute stack_align, 16
	.text
.Ltext0:
	.cfi_sections	.debug_frame
	.section	.rodata
	.align	3
.LC0:
	.string	"Pe32Data != ((void *) 0)"
	.align	3
.LC1:
	.string	"/home/xephyr/Documents/edk2/MdePkg/Library/BasePeCoffGetEntryPointLib/PeCoffGetEntryPoint.c"
	.align	3
.LC2:
	.string	"EntryPoint != ((void *) 0)"
	.section	.text.PeCoffLoaderGetEntryPoint,"ax",@progbits
	.align	1
	.globl	PeCoffLoaderGetEntryPoint
	.type	PeCoffLoaderGetEntryPoint, @function
PeCoffLoaderGetEntryPoint:
.LFB0:
	.file 1 "/home/xephyr/Documents/edk2/MdePkg/Library/BasePeCoffGetEntryPointLib/PeCoffGetEntryPoint.c"
	.loc 1 44 1
	.cfi_startproc
	addi	sp,sp,-48
	.cfi_def_cfa_offset 48
	sd	ra,40(sp)
	sd	s0,32(sp)
	.cfi_offset 1, -8
	.cfi_offset 8, -16
	addi	s0,sp,48
	.cfi_def_cfa 8, 0
	sd	a0,-40(s0)
	sd	a1,-48(s0)
	.loc 1 48 12
	call	DebugAssertEnabled
	mv	a5,a0
	.loc 1 48 11
	beq	a5,zero,.L2
	.loc 1 48 40 discriminator 1
	ld	a5,-40(s0)
	bne	a5,zero,.L2
	.loc 1 48 72 discriminator 2
	lla	a2,.LC0
	li	a1,48
	lla	a0,.LC1
	call	UnitTestDebugAssert
.L2:
	.loc 1 49 12
	call	DebugAssertEnabled
	mv	a5,a0
	.loc 1 49 11
	beq	a5,zero,.L3
	.loc 1 49 40 discriminator 1
	ld	a5,-48(s0)
	bne	a5,zero,.L3
	.loc 1 49 74 discriminator 2
	lla	a2,.LC2
	li	a1,49
	lla	a0,.LC1
	call	UnitTestDebugAssert
.L3:
	.loc 1 51 10
	ld	a5,-40(s0)
	sd	a5,-24(s0)
	.loc 1 52 13
	ld	a5,-24(s0)
	lhu	a5,0(a5)
	.loc 1 52 6
	sext.w	a4,a5
	li	a5,24576
	addi	a5,a5,-1459
	bne	a4,a5,.L4
	.loc 1 56 78
	ld	a5,-24(s0)
	lw	a5,60(a5)
	.loc 1 56 90
	slli	a4,a5,32
	srli	a4,a4,32
	.loc 1 56 62
	li	a5,65536
	addi	a5,a5,-1
	and	a4,a4,a5
	.loc 1 56 43
	ld	a5,-40(s0)
	.loc 1 56 60
	add	a5,a4,a5
	.loc 1 56 14
	sd	a5,-32(s0)
	j	.L5
.L4:
	.loc 1 61 14
	ld	a5,-40(s0)
	sd	a5,-32(s0)
.L5:
	.loc 1 68 10
	ld	a5,-32(s0)
	.loc 1 68 13
	lhu	a5,0(a5)
	.loc 1 68 6
	sext.w	a4,a5
	li	a5,24576
	addi	a5,a5,-1450
	bne	a4,a5,.L6
	.loc 1 69 57
	ld	a5,-32(s0)
	.loc 1 69 60
	lw	a5,8(a5)
	.loc 1 69 46
	slli	a4,a5,32
	srli	a4,a4,32
	.loc 1 69 28
	ld	a5,-40(s0)
	.loc 1 69 44
	add	a5,a4,a5
	.loc 1 69 132
	ld	a4,-32(s0)
	.loc 1 69 135
	lhu	a4,6(a4)
	.loc 1 69 127
	sub	a5,a5,a4
	addi	a5,a5,40
	.loc 1 69 19
	mv	a4,a5
	.loc 1 69 17
	ld	a5,-48(s0)
	sd	a4,0(a5)
	.loc 1 70 12
	li	a5,0
	j	.L9
.L6:
	.loc 1 71 17
	ld	a5,-32(s0)
	.loc 1 71 22
	lw	a5,0(a5)
	.loc 1 71 13
	mv	a4,a5
	li	a5,16384
	addi	a5,a5,1360
	bne	a4,a5,.L8
	.loc 1 72 57
	ld	a5,-32(s0)
	.loc 1 72 78
	lw	a5,40(a5)
	.loc 1 72 46
	slli	a4,a5,32
	srli	a4,a4,32
	.loc 1 72 28
	ld	a5,-40(s0)
	.loc 1 72 44
	add	a5,a4,a5
	.loc 1 72 19
	mv	a4,a5
	.loc 1 72 17
	ld	a5,-48(s0)
	sd	a4,0(a5)
	.loc 1 73 12
	li	a5,0
	j	.L9
.L8:
	.loc 1 76 10
	li	a5,-1
	slli	a5,a5,63
	addi	a5,a5,3
.L9:
	.loc 1 77 1 discriminator 1
	mv	a0,a5
	ld	ra,40(sp)
	.cfi_restore 1
	ld	s0,32(sp)
	.cfi_restore 8
	.cfi_def_cfa 2, 48
	addi	sp,sp,48
	.cfi_def_cfa_offset 0
	jr	ra
	.cfi_endproc
.LFE0:
	.size	PeCoffLoaderGetEntryPoint, .-PeCoffLoaderGetEntryPoint
	.section	.text.PeCoffLoaderGetMachineType,"ax",@progbits
	.align	1
	.globl	PeCoffLoaderGetMachineType
	.type	PeCoffLoaderGetMachineType, @function
PeCoffLoaderGetMachineType:
.LFB1:
	.loc 1 97 1
	.cfi_startproc
	addi	sp,sp,-48
	.cfi_def_cfa_offset 48
	sd	ra,40(sp)
	sd	s0,32(sp)
	.cfi_offset 1, -8
	.cfi_offset 8, -16
	addi	s0,sp,48
	.cfi_def_cfa 8, 0
	sd	a0,-40(s0)
	.loc 1 101 12
	call	DebugAssertEnabled
	mv	a5,a0
	.loc 1 101 11
	beq	a5,zero,.L11
	.loc 1 101 40 discriminator 1
	ld	a5,-40(s0)
	bne	a5,zero,.L11
	.loc 1 101 72 discriminator 2
	lla	a2,.LC0
	li	a1,101
	lla	a0,.LC1
	call	UnitTestDebugAssert
.L11:
	.loc 1 103 10
	ld	a5,-40(s0)
	sd	a5,-24(s0)
	.loc 1 104 13
	ld	a5,-24(s0)
	lhu	a5,0(a5)
	.loc 1 104 6
	sext.w	a4,a5
	li	a5,24576
	addi	a5,a5,-1459
	bne	a4,a5,.L12
	.loc 1 108 78
	ld	a5,-24(s0)
	lw	a5,60(a5)
	.loc 1 108 90
	slli	a4,a5,32
	srli	a4,a4,32
	.loc 1 108 62
	li	a5,65536
	addi	a5,a5,-1
	and	a4,a4,a5
	.loc 1 108 43
	ld	a5,-40(s0)
	.loc 1 108 60
	add	a5,a4,a5
	.loc 1 108 14
	sd	a5,-32(s0)
	j	.L13
.L12:
	.loc 1 113 14
	ld	a5,-40(s0)
	sd	a5,-32(s0)
.L13:
	.loc 1 116 10
	ld	a5,-32(s0)
	.loc 1 116 13
	lhu	a5,0(a5)
	.loc 1 116 6
	sext.w	a4,a5
	li	a5,24576
	addi	a5,a5,-1450
	bne	a4,a5,.L14
	.loc 1 117 15
	ld	a5,-32(s0)
	.loc 1 117 18
	lhu	a5,2(a5)
	j	.L17
.L14:
	.loc 1 118 17
	ld	a5,-32(s0)
	.loc 1 118 22
	lw	a5,0(a5)
	.loc 1 118 13
	mv	a4,a5
	li	a5,16384
	addi	a5,a5,1360
	bne	a4,a5,.L16
	.loc 1 119 15
	ld	a5,-32(s0)
	.loc 1 119 32
	lhu	a5,4(a5)
	j	.L17
.L16:
	.loc 1 122 10
	li	a5,0
.L17:
	.loc 1 123 1 discriminator 1
	mv	a0,a5
	ld	ra,40(sp)
	.cfi_restore 1
	ld	s0,32(sp)
	.cfi_restore 8
	.cfi_def_cfa 2, 48
	addi	sp,sp,48
	.cfi_def_cfa_offset 0
	jr	ra
	.cfi_endproc
.LFE1:
	.size	PeCoffLoaderGetMachineType, .-PeCoffLoaderGetMachineType
	.section	.text.PeCoffLoaderGetPdbPointer,"ax",@progbits
	.align	1
	.globl	PeCoffLoaderGetPdbPointer
	.type	PeCoffLoaderGetPdbPointer, @function
PeCoffLoaderGetPdbPointer:
.LFB2:
	.loc 1 149 1
	.cfi_startproc
	addi	sp,sp,-96
	.cfi_def_cfa_offset 96
	sd	ra,88(sp)
	sd	s0,80(sp)
	.cfi_offset 1, -8
	.cfi_offset 8, -16
	addi	s0,sp,96
	.cfi_def_cfa 8, 0
	sd	a0,-88(s0)
	.loc 1 160 12
	call	DebugAssertEnabled
	mv	a5,a0
	.loc 1 160 11
	beq	a5,zero,.L19
	.loc 1 160 40 discriminator 1
	ld	a5,-88(s0)
	bne	a5,zero,.L19
	.loc 1 160 72 discriminator 2
	lla	a2,.LC0
	li	a1,160
	lla	a0,.LC1
	call	UnitTestDebugAssert
.L19:
	.loc 1 162 17
	sd	zero,-48(s0)
	.loc 1 163 18
	sd	zero,-24(s0)
	.loc 1 164 14
	sd	zero,-32(s0)
	.loc 1 165 23
	sw	zero,-52(s0)
	.loc 1 167 10
	ld	a5,-88(s0)
	sd	a5,-64(s0)
	.loc 1 168 13
	ld	a5,-64(s0)
	lhu	a5,0(a5)
	.loc 1 168 6
	sext.w	a4,a5
	li	a5,24576
	addi	a5,a5,-1459
	bne	a4,a5,.L20
	.loc 1 172 78
	ld	a5,-64(s0)
	lw	a5,60(a5)
	.loc 1 172 90
	slli	a4,a5,32
	srli	a4,a4,32
	.loc 1 172 62
	li	a5,65536
	addi	a5,a5,-1
	and	a4,a4,a5
	.loc 1 172 43
	ld	a5,-88(s0)
	.loc 1 172 60
	add	a5,a4,a5
	.loc 1 172 14
	sd	a5,-80(s0)
	j	.L21
.L20:
	.loc 1 177 14
	ld	a5,-88(s0)
	sd	a5,-80(s0)
.L21:
	.loc 1 180 10
	ld	a5,-80(s0)
	.loc 1 180 13
	lhu	a5,0(a5)
	.loc 1 180 6
	sext.w	a4,a5
	li	a5,24576
	addi	a5,a5,-1450
	bne	a4,a5,.L22
	.loc 1 181 12
	ld	a5,-80(s0)
	.loc 1 181 33
	lw	a5,32(a5)
	.loc 1 181 8
	beq	a5,zero,.L23
	.loc 1 182 28
	ld	a5,-80(s0)
	.loc 1 182 22
	addi	a5,a5,32
	sd	a5,-24(s0)
	.loc 1 183 57
	ld	a5,-80(s0)
	.loc 1 183 60
	lhu	a5,6(a5)
	mv	a4,a5
	.loc 1 183 52
	li	a5,40
	sub	a5,a5,a4
	.loc 1 183 21
	sd	a5,-48(s0)
	.loc 1 184 67
	ld	a5,-80(s0)
	.loc 1 184 56
	mv	a4,a5
	.loc 1 185 24
	ld	a5,-80(s0)
	.loc 1 185 45
	lw	a5,32(a5)
	slli	a5,a5,32
	srli	a5,a5,32
	.loc 1 184 71
	add	a4,a4,a5
	.loc 1 185 61
	ld	a5,-48(s0)
	add	a5,a4,a5
	.loc 1 184 18
	sd	a5,-32(s0)
	j	.L23
.L22:
	.loc 1 188 17
	ld	a5,-80(s0)
	.loc 1 188 22
	lw	a5,0(a5)
	.loc 1 188 13
	mv	a4,a5
	li	a5,16384
	addi	a5,a5,1360
	bne	a4,a5,.L24
	.loc 1 194 16
	ld	a5,-80(s0)
	.loc 1 194 33
	lhu	a5,4(a5)
	sext.w	a5,a5
	.loc 1 194 5
	mv	a3,a5
	li	a4,32768
	addi	a4,a4,1636
	beq	a3,a4,.L25
	mv	a3,a5
	li	a4,32768
	addi	a4,a4,1636
	bgt	a3,a4,.L26
	mv	a3,a5
	li	a4,332
	beq	a3,a4,.L27
	mv	a4,a5
	li	a5,512
	beq	a4,a5,.L25
	j	.L26
.L27:
	.loc 1 199 13
	li	a5,267
	sh	a5,-54(s0)
	.loc 1 200 7
	j	.L28
.L25:
	.loc 1 206 13
	li	a5,523
	sh	a5,-54(s0)
	.loc 1 207 7
	j	.L28
.L26:
	.loc 1 212 18
	ld	a5,-80(s0)
	.loc 1 212 13
	lhu	a5,24(a5)
	sh	a5,-54(s0)
.L28:
	.loc 1 215 8
	lhu	a5,-54(s0)
	sext.w	a4,a5
	li	a5,267
	bne	a4,a5,.L29
	.loc 1 219 32
	ld	a5,-80(s0)
	.loc 1 219 27
	lw	a5,116(a5)
	sw	a5,-52(s0)
	.loc 1 220 57
	ld	a5,-80(s0)
	.loc 1 220 22
	addi	a5,a5,168
	sd	a5,-24(s0)
	.loc 1 221 90
	ld	a5,-24(s0)
	lw	a5,0(a5)
	slli	a4,a5,32
	srli	a4,a4,32
	.loc 1 221 57
	ld	a5,-88(s0)
	.loc 1 221 74
	add	a5,a4,a5
	.loc 1 221 18
	sd	a5,-32(s0)
	j	.L30
.L29:
	.loc 1 222 19
	ld	a5,-80(s0)
	.loc 1 222 40
	lhu	a5,24(a5)
	.loc 1 222 15
	sext.w	a4,a5
	li	a5,523
	bne	a4,a5,.L30
	.loc 1 226 32
	ld	a5,-80(s0)
	.loc 1 226 27
	lw	a5,132(a5)
	sw	a5,-52(s0)
	.loc 1 227 57
	ld	a5,-80(s0)
	.loc 1 227 22
	addi	a5,a5,184
	sd	a5,-24(s0)
	.loc 1 228 90
	ld	a5,-24(s0)
	lw	a5,0(a5)
	slli	a4,a5,32
	srli	a4,a4,32
	.loc 1 228 57
	ld	a5,-88(s0)
	.loc 1 228 74
	add	a5,a4,a5
	.loc 1 228 18
	sd	a5,-32(s0)
.L30:
	.loc 1 231 8
	lw	a5,-52(s0)
	sext.w	a4,a5
	li	a5,6
	bgtu	a4,a5,.L23
	.loc 1 232 22
	sd	zero,-24(s0)
	.loc 1 233 18
	sd	zero,-32(s0)
	j	.L23
.L24:
	.loc 1 236 12
	li	a5,0
	j	.L41
.L23:
	.loc 1 239 6
	ld	a5,-32(s0)
	beq	a5,zero,.L32
	.loc 1 239 34 discriminator 1
	ld	a5,-24(s0)
	bne	a5,zero,.L33
.L32:
	.loc 1 240 12
	li	a5,0
	j	.L41
.L33:
	.loc 1 246 17
	sd	zero,-40(s0)
	.loc 1 246 3
	j	.L34
.L40:
	.loc 1 247 19
	ld	a5,-32(s0)
	lw	a5,12(a5)
	.loc 1 247 8
	mv	a4,a5
	li	a5,2
	bne	a4,a5,.L42
	.loc 1 248 21
	ld	a5,-32(s0)
	lw	a5,16(a5)
	.loc 1 248 10
	beq	a5,zero,.L42
	.loc 1 249 60
	ld	a5,-32(s0)
	lw	a5,20(a5)
	.loc 1 249 42
	slli	a4,a5,32
	srli	a4,a4,32
	.loc 1 249 69
	ld	a5,-88(s0)
	.loc 1 249 66
	add	a4,a4,a5
	.loc 1 249 88
	ld	a5,-48(s0)
	.loc 1 249 86
	add	a5,a4,a5
	.loc 1 249 30
	sd	a5,-72(s0)
	.loc 1 250 17
	ld	a5,-72(s0)
	lw	a5,0(a5)
	.loc 1 250 9
	mv	a3,a5
	li	a4,1396985856
	addi	a4,a4,850
	beq	a3,a4,.L36
	mv	a3,a5
	li	a4,1396985856
	addi	a4,a4,850
	bgtu	a3,a4,.L43
	mv	a3,a5
	li	a4,808534016
	addi	a4,a4,590
	beq	a3,a4,.L38
	mv	a4,a5
	li	a5,1129271296
	addi	a5,a5,1101
	beq	a4,a5,.L39
	.loc 1 258 11
	j	.L43
.L38:
	.loc 1 252 18
	ld	a5,-72(s0)
	addi	a5,a5,16
	j	.L41
.L36:
	.loc 1 254 18
	ld	a5,-72(s0)
	addi	a5,a5,24
	j	.L41
.L39:
	.loc 1 256 18
	ld	a5,-72(s0)
	addi	a5,a5,20
	j	.L41
.L42:
	.loc 1 260 7
	nop
	j	.L35
.L43:
	.loc 1 258 11
	nop
.L35:
	.loc 1 246 64 discriminator 2
	ld	a5,-40(s0)
	addi	a5,a5,28
	sd	a5,-40(s0)
	.loc 1 246 119 discriminator 2
	ld	a5,-32(s0)
	addi	a5,a5,28
	sd	a5,-32(s0)
.L34:
	.loc 1 246 47 discriminator 1
	ld	a5,-24(s0)
	lw	a5,4(a5)
	slli	a5,a5,32
	srli	a5,a5,32
	.loc 1 246 3 discriminator 1
	ld	a4,-40(s0)
	bltu	a4,a5,.L40
	.loc 1 264 10
	li	a5,0
.L41:
	.loc 1 265 1 discriminator 1
	mv	a0,a5
	ld	ra,88(sp)
	.cfi_restore 1
	ld	s0,80(sp)
	.cfi_restore 8
	.cfi_def_cfa 2, 96
	addi	sp,sp,96
	.cfi_def_cfa_offset 0
	jr	ra
	.cfi_endproc
.LFE2:
	.size	PeCoffLoaderGetPdbPointer, .-PeCoffLoaderGetPdbPointer
	.section	.text.PeCoffGetSizeOfHeaders,"ax",@progbits
	.align	1
	.globl	PeCoffGetSizeOfHeaders
	.type	PeCoffGetSizeOfHeaders, @function
PeCoffGetSizeOfHeaders:
.LFB3:
	.loc 1 284 1
	.cfi_startproc
	addi	sp,sp,-64
	.cfi_def_cfa_offset 64
	sd	ra,56(sp)
	sd	s0,48(sp)
	.cfi_offset 1, -8
	.cfi_offset 8, -16
	addi	s0,sp,64
	.cfi_def_cfa 8, 0
	sd	a0,-56(s0)
	.loc 1 289 12
	call	DebugAssertEnabled
	mv	a5,a0
	.loc 1 289 11
	beq	a5,zero,.L45
	.loc 1 289 40 discriminator 1
	ld	a5,-56(s0)
	bne	a5,zero,.L45
	.loc 1 289 72 discriminator 2
	lla	a2,.LC0
	li	a1,289
	lla	a0,.LC1
	call	UnitTestDebugAssert
.L45:
	.loc 1 291 10
	ld	a5,-56(s0)
	sd	a5,-32(s0)
	.loc 1 292 13
	ld	a5,-32(s0)
	lhu	a5,0(a5)
	.loc 1 292 6
	sext.w	a4,a5
	li	a5,24576
	addi	a5,a5,-1459
	bne	a4,a5,.L46
	.loc 1 296 78
	ld	a5,-32(s0)
	lw	a5,60(a5)
	.loc 1 296 90
	slli	a4,a5,32
	srli	a4,a4,32
	.loc 1 296 62
	li	a5,65536
	addi	a5,a5,-1
	and	a4,a4,a5
	.loc 1 296 43
	ld	a5,-56(s0)
	.loc 1 296 60
	add	a5,a4,a5
	.loc 1 296 14
	sd	a5,-40(s0)
	j	.L47
.L46:
	.loc 1 301 14
	ld	a5,-56(s0)
	sd	a5,-40(s0)
.L47:
	.loc 1 304 10
	ld	a5,-40(s0)
	.loc 1 304 13
	lhu	a5,0(a5)
	.loc 1 304 6
	sext.w	a4,a5
	li	a5,24576
	addi	a5,a5,-1450
	bne	a4,a5,.L48
	.loc 1 305 62
	ld	a5,-40(s0)
	.loc 1 305 65
	lw	a5,12(a5)
	.loc 1 305 52
	slli	a5,a5,32
	srli	a5,a5,32
	.loc 1 305 90
	ld	a4,-40(s0)
	.loc 1 305 93
	lhu	a4,6(a4)
	.loc 1 305 78
	sub	a5,a5,a4
	.loc 1 305 19
	addi	a5,a5,40
	sd	a5,-24(s0)
	j	.L49
.L48:
	.loc 1 306 17
	ld	a5,-40(s0)
	.loc 1 306 22
	lw	a5,0(a5)
	.loc 1 306 13
	mv	a4,a5
	li	a5,16384
	addi	a5,a5,1360
	bne	a4,a5,.L50
	.loc 1 307 24
	ld	a5,-40(s0)
	.loc 1 307 45
	lw	a5,84(a5)
	.loc 1 307 19
	slli	a5,a5,32
	srli	a5,a5,32
	sd	a5,-24(s0)
	j	.L49
.L50:
	.loc 1 309 19
	sd	zero,-24(s0)
.L49:
	.loc 1 312 10
	ld	a5,-24(s0)
	sext.w	a5,a5
	.loc 1 313 1
	mv	a0,a5
	ld	ra,56(sp)
	.cfi_restore 1
	ld	s0,48(sp)
	.cfi_restore 8
	.cfi_def_cfa 2, 64
	addi	sp,sp,64
	.cfi_def_cfa_offset 0
	jr	ra
	.cfi_endproc
.LFE3:
	.size	PeCoffGetSizeOfHeaders, .-PeCoffGetSizeOfHeaders
	.section	.text.PeCoffSearchImageBase,"ax",@progbits
	.align	1
	.globl	PeCoffSearchImageBase
	.type	PeCoffSearchImageBase, @function
PeCoffSearchImageBase:
.LFB4:
	.loc 1 332 1
	.cfi_startproc
	addi	sp,sp,-64
	.cfi_def_cfa_offset 64
	sd	ra,56(sp)
	sd	s0,48(sp)
	.cfi_offset 1, -8
	.cfi_offset 8, -16
	addi	s0,sp,64
	.cfi_def_cfa 8, 0
	sd	a0,-56(s0)
	.loc 1 335 12
	sd	zero,-24(s0)
	.loc 1 337 12
	call	DebugCodeEnabled
	mv	a5,a0
	.loc 1 337 11
	beq	a5,zero,.L53
.LBB2:
	.loc 1 337 139 discriminator 1
	ld	a5,-56(s0)
	andi	a5,a5,-4
	sd	a5,-24(s0)
	.loc 1 337 167 discriminator 1
	j	.L54
.L58:
	.loc 1 337 192 discriminator 22
	ld	a5,-24(s0)
	sd	a5,-32(s0)
	.loc 1 337 239 discriminator 22
	ld	a5,-32(s0)
	lhu	a5,0(a5)
	.loc 1 337 232 discriminator 22
	sext.w	a4,a5
	li	a5,24576
	addi	a5,a5,-1459
	bne	a4,a5,.L55
	.loc 1 337 341 discriminator 3
	ld	a5,-32(s0)
	lw	a5,60(a5)
	.loc 1 337 353 discriminator 3
	slli	a4,a5,32
	srli	a4,a4,32
	.loc 1 337 325 discriminator 3
	li	a5,65536
	addi	a5,a5,-1
	and	a4,a4,a5
	.loc 1 337 323 discriminator 3
	ld	a5,-24(s0)
	add	a5,a4,a5
	.loc 1 337 285 discriminator 3
	sd	a5,-48(s0)
	.loc 1 337 381 discriminator 3
	ld	a5,-48(s0)
	.loc 1 337 371 discriminator 3
	mv	a4,a5
	.loc 1 337 369 discriminator 3
	ld	a5,-24(s0)
	bgeu	a5,a4,.L56
	.loc 1 337 413 discriminator 5
	ld	a5,-48(s0)
	.loc 1 337 403 discriminator 5
	mv	a4,a5
	.loc 1 337 399 discriminator 5
	ld	a5,-56(s0)
	bleu	a5,a4,.L56
	.loc 1 337 440 discriminator 6
	ld	a5,-48(s0)
	.loc 1 337 445 discriminator 6
	lw	a5,0(a5)
	.loc 1 337 436 discriminator 6
	mv	a4,a5
	li	a5,16384
	addi	a5,a5,1360
	bne	a4,a5,.L56
	.loc 1 337 3
	j	.L57
.L55:
	.loc 1 337 550 discriminator 4
	ld	a5,-24(s0)
	.loc 1 337 548 discriminator 4
	sd	a5,-48(s0)
	.loc 1 337 594 discriminator 4
	ld	a5,-48(s0)
	.loc 1 337 597 discriminator 4
	lhu	a5,0(a5)
	.loc 1 337 589 discriminator 4
	sext.w	a4,a5
	li	a5,24576
	addi	a5,a5,-1450
	bne	a4,a5,.L56
	.loc 1 337 642 discriminator 7
	ld	a5,-48(s0)
	.loc 1 337 645 discriminator 7
	lhu	a5,2(a5)
	.loc 1 337 634 discriminator 7
	sext.w	a4,a5
	li	a5,332
	beq	a4,a5,.L57
	.loc 1 337 673 discriminator 10
	ld	a5,-48(s0)
	.loc 1 337 676 discriminator 10
	lhu	a5,2(a5)
	.loc 1 337 666 discriminator 10
	sext.w	a4,a5
	li	a5,512
	beq	a4,a5,.L57
	.loc 1 337 704 discriminator 12
	ld	a5,-48(s0)
	.loc 1 337 707 discriminator 12
	lhu	a5,2(a5)
	.loc 1 337 697 discriminator 12
	sext.w	a4,a5
	li	a5,4096
	addi	a5,a5,-324
	beq	a4,a5,.L57
	.loc 1 337 735 discriminator 14
	ld	a5,-48(s0)
	.loc 1 337 738 discriminator 14
	lhu	a5,2(a5)
	.loc 1 337 728 discriminator 14
	sext.w	a4,a5
	li	a5,32768
	addi	a5,a5,1636
	beq	a4,a5,.L57
	.loc 1 337 766 discriminator 16
	ld	a5,-48(s0)
	.loc 1 337 769 discriminator 16
	lhu	a5,2(a5)
	.loc 1 337 759 discriminator 16
	sext.w	a4,a5
	li	a5,45056
	addi	a5,a5,-1436
	beq	a4,a5,.L57
	.loc 1 337 797 discriminator 18
	ld	a5,-48(s0)
	.loc 1 337 800 discriminator 18
	lhu	a5,2(a5)
	.loc 1 337 790 discriminator 18
	sext.w	a4,a5
	li	a5,450
	beq	a4,a5,.L57
.L56:
	.loc 1 337 846 discriminator 20
	ld	a5,-24(s0)
	addi	a5,a5,-4
	sd	a5,-24(s0)
.L54:
	.loc 1 337 167 discriminator 21
	ld	a5,-24(s0)
	bne	a5,zero,.L58
.L57:
	.loc 1 337 871 discriminator 23
	sb	zero,-33(s0)
	.loc 1 337 892 discriminator 23
	lbu	a5,-33(s0)
	addiw	a5,a5,1
	sb	a5,-33(s0)
.L53:
.LBE2:
	.loc 1 381 10
	ld	a5,-24(s0)
	.loc 1 382 1
	mv	a0,a5
	ld	ra,56(sp)
	.cfi_restore 1
	ld	s0,48(sp)
	.cfi_restore 8
	.cfi_def_cfa 2, 64
	addi	sp,sp,64
	.cfi_def_cfa_offset 0
	jr	ra
	.cfi_endproc
.LFE4:
	.size	PeCoffSearchImageBase, .-PeCoffSearchImageBase
	.text
.Letext0:
	.file 2 "/home/xephyr/Documents/edk2/MdePkg/Include/RiscV64/ProcessorBind.h"
	.file 3 "/home/xephyr/Documents/edk2/MdePkg/Include/Base.h"
	.file 4 "/home/xephyr/Documents/edk2/Build/Mde/DEBUG_GCC5/RISCV64/MdePkg/Library/BasePeCoffGetEntryPointLib/BasePeCoffGetEntryPointLib/DEBUG/AutoGen.h"
	.file 5 "/home/xephyr/Documents/edk2/MdePkg/Include/IndustryStandard/PeImage.h"