	.file	"HstiDxe.c"
	.option nopic
	.option norelax
	.attribute arch, "rv64i2p0_m2p0_a2p0_f2p0_d2p0_c2p0"
	.attribute unaligned_access, 0
	.attribute stack_align, 16
	.text
.Ltext0:
	.cfi_sections	.debug_frame
	.section	.text.InternalHstiFindAip,"ax",@progbits
	.align	1
	.globl	InternalHstiFindAip
	.type	InternalHstiFindAip, @function
InternalHstiFindAip:
.LFB0:
	.file 1 "/home/xephyr/Documents/edk2/MdePkg/Library/DxeHstiLib/HstiDxe.c"
	.loc 1 33 1
	.cfi_startproc
	addi	sp,sp,-144
	.cfi_def_cfa_offset 144
	sd	ra,136(sp)
	sd	s0,128(sp)
	.cfi_offset 1, -8
	.cfi_offset 8, -16
	addi	s0,sp,144
	.cfi_def_cfa 8, 0
	mv	a5,a0
	sd	a1,-128(s0)
	sd	a2,-136(s0)
	sd	a3,-144(s0)
	sw	a5,-116(s0)
	.loc 1 47 15
	lla	a5,gBS
	ld	a5,0(a5)
	ld	a6,312(a5)
	.loc 1 47 12
	addi	a4,s0,-80
	addi	a5,s0,-72
	mv	a3,a5
	li	a2,0
	lla	a1,gEfiAdapterInformationProtocolGuid
	li	a0,2
	jalr	a6
.LVL0:
	sd	a0,-56(s0)
	.loc 1 54 9
	ld	a5,-56(s0)
	.loc 1 54 6
	bge	a5,zero,.L2
	.loc 1 55 12
	li	a5,0
	j	.L21
.L2:
	.loc 1 58 8
	sd	zero,-48(s0)
	.loc 1 59 7
	sd	zero,-64(s0)
	.loc 1 60 20
	sd	zero,-104(s0)
	.loc 1 61 24
	sd	zero,-112(s0)
	.loc 1 62 14
	sd	zero,-24(s0)
	.loc 1 62 3
	j	.L4
.L17:
	.loc 1 63 17
	lla	a5,gBS
	ld	a5,0(a5)
	ld	a3,152(a5)
	.loc 1 64 28
	ld	a4,-80(s0)
	ld	a5,-24(s0)
	slli	a5,a5,3
	add	a5,a4,a5
	.loc 1 63 14
	ld	a5,0(a5)
	addi	a4,s0,-64
	mv	a2,a4
	lla	a1,gEfiAdapterInformationProtocolGuid
	mv	a0,a5
	jalr	a3
.LVL1:
	sd	a0,-56(s0)
	.loc 1 68 11
	ld	a5,-56(s0)
	.loc 1 68 8
	blt	a5,zero,.L22
	.loc 1 75 17
	ld	a5,-64(s0)
	ld	a6,16(a5)
	.loc 1 75 14
	ld	a5,-64(s0)
	addi	a3,s0,-96
	addi	a4,s0,-88
	mv	a2,a3
	mv	a1,a4
	mv	a0,a5
	jalr	a6
.LVL2:
	sd	a0,-56(s0)
	.loc 1 80 11
	ld	a5,-56(s0)
	.loc 1 80 8
	blt	a5,zero,.L23
	.loc 1 80 67 discriminator 1
	ld	a5,-88(s0)
	.loc 1 80 47 discriminator 1
	beq	a5,zero,.L23
	.loc 1 80 109 discriminator 2
	ld	a5,-96(s0)
	.loc 1 80 84 discriminator 2
	beq	a5,zero,.L23
	.loc 1 84 18
	sd	zero,-40(s0)
	.loc 1 85 25
	sd	zero,-32(s0)
	.loc 1 85 5
	j	.L9
.L12:
	.loc 1 86 11
	ld	a4,-88(s0)
	.loc 1 86 40
	ld	a5,-32(s0)
	slli	a5,a5,4
	.loc 1 86 24
	add	a5,a4,a5
	.loc 1 86 11
	lla	a1,gAdapterInfoPlatformSecurityGuid
	mv	a0,a5
	call	CompareGuid
	mv	a5,a0
	.loc 1 86 10
	beq	a5,zero,.L10
	.loc 1 87 22
	ld	a5,-64(s0)
	sd	a5,-40(s0)
	.loc 1 88 9
	j	.L11
.L10:
	.loc 1 85 83 discriminator 2
	ld	a5,-32(s0)
	addi	a5,a5,1
	sd	a5,-32(s0)
.L9:
	.loc 1 85 45 discriminator 1
	ld	a5,-96(s0)
	.loc 1 85 5 discriminator 1
	ld	a4,-32(s0)
	bltu	a4,a5,.L12
.L11:
	.loc 1 91 5
	ld	a5,-88(s0)
	mv	a0,a5
	call	FreePool
	.loc 1 93 8
	ld	a5,-40(s0)
	beq	a5,zero,.L24
	.loc 1 100 9
	ld	a5,-40(s0)
	sd	a5,-64(s0)
	.loc 1 101 17
	ld	a5,-64(s0)
	ld	a6,0(a5)
	.loc 1 101 14
	ld	a5,-64(s0)
	addi	a3,s0,-112
	addi	a4,s0,-104
	mv	a2,a4
	lla	a1,gAdapterInfoPlatformSecurityGuid
	mv	a0,a5
	jalr	a6
.LVL3:
	sd	a0,-56(s0)
	.loc 1 107 11
	ld	a5,-56(s0)
	.loc 1 107 8
	blt	a5,zero,.L25
	.loc 1 111 10
	ld	a5,-104(s0)
	sd	a5,-48(s0)
	.loc 1 112 14
	ld	a5,-48(s0)
	lbu	a4,4(a5)
	lbu	a3,5(a5)
	slli	a3,a3,8
	or	a4,a3,a4
	lbu	a3,6(a5)
	slli	a3,a3,16
	or	a4,a3,a4
	lbu	a5,7(a5)
	slli	a5,a5,24
	or	a5,a5,a4
	sext.w	a4,a5
	.loc 1 112 8
	lw	a5,-116(s0)
	sext.w	a5,a5
	bne	a5,a4,.L15
	.loc 1 112 30 discriminator 1
	ld	a5,-128(s0)
	beq	a5,zero,.L16
	.loc 1 113 79
	ld	a5,-48(s0)
	addi	a5,a5,8
	.loc 1 113 49
	mv	a1,a5
	ld	a0,-128(s0)
	call	StrCmp
	mv	a5,a0
	.loc 1 113 45
	beq	a5,zero,.L16
.L15:
	.loc 1 116 12
	sd	zero,-48(s0)
	.loc 1 117 7
	ld	a5,-104(s0)
	mv	a0,a5
	call	FreePool
	.loc 1 118 7
	j	.L6
.L22:
	.loc 1 69 7
	nop
	j	.L6
.L23:
	.loc 1 81 7
	nop
	j	.L6
.L24:
	.loc 1 94 7
	nop
	j	.L6
.L25:
	.loc 1 108 7
	nop
.L6:
	.loc 1 62 43 discriminator 2
	ld	a5,-24(s0)
	addi	a5,a5,1
	sd	a5,-24(s0)
.L4:
	.loc 1 62 25 discriminator 1
	ld	a5,-72(s0)
	.loc 1 62 3 discriminator 1
	ld	a4,-24(s0)
	bltu	a4,a5,.L17
.L16:
	.loc 1 121 3
	ld	a5,-80(s0)
	mv	a0,a5
	call	FreePool
	.loc 1 123 6
	ld	a5,-48(s0)
	bne	a5,zero,.L18
	.loc 1 124 12
	li	a5,0
	j	.L21
.L18:
	.loc 1 127 6
	ld	a5,-136(s0)
	beq	a5,zero,.L19
	.loc 1 128 15
	ld	a4,-104(s0)
	ld	a5,-136(s0)
	sd	a4,0(a5)
.L19:
	.loc 1 130 6
	ld	a5,-144(s0)
	beq	a5,zero,.L20
	.loc 1 131 15
	ld	a4,-112(s0)
	ld	a5,-144(s0)
	sd	a4,0(a5)
.L20:
	.loc 1 133 10
	ld	a5,-64(s0)
.L21:
	.loc 1 134 1 discriminator 1
	mv	a0,a5
	ld	ra,136(sp)
	.cfi_restore 1
	ld	s0,128(sp)
	.cfi_restore 8
	.cfi_def_cfa 2, 144
	addi	sp,sp,144
	.cfi_def_cfa_offset 0
	jr	ra
	.cfi_endproc
.LFE0:
	.size	InternalHstiFindAip, .-InternalHstiFindAip
	.section	.rodata
	.align	3
.LC0:
	.string	"HstiData == NULL\n"
	.align	3
.LC1:
	.string	"HstiSize < sizeof(ADAPTER_INFO_PLATFORM_SECURITY)\n"
	.align	3
.LC2:
	.string	"((HstiSize - sizeof(ADAPTER_INFO_PLATFORM_SECURITY)) / 3) < SecurityFeaturesSize\n"
	.align	3
.LC3:
	.string	"Version != PLATFORM_SECURITY_VERSION_VNEXTCS\n"
	.align	3
.LC4:
	.string	"Role < PLATFORM_SECURITY_ROLE_PLATFORM_REFERENCE ||\n"
	.align	3
.LC5:
	.string	"Role > PLATFORM_SECURITY_ROLE_IMPLEMENTOR_ODM\n"
	.align	3
.LC6:
	.string	"ImplementationID has no NUL CHAR\n"
	.align	3
.LC7:
	.string	"ErrorStringSize == 0\n"
	.align	3
.LC8:
	.string	"(ErrorStringSize & BIT0) != 0\n"
	.align	3
.LC9:
	.string	"ErrorString has no NUL CHAR\n"
	.align	3
.LC10:
	.string	"ErrorString Length incorrect\n"
	.section	.text.InternalHstiIsValidTable,"ax",@progbits
	.align	1
	.globl	InternalHstiIsValidTable
	.type	InternalHstiIsValidTable, @function
InternalHstiIsValidTable:
.LFB1:
	.loc 1 150 1
	.cfi_startproc
	addi	sp,sp,-80
	.cfi_def_cfa_offset 80
	sd	ra,72(sp)
	sd	s0,64(sp)
	.cfi_offset 1, -8
	.cfi_offset 8, -16
	addi	s0,sp,80
	.cfi_def_cfa 8, 0
	sd	a0,-72(s0)
	sd	a1,-80(s0)
	.loc 1 158 8
	ld	a5,-72(s0)
	sd	a5,-48(s0)
	.loc 1 163 6
	ld	a5,-72(s0)
	bne	a5,zero,.L27
	.loc 1 164 14
	call	DebugPrintEnabled
	mv	a5,a0
	.loc 1 164 13
	beq	a5,zero,.L28
	.loc 1 164 47 discriminator 1
	li	a5,1
	slli	a0,a5,31
	call	DebugPrintLevelEnabled
	mv	a5,a0
	.loc 1 164 46 discriminator 1
	beq	a5,zero,.L28
	.loc 1 164 86 discriminator 2
	lla	a1,.LC0
	li	a5,1
	slli	a0,a5,31
	call	DebugPrint
.L28:
	.loc 1 165 12
	li	a5,0
	j	.L57
.L27:
	.loc 1 167 6
	ld	a4,-80(s0)
	li	a5,523
	bgtu	a4,a5,.L30
	.loc 1 168 14
	call	DebugPrintEnabled
	mv	a5,a0
	.loc 1 168 13
	beq	a5,zero,.L31
	.loc 1 168 47 discriminator 1
	li	a5,1
	slli	a0,a5,31
	call	DebugPrintLevelEnabled
	mv	a5,a0
	.loc 1 168 46 discriminator 1
	beq	a5,zero,.L31
	.loc 1 168 86 discriminator 2
	lla	a1,.LC1
	li	a5,1
	slli	a0,a5,31
	call	DebugPrint
.L31:
	.loc 1 169 12
	li	a5,0
	j	.L57
.L30:
	.loc 1 171 18
	ld	a5,-80(s0)
	addi	a4,a5,-524
	.loc 1 171 60
	li	a5,3
	divu	a4,a4,a5
	.loc 1 171 71
	ld	a5,-48(s0)
	lbu	a3,520(a5)
	lbu	a2,521(a5)
	slli	a2,a2,8
	or	a3,a2,a3
	lbu	a2,522(a5)
	slli	a2,a2,16
	or	a3,a2,a3
	lbu	a5,523(a5)
	slli	a5,a5,24
	or	a5,a5,a3
	sext.w	a5,a5
	slli	a5,a5,32
	srli	a5,a5,32
	.loc 1 171 6
	bgeu	a4,a5,.L32
	.loc 1 172 14
	call	DebugPrintEnabled
	mv	a5,a0
	.loc 1 172 13
	beq	a5,zero,.L33
	.loc 1 172 47 discriminator 1
	li	a5,1
	slli	a0,a5,31
	call	DebugPrintLevelEnabled
	mv	a5,a0
	.loc 1 172 46 discriminator 1
	beq	a5,zero,.L33
	.loc 1 172 86 discriminator 2
	lla	a1,.LC2
	li	a5,1
	slli	a0,a5,31
	call	DebugPrint
.L33:
	.loc 1 173 12
	li	a5,0
	j	.L57
.L32:
	.loc 1 179 11
	ld	a5,-48(s0)
	lbu	a4,0(a5)
	lbu	a3,1(a5)
	slli	a3,a3,8
	or	a4,a3,a4
	lbu	a3,2(a5)
	slli	a3,a3,16
	or	a4,a3,a4
	lbu	a5,3(a5)
	slli	a5,a5,24
	or	a5,a5,a4
	sext.w	a5,a5
	.loc 1 179 6
	mv	a4,a5
	li	a5,3
	beq	a4,a5,.L34
	.loc 1 180 14
	call	DebugPrintEnabled
	mv	a5,a0
	.loc 1 180 13
	beq	a5,zero,.L35
	.loc 1 180 47 discriminator 1
	li	a5,1
	slli	a0,a5,31
	call	DebugPrintLevelEnabled
	mv	a5,a0
	.loc 1 180 46 discriminator 1
	beq	a5,zero,.L35
	.loc 1 180 86 discriminator 2
	lla	a1,.LC3
	li	a5,1
	slli	a0,a5,31
	call	DebugPrint
.L35:
	.loc 1 181 12
	li	a5,0
	j	.L57
.L34:
	.loc 1 187 12
	ld	a5,-48(s0)
	lbu	a4,4(a5)
	lbu	a3,5(a5)
	slli	a3,a3,8
	or	a4,a3,a4
	lbu	a3,6(a5)
	slli	a3,a3,16
	or	a4,a3,a4
	lbu	a5,7(a5)
	slli	a5,a5,24
	or	a5,a5,a4
	sext.w	a5,a5
	.loc 1 187 6
	beq	a5,zero,.L36
	.loc 1 188 12 discriminator 1
	ld	a5,-48(s0)
	lbu	a4,4(a5)
	lbu	a3,5(a5)
	slli	a3,a3,8
	or	a4,a3,a4
	lbu	a3,6(a5)
	slli	a3,a3,16
	or	a4,a3,a4
	lbu	a5,7(a5)
	slli	a5,a5,24
	or	a5,a5,a4
	sext.w	a5,a5
	.loc 1 187 33 discriminator 1
	mv	a4,a5
	li	a5,4
	bleu	a4,a5,.L37
.L36:
	.loc 1 189 14
	call	DebugPrintEnabled
	mv	a5,a0
	.loc 1 189 13
	beq	a5,zero,.L38
	.loc 1 189 47 discriminator 1
	li	a5,1
	slli	a0,a5,31
	call	DebugPrintLevelEnabled
	mv	a5,a0
	.loc 1 189 46 discriminator 1
	beq	a5,zero,.L38
	.loc 1 189 86 discriminator 2
	lla	a1,.LC4
	li	a5,1
	slli	a0,a5,31
	call	DebugPrint
.L38:
	.loc 1 190 14
	call	DebugPrintEnabled
	mv	a5,a0
	.loc 1 190 13
	beq	a5,zero,.L39
	.loc 1 190 47 discriminator 1
	li	a5,1
	slli	a0,a5,31
	call	DebugPrintLevelEnabled
	mv	a5,a0
	.loc 1 190 46 discriminator 1
	beq	a5,zero,.L39
	.loc 1 190 86 discriminator 2
	lla	a1,.LC5
	li	a5,1
	slli	a0,a5,31
	call	DebugPrint
.L39:
	.loc 1 191 12
	li	a5,0
	j	.L57
.L37:
	.loc 1 197 14
	sd	zero,-24(s0)
	.loc 1 197 3
	j	.L40
.L43:
	.loc 1 198 31
	ld	a4,-48(s0)
	ld	a5,-24(s0)
	slli	a5,a5,1
	add	a5,a4,a5
	lbu	a4,8(a5)
	lbu	a5,9(a5)
	slli	a5,a5,8
	or	a5,a5,a4
	slli	a5,a5,48
	srli	a5,a5,48
	.loc 1 198 8
	beq	a5,zero,.L58
	.loc 1 197 98 discriminator 2
	ld	a5,-24(s0)
	addi	a5,a5,1
	sd	a5,-24(s0)
.L40:
	.loc 1 197 3 discriminator 1
	ld	a4,-24(s0)
	li	a5,255
	bleu	a4,a5,.L43
	j	.L42
.L58:
	.loc 1 199 7
	nop
.L42:
	.loc 1 202 6
	ld	a4,-24(s0)
	li	a5,256
	bne	a4,a5,.L44
	.loc 1 203 14
	call	DebugPrintEnabled
	mv	a5,a0
	.loc 1 203 13
	beq	a5,zero,.L45
	.loc 1 203 47 discriminator 1
	li	a5,1
	slli	a0,a5,31
	call	DebugPrintLevelEnabled
	mv	a5,a0
	.loc 1 203 46 discriminator 1
	beq	a5,zero,.L45
	.loc 1 203 86 discriminator 2
	lla	a1,.LC6
	li	a5,1
	slli	a0,a5,31
	call	DebugPrint
.L45:
	.loc 1 204 12
	li	a5,0
	j	.L57
.L44:
	.loc 1 207 77
	ld	a5,-48(s0)
	lbu	a4,520(a5)
	lbu	a3,521(a5)
	slli	a3,a3,8
	or	a4,a3,a4
	lbu	a3,522(a5)
	slli	a3,a3,16
	or	a4,a3,a4
	lbu	a5,523(a5)
	slli	a5,a5,24
	or	a5,a5,a4
	sext.w	a5,a5
	.loc 1 207 100
	mv	a4,a5
	mv	a5,a4
	slliw	a5,a5,1
	addw	a5,a5,a4
	sext.w	a5,a5
	slli	a5,a5,32
	srli	a5,a5,32
	.loc 1 207 71
	ld	a4,-80(s0)
	sub	a5,a4,a5
	.loc 1 207 19
	addi	a5,a5,-524
	sd	a5,-56(s0)
	.loc 1 208 87
	ld	a5,-48(s0)
	lbu	a4,520(a5)
	lbu	a3,521(a5)
	slli	a3,a3,8
	or	a4,a3,a4
	lbu	a3,522(a5)
	slli	a3,a3,16
	or	a4,a3,a4
	lbu	a5,523(a5)
	slli	a5,a5,24
	or	a5,a5,a4
	sext.w	a5,a5
	.loc 1 208 110
	mv	a4,a5
	mv	a5,a4
	slliw	a5,a5,1
	addw	a5,a5,a4
	sext.w	a5,a5
	slli	a4,a5,32
	srli	a4,a4,32
	.loc 1 208 28
	ld	a5,-48(s0)
	.loc 1 208 81
	add	a5,a4,a5
	addi	a5,a5,524
	.loc 1 208 15
	sd	a5,-32(s0)
	.loc 1 213 6
	ld	a5,-56(s0)
	bne	a5,zero,.L46
	.loc 1 214 14
	call	DebugPrintEnabled
	mv	a5,a0
	.loc 1 214 13
	beq	a5,zero,.L47
	.loc 1 214 47 discriminator 1
	li	a5,1
	slli	a0,a5,31
	call	DebugPrintLevelEnabled
	mv	a5,a0
	.loc 1 214 46 discriminator 1
	beq	a5,zero,.L47
	.loc 1 214 86 discriminator 2
	lla	a1,.LC7
	li	a5,1
	slli	a0,a5,31
	call	DebugPrint
.L47:
	.loc 1 215 12
	li	a5,0
	j	.L57
.L46:
	.loc 1 217 24
	ld	a5,-56(s0)
	andi	a5,a5,1
	.loc 1 217 6
	beq	a5,zero,.L48
	.loc 1 218 14
	call	DebugPrintEnabled
	mv	a5,a0
	.loc 1 218 13
	beq	a5,zero,.L49
	.loc 1 218 47 discriminator 1
	li	a5,1
	slli	a0,a5,31
	call	DebugPrintLevelEnabled
	mv	a5,a0
	.loc 1 218 46 discriminator 1
	beq	a5,zero,.L49
	.loc 1 218 86 discriminator 2
	lla	a1,.LC8
	li	a5,1
	slli	a0,a5,31
	call	DebugPrint
.L49:
	.loc 1 219 12
	li	a5,0
	j	.L57
.L48:
	.loc 1 225 3
	addi	a5,s0,-58
	li	a2,2
	ld	a1,-32(s0)
	mv	a0,a5
	call	CopyMem
	.loc 1 226 26
	sd	zero,-40(s0)
	.loc 1 226 3
	j	.L50
.L52:
	.loc 1 227 16 discriminator 4
	ld	a5,-32(s0)
	addi	a5,a5,2
	sd	a5,-32(s0)
	.loc 1 228 5 discriminator 4
	addi	a5,s0,-58
	li	a2,2
	ld	a1,-32(s0)
	mv	a0,a5
	call	CopyMem
	.loc 1 226 111 discriminator 4
	ld	a5,-40(s0)
	addi	a5,a5,1
	sd	a5,-40(s0)
.L50:
	.loc 1 226 42 discriminator 1
	lhu	a5,-58(s0)
	.loc 1 226 3 discriminator 1
	beq	a5,zero,.L51
	.loc 1 226 88 discriminator 3
	ld	a5,-56(s0)
	srli	a5,a5,1
	.loc 1 226 48 discriminator 3
	ld	a4,-40(s0)
	bltu	a4,a5,.L52
.L51:
	.loc 1 234 17
	lhu	a5,-58(s0)
	.loc 1 234 6
	beq	a5,zero,.L53
	.loc 1 235 14
	call	DebugPrintEnabled
	mv	a5,a0
	.loc 1 235 13
	beq	a5,zero,.L54
	.loc 1 235 47 discriminator 1
	li	a5,1
	slli	a0,a5,31
	call	DebugPrintLevelEnabled
	mv	a5,a0
	.loc 1 235 46 discriminator 1
	beq	a5,zero,.L54
	.loc 1 235 86 discriminator 2
	lla	a1,.LC9
	li	a5,1
	slli	a0,a5,31
	call	DebugPrint
.L54:
	.loc 1 236 12
	li	a5,0
	j	.L57
.L53:
	.loc 1 238 44
	ld	a5,-56(s0)
	srli	a5,a5,1
	.loc 1 238 6
	ld	a4,-40(s0)
	bne	a4,a5,.L55
	.loc 1 239 14
	call	DebugPrintEnabled
	mv	a5,a0
	.loc 1 239 13
	beq	a5,zero,.L56
	.loc 1 239 47 discriminator 1
	li	a5,1
	slli	a0,a5,31
	call	DebugPrintLevelEnabled
	mv	a5,a0
	.loc 1 239 46 discriminator 1
	beq	a5,zero,.L56
	.loc 1 239 86 discriminator 2
	lla	a1,.LC10
	li	a5,1
	slli	a0,a5,31
	call	DebugPrint
.L56:
	.loc 1 240 12
	li	a5,0
	j	.L57
.L55:
	.loc 1 243 10
	li	a5,1
.L57:
	.loc 1 244 1 discriminator 1
	mv	a0,a5
	ld	ra,72(sp)
	.cfi_restore 1
	ld	s0,64(sp)
	.cfi_restore 8
	.cfi_def_cfa 2, 80
	addi	sp,sp,80
	.cfi_def_cfa_offset 0
	jr	ra
	.cfi_endproc
.LFE1:
	.size	InternalHstiIsValidTable, .-InternalHstiIsValidTable
	.section	.text.HstiLibSetTable,"ax",@progbits
	.align	1
	.globl	HstiLibSetTable
	.type	HstiLibSetTable, @function
HstiLibSetTable:
.LFB2:
	.loc 1 268 1
	.cfi_startproc
	addi	sp,sp,-96
	.cfi_def_cfa_offset 96
	sd	ra,88(sp)
	sd	s0,80(sp)
	.cfi_offset 1, -8
	.cfi_offset 8, -16
	addi	s0,sp,96
	.cfi_def_cfa 8, 0
	sd	a0,-88(s0)
	sd	a1,-96(s0)
	.loc 1 278 8
	ld	a1,-96(s0)
	ld	a0,-88(s0)
	call	InternalHstiIsValidTable
	mv	a5,a0
	.loc 1 278 6
	bne	a5,zero,.L60
	.loc 1 279 12
	li	a5,-1
	slli	a5,a5,63
	addi	a5,a5,10
	j	.L67
.L60:
	.loc 1 282 8
	ld	a5,-88(s0)
	lbu	a4,4(a5)
	lbu	a3,5(a5)
	slli	a3,a3,8
	or	a4,a3,a4
	lbu	a3,6(a5)
	slli	a3,a3,16
	or	a4,a3,a4
	lbu	a5,7(a5)
	slli	a5,a5,24
	or	a5,a5,a4
	sw	a5,-20(s0)
	.loc 1 283 20
	ld	a5,-88(s0)
	addi	a5,a5,8
	sd	a5,-32(s0)
	.loc 1 284 9
	lw	a5,-20(s0)
	li	a3,0
	li	a2,0
	ld	a1,-32(s0)
	mv	a0,a5
	call	InternalHstiFindAip
	sd	a0,-40(s0)
	.loc 1 285 6
	ld	a5,-40(s0)
	beq	a5,zero,.L62
	.loc 1 286 12
	li	a5,-1
	slli	a5,a5,63
	addi	a5,a5,20
	j	.L67
.L62:
	.loc 1 289 13
	li	a0,72
	call	AllocateZeroPool
	sd	a0,-48(s0)
	.loc 1 290 6
	ld	a5,-48(s0)
	bne	a5,zero,.L63
	.loc 1 291 12
	li	a5,-1
	slli	a5,a5,63
	addi	a5,a5,9
	j	.L67
.L63:
	.loc 1 293 19
	ld	a1,-88(s0)
	ld	a0,-96(s0)
	call	AllocateCopyPool
	mv	a4,a0
	.loc 1 293 17
	ld	a5,-48(s0)
	sd	a4,48(a5)
	.loc 1 294 14
	ld	a5,-48(s0)
	ld	a5,48(a5)
	.loc 1 294 6
	bne	a5,zero,.L64
	.loc 1 295 5
	ld	a0,-48(s0)
	call	FreePool
	.loc 1 296 12
	li	a5,-1
	slli	a5,a5,63
	addi	a5,a5,9
	j	.L67
.L64:
	.loc 1 298 6
	lw	a5,-20(s0)
	sext.w	a4,a5
	li	a5,1
	beq	a4,a5,.L65
	.loc 1 299 48
	ld	a5,-48(s0)
	ld	a5,48(a5)
	.loc 1 299 30
	addi	a5,a5,524
	sd	a5,-56(s0)
	.loc 1 300 26
	ld	a5,-88(s0)
	lbu	a4,520(a5)
	lbu	a3,521(a5)
	slli	a3,a3,8
	or	a4,a3,a4
	lbu	a3,522(a5)
	slli	a3,a3,16
	or	a4,a3,a4
	lbu	a5,523(a5)
	slli	a5,a5,24
	or	a5,a5,a4
	sw	a5,-60(s0)
	.loc 1 301 5
	lwu	a5,-60(s0)
	mv	a1,a5
	ld	a0,-56(s0)
	call	ZeroMem
.L65:
	.loc 1 304 22
	ld	a5,-48(s0)
	li	a4,1230262272
	addi	a4,a4,840
	sw	a4,0(a5)
	.loc 1 305 12
	ld	a5,-48(s0)
	addi	a5,a5,24
	.loc 1 305 3
	li	a2,24
	lla	a1,mAdapterInformationProtocol
	mv	a0,a5
	call	CopyMem
	.loc 1 306 21
	ld	a5,-48(s0)
	ld	a4,-96(s0)
	sd	a4,56(a5)
	.loc 1 307 24
	ld	a5,-48(s0)
	ld	a4,-96(s0)
	sd	a4,64(a5)
	.loc 1 309 10
	sd	zero,-80(s0)
	.loc 1 310 15
	lla	a5,gBS
	ld	a5,0(a5)
	ld	a6,328(a5)
	.loc 1 310 12
	ld	a5,-48(s0)
	addi	a4,a5,24
	addi	a5,s0,-80
	li	a3,0
	mv	a2,a4
	lla	a1,gEfiAdapterInformationProtocolGuid
	mv	a0,a5
	jalr	a6
.LVL4:
	sd	a0,-72(s0)
	.loc 1 316 9
	ld	a5,-72(s0)
	.loc 1 316 6
	bge	a5,zero,.L66
	.loc 1 317 5
	ld	a5,-48(s0)
	ld	a5,48(a5)
	mv	a0,a5
	call	FreePool
	.loc 1 318 5
	ld	a0,-48(s0)
	call	FreePool
.L66:
	.loc 1 321 10
	ld	a5,-72(s0)
.L67:
	.loc 1 322 1 discriminator 1
	mv	a0,a5
	ld	ra,88(sp)
	.cfi_restore 1
	ld	s0,80(sp)
	.cfi_restore 8
	.cfi_def_cfa 2, 96
	addi	sp,sp,96
	.cfi_def_cfa_offset 0
	jr	ra
	.cfi_endproc
.LFE2:
	.size	HstiLibSetTable, .-HstiLibSetTable
	.section	.text.HstiLibGetTable,"ax",@progbits
	.align	1
	.globl	HstiLibGetTable
	.type	HstiLibGetTable, @function
HstiLibGetTable:
.LFB3:
	.loc 1 348 1
	.cfi_startproc
	addi	sp,sp,-64
	.cfi_def_cfa_offset 64
	sd	ra,56(sp)
	sd	s0,48(sp)
	.cfi_offset 1, -8
	.cfi_offset 8, -16
	addi	s0,sp,64
	.cfi_def_cfa 8, 0
	mv	a5,a0
	sd	a1,-48(s0)
	sd	a2,-56(s0)
	sd	a3,-64(s0)
	sw	a5,-36(s0)
	.loc 1 351 9
	lw	a5,-36(s0)
	ld	a3,-64(s0)
	ld	a2,-56(s0)
	ld	a1,-48(s0)
	mv	a0,a5
	call	InternalHstiFindAip
	sd	a0,-24(s0)
	.loc 1 352 6
	ld	a5,-24(s0)
	bne	a5,zero,.L69
	.loc 1 353 12
	li	a5,-1
	slli	a5,a5,63
	addi	a5,a5,14
	j	.L70
.L69:
	.loc 1 355 10
	li	a5,0
.L70:
	.loc 1 356 1
	mv	a0,a5
	ld	ra,56(sp)
	.cfi_restore 1
	ld	s0,48(sp)
	.cfi_restore 8
	.cfi_def_cfa 2, 64
	addi	sp,sp,64
	.cfi_def_cfa_offset 0
	jr	ra
	.cfi_endproc
.LFE3:
	.size	HstiLibGetTable, .-HstiLibGetTable
	.section	.text.InternalHstiRecordFeaturesVerified,"ax",@progbits
	.align	1
	.globl	InternalHstiRecordFeaturesVerified
	.type	InternalHstiRecordFeaturesVerified, @function
InternalHstiRecordFeaturesVerified:
.LFB4:
	.loc 1 383 1
	.cfi_startproc
	addi	sp,sp,-96
	.cfi_def_cfa_offset 96
	sd	ra,88(sp)
	sd	s0,80(sp)
	.cfi_offset 1, -8
	.cfi_offset 8, -16
	addi	s0,sp,96
	.cfi_def_cfa 8, 0
	mv	a5,a0
	sd	a1,-80(s0)
	sw	a5,-68(s0)
	mv	a5,a2
	sw	a5,-72(s0)
	mv	a5,a3
	sb	a5,-81(s0)
	mv	a5,a4
	sb	a5,-82(s0)
	.loc 1 390 9
	addi	a3,s0,-56
	addi	a4,s0,-48
	lw	a5,-68(s0)
	mv	a2,a4
	ld	a1,-80(s0)
	mv	a0,a5
	call	InternalHstiFindAip
	sd	a0,-24(s0)
	.loc 1 391 6
	ld	a5,-24(s0)
	bne	a5,zero,.L72
	.loc 1 392 12
	li	a5,-1
	slli	a5,a5,63
	addi	a5,a5,19
	j	.L77
.L72:
	.loc 1 395 24
	ld	a5,-48(s0)
	lbu	a4,520(a5)
	lbu	a3,521(a5)
	slli	a3,a3,8
	or	a4,a3,a4
	lbu	a3,522(a5)
	slli	a3,a3,16
	or	a4,a3,a4
	lbu	a5,523(a5)
	slli	a5,a5,24
	or	a5,a5,a4
	sext.w	a4,a5
	.loc 1 395 6
	lw	a5,-72(s0)
	sext.w	a5,a5
	bltu	a5,a4,.L74
	.loc 1 396 12
	li	a5,-1
	slli	a5,a5,63
	addi	a5,a5,3
	j	.L77
.L74:
	.loc 1 399 99
	ld	a5,-48(s0)
	lbu	a4,520(a5)
	lbu	a3,521(a5)
	slli	a3,a3,8
	or	a4,a3,a4
	lbu	a3,522(a5)
	slli	a3,a3,16
	or	a4,a3,a4
	lbu	a5,523(a5)
	slli	a5,a5,24
	or	a5,a5,a4
	sext.w	a5,a5
	.loc 1 399 122
	slliw	a5,a5,1
	sext.w	a5,a5
	slli	a5,a5,32
	srli	a5,a5,32
	.loc 1 399 40
	ld	a4,-48(s0)
	.loc 1 399 93
	add	a5,a5,a4
	addi	a5,a5,524
	.loc 1 399 28
	sd	a5,-32(s0)
	.loc 1 401 6
	lbu	a5,-82(s0)
	andi	a5,a5,0xff
	beq	a5,zero,.L75
	.loc 1 402 75
	lwu	a5,-72(s0)
	ld	a4,-32(s0)
	add	a5,a4,a5
	lbu	a3,0(a5)
	.loc 1 402 29
	lwu	a5,-72(s0)
	ld	a4,-32(s0)
	add	a5,a4,a5
	.loc 1 402 43
	lbu	a4,-81(s0)
	or	a4,a3,a4
	andi	a4,a4,0xff
	.loc 1 402 41
	sb	a4,0(a5)
	j	.L76
.L75:
	.loc 1 404 75
	lwu	a5,-72(s0)
	ld	a4,-32(s0)
	add	a5,a4,a5
	lbu	a5,0(a5)
	slliw	a4,a5,24
	sraiw	a4,a4,24
	.loc 1 404 87
	lb	a5,-81(s0)
	not	a5,a5
	slliw	a5,a5,24
	sraiw	a5,a5,24
	and	a5,a4,a5
	slliw	a3,a5,24
	sraiw	a3,a3,24
	.loc 1 404 29
	lwu	a5,-72(s0)
	ld	a4,-32(s0)
	add	a5,a4,a5
	.loc 1 404 43
	andi	a4,a3,0xff
	.loc 1 404 41
	sb	a4,0(a5)
.L76:
	.loc 1 407 15
	ld	a5,-24(s0)
	ld	a6,8(a5)
	.loc 1 407 12
	ld	a5,-48(s0)
	ld	a4,-56(s0)
	mv	a3,a4
	mv	a2,a5
	lla	a1,gAdapterInfoPlatformSecurityGuid
	ld	a0,-24(s0)
	jalr	a6
.LVL5:
	sd	a0,-40(s0)
	.loc 1 413 3
	ld	a5,-48(s0)
	mv	a0,a5
	call	FreePool
	.loc 1 414 10
	ld	a5,-40(s0)
.L77:
	.loc 1 415 1 discriminator 1
	mv	a0,a5
	ld	ra,88(sp)
	.cfi_restore 1
	ld	s0,80(sp)
	.cfi_restore 8
	.cfi_def_cfa 2, 96
	addi	sp,sp,96
	.cfi_def_cfa_offset 0
	jr	ra
	.cfi_endproc
.LFE4:
	.size	InternalHstiRecordFeaturesVerified, .-InternalHstiRecordFeaturesVerified
	.section	.text.HstiLibSetFeaturesVerified,"ax",@progbits
	.align	1
	.globl	HstiLibSetFeaturesVerified
	.type	HstiLibSetFeaturesVerified, @function
HstiLibSetFeaturesVerified:
.LFB5:
	.loc 1 440 1
	.cfi_startproc
	addi	sp,sp,-48
	.cfi_def_cfa_offset 48
	sd	ra,40(sp)
	sd	s0,32(sp)
	.cfi_offset 1, -8
	.cfi_offset 8, -16
	addi	s0,sp,48
	.cfi_def_cfa 8, 0
	mv	a5,a0
	sd	a1,-32(s0)
	mv	a4,a3
	sw	a5,-20(s0)
	mv	a5,a2
	sw	a5,-24(s0)
	mv	a5,a4
	sb	a5,-33(s0)
	.loc 1 441 10
	lbu	a3,-33(s0)
	lw	a2,-24(s0)
	lw	a5,-20(s0)
	li	a4,1
	ld	a1,-32(s0)
	mv	a0,a5
	call	InternalHstiRecordFeaturesVerified
	mv	a5,a0
	.loc 1 448 1
	mv	a0,a5
	ld	ra,40(sp)
	.cfi_restore 1
	ld	s0,32(sp)
	.cfi_restore 8
	.cfi_def_cfa 2, 48
	addi	sp,sp,48
	.cfi_def_cfa_offset 0
	jr	ra
	.cfi_endproc
.LFE5:
	.size	HstiLibSetFeaturesVerified, .-HstiLibSetFeaturesVerified
	.section	.text.HstiLibClearFeaturesVerified,"ax",@progbits
	.align	1
	.globl	HstiLibClearFeaturesVerified
	.type	HstiLibClearFeaturesVerified, @function
HstiLibClearFeaturesVerified:
.LFB6:
	.loc 1 473 1
	.cfi_startproc
	addi	sp,sp,-48
	.cfi_def_cfa_offset 48
	sd	ra,40(sp)
	sd	s0,32(sp)
	.cfi_offset 1, -8
	.cfi_offset 8, -16
	addi	s0,sp,48
	.cfi_def_cfa 8, 0
	mv	a5,a0
	sd	a1,-32(s0)
	mv	a4,a3
	sw	a5,-20(s0)
	mv	a5,a2
	sw	a5,-24(s0)
	mv	a5,a4
	sb	a5,-33(s0)
	.loc 1 474 10
	lbu	a3,-33(s0)
	lw	a2,-24(s0)
	lw	a5,-20(s0)
	li	a4,0
	ld	a1,-32(s0)
	mv	a0,a5
	call	InternalHstiRecordFeaturesVerified
	mv	a5,a0
	.loc 1 481 1
	mv	a0,a5
	ld	ra,40(sp)
	.cfi_restore 1
	ld	s0,32(sp)
	.cfi_restore 8
	.cfi_def_cfa 2, 48
	addi	sp,sp,48
	.cfi_def_cfa_offset 0
	jr	ra
	.cfi_endproc
.LFE6:
	.size	HstiLibClearFeaturesVerified, .-HstiLibClearFeaturesVerified
	.section	.text.InternalHstiRecordErrorString,"ax",@progbits
	.align	1
	.globl	InternalHstiRecordErrorString
	.type	InternalHstiRecordErrorString, @function
InternalHstiRecordErrorString:
.LFB7:
	.loc 1 506 1
	.cfi_startproc
	addi	sp,sp,-112
	.cfi_def_cfa_offset 112
	sd	ra,104(sp)
	sd	s0,96(sp)
	.cfi_offset 1, -8
	.cfi_offset 8, -16
	addi	s0,sp,112
	.cfi_def_cfa 8, 0
	mv	a5,a0
	sd	a1,-96(s0)
	sd	a2,-104(s0)
	mv	a4,a3
	sw	a5,-84(s0)
	mv	a5,a4
	sb	a5,-85(s0)
	.loc 1 516 9
	addi	a3,s0,-80
	addi	a4,s0,-72
	lw	a5,-84(s0)
	mv	a2,a4
	ld	a1,-96(s0)
	mv	a0,a5
	call	InternalHstiFindAip
	sd	a0,-32(s0)
	.loc 1 517 6
	ld	a5,-32(s0)
	bne	a5,zero,.L83
	.loc 1 518 12
	li	a5,-1
	slli	a5,a5,63
	addi	a5,a5,19
	j	.L88
.L83:
	.loc 1 521 6
	lbu	a5,-85(s0)
	andi	a5,a5,0xff
	beq	a5,zero,.L85
	.loc 1 522 23
	ld	a5,-80(s0)
	.loc 1 522 12
	addi	a5,a5,-2
	sd	a5,-24(s0)
	j	.L86
.L85:
	.loc 1 524 59
	ld	a5,-72(s0)
	lbu	a4,520(a5)
	lbu	a3,521(a5)
	slli	a3,a3,8
	or	a4,a3,a4
	lbu	a3,522(a5)
	slli	a3,a3,16
	or	a4,a3,a4
	lbu	a5,523(a5)
	slli	a5,a5,24
	or	a5,a5,a4
	sext.w	a5,a5
	.loc 1 524 82
	mv	a4,a5
	mv	a5,a4
	slliw	a5,a5,1
	addw	a5,a5,a4
	sext.w	a5,a5
	slli	a5,a5,32
	srli	a5,a5,32
	.loc 1 524 12
	addi	a5,a5,524
	sd	a5,-24(s0)
.L86:
	.loc 1 526 16
	ld	a0,-104(s0)
	call	StrSize
	sd	a0,-40(s0)
	.loc 1 528 15
	ld	a4,-24(s0)
	ld	a5,-40(s0)
	add	a5,a4,a5
	sd	a5,-48(s0)
	.loc 1 529 13
	ld	a0,-48(s0)
	call	AllocatePool
	sd	a0,-56(s0)
	.loc 1 530 6
	ld	a5,-56(s0)
	bne	a5,zero,.L87
	.loc 1 531 12
	li	a5,-1
	slli	a5,a5,63
	addi	a5,a5,9
	j	.L88
.L87:
	.loc 1 534 3
	ld	a5,-72(s0)
	ld	a2,-24(s0)
	mv	a1,a5
	ld	a0,-56(s0)
	call	CopyMem
	.loc 1 535 3
	ld	a4,-56(s0)
	ld	a5,-24(s0)
	add	a5,a4,a5
	ld	a2,-40(s0)
	ld	a1,-104(s0)
	mv	a0,a5
	call	CopyMem
	.loc 1 537 15
	ld	a5,-32(s0)
	ld	a5,8(a5)
	.loc 1 537 12
	ld	a3,-48(s0)
	ld	a2,-56(s0)
	lla	a1,gAdapterInfoPlatformSecurityGuid
	ld	a0,-32(s0)
	jalr	a5
.LVL6:
	sd	a0,-64(s0)
	.loc 1 543 3
	ld	a5,-72(s0)
	mv	a0,a5
	call	FreePool
	.loc 1 544 3
	ld	a0,-56(s0)
	call	FreePool
	.loc 1 545 10
	ld	a5,-64(s0)
.L88:
	.loc 1 546 1 discriminator 1
	mv	a0,a5
	ld	ra,104(sp)
	.cfi_restore 1
	ld	s0,96(sp)
	.cfi_restore 8
	.cfi_def_cfa 2, 112
	addi	sp,sp,112
	.cfi_def_cfa_offset 0
	jr	ra
	.cfi_endproc
.LFE7:
	.size	InternalHstiRecordErrorString, .-InternalHstiRecordErrorString
	.section	.text.HstiLibAppendErrorString,"ax",@progbits
	.align	1
	.globl	HstiLibAppendErrorString
	.type	HstiLibAppendErrorString, @function
HstiLibAppendErrorString:
.LFB8:
	.loc 1 569 1
	.cfi_startproc
	addi	sp,sp,-48
	.cfi_def_cfa_offset 48
	sd	ra,40(sp)
	sd	s0,32(sp)
	.cfi_offset 1, -8
	.cfi_offset 8, -16
	addi	s0,sp,48
	.cfi_def_cfa 8, 0
	mv	a5,a0
	sd	a1,-32(s0)
	sd	a2,-40(s0)
	sw	a5,-20(s0)
	.loc 1 570 10
	lw	a5,-20(s0)
	li	a3,1
	ld	a2,-40(s0)
	ld	a1,-32(s0)
	mv	a0,a5
	call	InternalHstiRecordErrorString
	mv	a5,a0
	.loc 1 576 1
	mv	a0,a5
	ld	ra,40(sp)
	.cfi_restore 1
	ld	s0,32(sp)
	.cfi_restore 8
	.cfi_def_cfa 2, 48
	addi	sp,sp,48
	.cfi_def_cfa_offset 0
	jr	ra
	.cfi_endproc
.LFE8:
	.size	HstiLibAppendErrorString, .-HstiLibAppendErrorString
	.section	.text.HstiLibSetErrorString,"ax",@progbits
	.align	1
	.globl	HstiLibSetErrorString
	.type	HstiLibSetErrorString, @function
HstiLibSetErrorString:
.LFB9:
	.loc 1 599 1
	.cfi_startproc
	addi	sp,sp,-48
	.cfi_def_cfa_offset 48
	sd	ra,40(sp)
	sd	s0,32(sp)
	.cfi_offset 1, -8
	.cfi_offset 8, -16
	addi	s0,sp,48
	.cfi_def_cfa 8, 0
	mv	a5,a0
	sd	a1,-32(s0)
	sd	a2,-40(s0)
	sw	a5,-20(s0)
	.loc 1 600 10
	lw	a5,-20(s0)
	li	a3,0
	ld	a2,-40(s0)
	ld	a1,-32(s0)
	mv	a0,a5
	call	InternalHstiRecordErrorString
	mv	a5,a0
	.loc 1 606 1
	mv	a0,a5
	ld	ra,40(sp)
	.cfi_restore 1
	ld	s0,32(sp)
	.cfi_restore 8
	.cfi_def_cfa 2, 48
	addi	sp,sp,48
	.cfi_def_cfa_offset 0
	jr	ra
	.cfi_endproc
.LFE9:
	.size	HstiLibSetErrorString, .-HstiLibSetErrorString
	.text
.Letext0:
	.file 2 "/home/xephyr/Documents/edk2/MdePkg/Include/RiscV64/ProcessorBind.h"
	.file 3 "/home/xephyr/Documents/edk2/MdePkg/Include/Base.h"
	.file 4 "/home/xephyr/Documents/edk2/MdePkg/Include/Uefi/UefiBaseType.h"
	.file 5 "/home/xephyr/Documents/edk2/MdePkg/Include/Uefi/UefiMultiPhase.h"
	.file 6 "/home/xephyr/Documents/edk2/MdePkg/Include/Guid/WinCertificate.h"
	.file 7 "/home/xephyr/Documents/edk2/MdePkg/Include/Guid/PcAnsi.h"
	.file 8 "/home/xephyr/Documents/edk2/MdePkg/Include/Protocol/DevicePath.h"
	.file 9 "/home/xephyr/Documents/edk2/MdePkg/Include/Protocol/SimpleTextIn.h"
	.file 10 "/home/xephyr/Documents/edk2/MdePkg/Include/Protocol/SimpleTextInEx.h"
	.file 11 "/home/xephyr/Documents/edk2/MdePkg/Include/Protocol/SimpleTextOut.h"
	.file 12 "/home/xephyr/Documents/edk2/MdePkg/Include/Uefi/UefiSpec.h"
	.file 13 "/home/xephyr/Documents/edk2/MdePkg/Include/Guid/HiiFormMapMethodGuid.h"
	.file 14 "/home/xephyr/Documents/edk2/MdePkg/Include/Protocol/DebugSupport.h"
	.file 15 "/home/xephyr/Documents/edk2/Build/Mde/DEBUG_GCC5/RISCV64/MdePkg/Library/DxeHstiLib/DxeHstiLib/DEBUG/AutoGen.h"
	.file 16 "/home/xephyr/Documents/edk2/MdePkg/Include/Library/UefiBootServicesTableLib.h"
	.file 17 "/home/xephyr/Documents/edk2/MdePkg/Include/IndustryStandard/Hsti.h"
	.file 18 "/home/xephyr/Documents/edk2/MdePkg/Include/Protocol/AdapterInformation.h"
	.file 19 "/home/xephyr/Documents/edk2/MdePkg/Library/DxeHstiLib/HstiDxe.h"