	.file	"RegisterFilterLibNull.c"
	.option nopic
	.option norelax
	.attribute arch, "rv64i2p0_m2p0_a2p0_f2p0_d2p0_c2p0"
	.attribute unaligned_access, 0
	.attribute stack_align, 16
	.text
.Ltext0:
	.cfi_sections	.debug_frame
	.section	.text.FilterBeforeIoRead,"ax",@progbits
	.align	1
	.globl	FilterBeforeIoRead
	.type	FilterBeforeIoRead, @function
FilterBeforeIoRead:
.LFB0:
	.file 1 "/home/xephyr/Documents/edk2/MdePkg/Library/RegisterFilterLibNull/RegisterFilterLibNull.c"
	.loc 1 34 1
	.cfi_startproc
	addi	sp,sp,-48
	.cfi_def_cfa_offset 48
	sd	s0,40(sp)
	.cfi_offset 8, -8
	addi	s0,sp,48
	.cfi_def_cfa 8, 0
	mv	a5,a0
	sd	a1,-32(s0)
	sd	a2,-40(s0)
	sw	a5,-20(s0)
	.loc 1 35 10
	li	a5,1
	.loc 1 36 1
	mv	a0,a5
	ld	s0,40(sp)
	.cfi_restore 8
	.cfi_def_cfa 2, 48
	addi	sp,sp,48
	.cfi_def_cfa_offset 0
	jr	ra
	.cfi_endproc
.LFE0:
	.size	FilterBeforeIoRead, .-FilterBeforeIoRead
	.section	.text.FilterAfterIoRead,"ax",@progbits
	.align	1
	.globl	FilterAfterIoRead
	.type	FilterAfterIoRead, @function
FilterAfterIoRead:
.LFB1:
	.loc 1 54 1
	.cfi_startproc
	addi	sp,sp,-48
	.cfi_def_cfa_offset 48
	sd	s0,40(sp)
	.cfi_offset 8, -8
	addi	s0,sp,48
	.cfi_def_cfa 8, 0
	mv	a5,a0
	sd	a1,-32(s0)
	sd	a2,-40(s0)
	sw	a5,-20(s0)
	.loc 1 55 3
	nop
	.loc 1 56 1
	ld	s0,40(sp)
	.cfi_restore 8
	.cfi_def_cfa 2, 48
	addi	sp,sp,48
	.cfi_def_cfa_offset 0
	jr	ra
	.cfi_endproc
.LFE1:
	.size	FilterAfterIoRead, .-FilterAfterIoRead
	.section	.text.FilterBeforeIoWrite,"ax",@progbits
	.align	1
	.globl	FilterBeforeIoWrite
	.type	FilterBeforeIoWrite, @function
FilterBeforeIoWrite:
.LFB2:
	.loc 1 80 1
	.cfi_startproc
	addi	sp,sp,-48
	.cfi_def_cfa_offset 48
	sd	s0,40(sp)
	.cfi_offset 8, -8
	addi	s0,sp,48
	.cfi_def_cfa 8, 0
	mv	a5,a0
	sd	a1,-32(s0)
	sd	a2,-40(s0)
	sw	a5,-20(s0)
	.loc 1 81 10
	li	a5,1
	.loc 1 82 1
	mv	a0,a5
	ld	s0,40(sp)
	.cfi_restore 8
	.cfi_def_cfa 2, 48
	addi	sp,sp,48
	.cfi_def_cfa_offset 0
	jr	ra
	.cfi_endproc
.LFE2:
	.size	FilterBeforeIoWrite, .-FilterBeforeIoWrite
	.section	.text.FilterAfterIoWrite,"ax",@progbits
	.align	1
	.globl	FilterAfterIoWrite
	.type	FilterAfterIoWrite, @function
FilterAfterIoWrite:
.LFB3:
	.loc 1 100 1
	.cfi_startproc
	addi	sp,sp,-48
	.cfi_def_cfa_offset 48
	sd	s0,40(sp)
	.cfi_offset 8, -8
	addi	s0,sp,48
	.cfi_def_cfa 8, 0
	mv	a5,a0
	sd	a1,-32(s0)
	sd	a2,-40(s0)
	sw	a5,-20(s0)
	.loc 1 101 3
	nop
	.loc 1 102 1
	ld	s0,40(sp)
	.cfi_restore 8
	.cfi_def_cfa 2, 48
	addi	sp,sp,48
	.cfi_def_cfa_offset 0
	jr	ra
	.cfi_endproc
.LFE3:
	.size	FilterAfterIoWrite, .-FilterAfterIoWrite
	.section	.text.FilterBeforeMmIoRead,"ax",@progbits
	.align	1
	.globl	FilterBeforeMmIoRead
	.type	FilterBeforeMmIoRead, @function
FilterBeforeMmIoRead:
.LFB4:
	.loc 1 125 1
	.cfi_startproc
	addi	sp,sp,-48
	.cfi_def_cfa_offset 48
	sd	s0,40(sp)
	.cfi_offset 8, -8
	addi	s0,sp,48
	.cfi_def_cfa 8, 0
	mv	a5,a0
	sd	a1,-32(s0)
	sd	a2,-40(s0)
	sw	a5,-20(s0)
	.loc 1 126 10
	li	a5,1
	.loc 1 127 1
	mv	a0,a5
	ld	s0,40(sp)
	.cfi_restore 8
	.cfi_def_cfa 2, 48
	addi	sp,sp,48
	.cfi_def_cfa_offset 0
	jr	ra
	.cfi_endproc
.LFE4:
	.size	FilterBeforeMmIoRead, .-FilterBeforeMmIoRead
	.section	.text.FilterAfterMmIoRead,"ax",@progbits
	.align	1
	.globl	FilterAfterMmIoRead
	.type	FilterAfterMmIoRead, @function
FilterAfterMmIoRead:
.LFB5:
	.loc 1 144 1
	.cfi_startproc
	addi	sp,sp,-48
	.cfi_def_cfa_offset 48
	sd	s0,40(sp)
	.cfi_offset 8, -8
	addi	s0,sp,48
	.cfi_def_cfa 8, 0
	mv	a5,a0
	sd	a1,-32(s0)
	sd	a2,-40(s0)
	sw	a5,-20(s0)
	.loc 1 145 3
	nop
	.loc 1 146 1
	ld	s0,40(sp)
	.cfi_restore 8
	.cfi_def_cfa 2, 48
	addi	sp,sp,48
	.cfi_def_cfa_offset 0
	jr	ra
	.cfi_endproc
.LFE5:
	.size	FilterAfterMmIoRead, .-FilterAfterMmIoRead
	.section	.text.FilterBeforeMmIoWrite,"ax",@progbits
	.align	1
	.globl	FilterBeforeMmIoWrite
	.type	FilterBeforeMmIoWrite, @function
FilterBeforeMmIoWrite:
.LFB6:
	.loc 1 169 1
	.cfi_startproc
	addi	sp,sp,-48
	.cfi_def_cfa_offset 48
	sd	s0,40(sp)
	.cfi_offset 8, -8
	addi	s0,sp,48
	.cfi_def_cfa 8, 0
	mv	a5,a0
	sd	a1,-32(s0)
	sd	a2,-40(s0)
	sw	a5,-20(s0)
	.loc 1 170 10
	li	a5,1
	.loc 1 171 1
	mv	a0,a5
	ld	s0,40(sp)
	.cfi_restore 8
	.cfi_def_cfa 2, 48
	addi	sp,sp,48
	.cfi_def_cfa_offset 0
	jr	ra
	.cfi_endproc
.LFE6:
	.size	FilterBeforeMmIoWrite, .-FilterBeforeMmIoWrite
	.section	.text.FilterAfterMmIoWrite,"ax",@progbits
	.align	1
	.globl	FilterAfterMmIoWrite
	.type	FilterAfterMmIoWrite, @function
FilterAfterMmIoWrite:
.LFB7:
	.loc 1 188 1
	.cfi_startproc
	addi	sp,sp,-48
	.cfi_def_cfa_offset 48
	sd	s0,40(sp)
	.cfi_offset 8, -8
	addi	s0,sp,48
	.cfi_def_cfa 8, 0
	mv	a5,a0
	sd	a1,-32(s0)
	sd	a2,-40(s0)
	sw	a5,-20(s0)
	.loc 1 189 3
	nop
	.loc 1 190 1
	ld	s0,40(sp)
	.cfi_restore 8
	.cfi_def_cfa 2, 48
	addi	sp,sp,48
	.cfi_def_cfa_offset 0
	jr	ra
	.cfi_endproc
.LFE7:
	.size	FilterAfterMmIoWrite, .-FilterAfterMmIoWrite
	.section	.text.FilterBeforeMsrRead,"ax",@progbits
	.align	1
	.globl	FilterBeforeMsrRead
	.type	FilterBeforeMsrRead, @function
FilterBeforeMsrRead:
.LFB8:
	.loc 1 211 1
	.cfi_startproc
	addi	sp,sp,-32
	.cfi_def_cfa_offset 32
	sd	s0,24(sp)
	.cfi_offset 8, -8
	addi	s0,sp,32
	.cfi_def_cfa 8, 0
	mv	a5,a0
	sd	a1,-32(s0)
	sw	a5,-20(s0)
	.loc 1 212 10
	li	a5,1
	.loc 1 213 1
	mv	a0,a5
	ld	s0,24(sp)
	.cfi_restore 8
	.cfi_def_cfa 2, 32
	addi	sp,sp,32
	.cfi_def_cfa_offset 0
	jr	ra
	.cfi_endproc
.LFE8:
	.size	FilterBeforeMsrRead, .-FilterBeforeMsrRead
	.section	.text.FilterAfterMsrRead,"ax",@progbits
	.align	1
	.globl	FilterAfterMsrRead
	.type	FilterAfterMsrRead, @function
FilterAfterMsrRead:
.LFB9:
	.loc 1 228 1
	.cfi_startproc
	addi	sp,sp,-32
	.cfi_def_cfa_offset 32
	sd	s0,24(sp)
	.cfi_offset 8, -8
	addi	s0,sp,32
	.cfi_def_cfa 8, 0
	mv	a5,a0
	sd	a1,-32(s0)
	sw	a5,-20(s0)
	.loc 1 229 3
	nop
	.loc 1 230 1
	ld	s0,24(sp)
	.cfi_restore 8
	.cfi_def_cfa 2, 32
	addi	sp,sp,32
	.cfi_def_cfa_offset 0
	jr	ra
	.cfi_endproc
.LFE9:
	.size	FilterAfterMsrRead, .-FilterAfterMsrRead
	.section	.text.FilterBeforeMsrWrite,"ax",@progbits
	.align	1
	.globl	FilterBeforeMsrWrite
	.type	FilterBeforeMsrWrite, @function
FilterBeforeMsrWrite:
.LFB10:
	.loc 1 251 1
	.cfi_startproc
	addi	sp,sp,-32
	.cfi_def_cfa_offset 32
	sd	s0,24(sp)
	.cfi_offset 8, -8
	addi	s0,sp,32
	.cfi_def_cfa 8, 0
	mv	a5,a0
	sd	a1,-32(s0)
	sw	a5,-20(s0)
	.loc 1 252 10
	li	a5,1
	.loc 1 253 1
	mv	a0,a5
	ld	s0,24(sp)
	.cfi_restore 8
	.cfi_def_cfa 2, 32
	addi	sp,sp,32
	.cfi_def_cfa_offset 0
	jr	ra
	.cfi_endproc
.LFE10:
	.size	FilterBeforeMsrWrite, .-FilterBeforeMsrWrite
	.section	.text.FilterAfterMsrWrite,"ax",@progbits
	.align	1
	.globl	FilterAfterMsrWrite
	.type	FilterAfterMsrWrite, @function
FilterAfterMsrWrite:
.LFB11:
	.loc 1 268 1
	.cfi_startproc
	addi	sp,sp,-32
	.cfi_def_cfa_offset 32
	sd	s0,24(sp)
	.cfi_offset 8, -8
	addi	s0,sp,32
	.cfi_def_cfa 8, 0
	mv	a5,a0
	sd	a1,-32(s0)
	sw	a5,-20(s0)
	.loc 1 269 3
	nop
	.loc 1 270 1
	ld	s0,24(sp)
	.cfi_restore 8
	.cfi_def_cfa 2, 32
	addi	sp,sp,32
	.cfi_def_cfa_offset 0
	jr	ra
	.cfi_endproc
.LFE11:
	.size	FilterAfterMsrWrite, .-FilterAfterMsrWrite
	.text
.Letext0:
	.file 2 "/home/xephyr/Documents/edk2/MdePkg/Include/RiscV64/ProcessorBind.h"
	.file 3 "/home/xephyr/Documents/edk2/MdePkg/Include/Base.h"
	.file 4 "/home/xephyr/Documents/edk2/Build/Mde/DEBUG_GCC5/RISCV64/MdePkg/Library/RegisterFilterLibNull/RegisterFilterLibNull/DEBUG/AutoGen.h"
	.file 5 "/home/xephyr/Documents/edk2/MdePkg/Include/Library/RegisterFilterLib.h"