	.file	"HobLib.c"
	.option nopic
	.option norelax
	.attribute arch, "rv64i2p0_m2p0_a2p0_f2p0_d2p0_c2p0"
	.attribute unaligned_access, 0
	.attribute stack_align, 16
	.text
.Ltext0:
	.cfi_sections	.debug_frame
	.section	.rodata
	.align	3
.LC0:
	.string	"\nASSERT_EFI_ERROR (Status = %r)\n"
	.align	3
.LC1:
	.string	"!EFI_ERROR (Status)"
	.align	3
.LC2:
	.string	"/home/xephyr/Documents/edk2/MdePkg/Library/PeiHobLib/HobLib.c"
	.align	3
.LC3:
	.string	"HobList != ((void *) 0)"
	.section	.text.GetHobList,"ax",@progbits
	.align	1
	.globl	GetHobList
	.type	GetHobList, @function
GetHobList:
.LFB0:
	.file 1 "/home/xephyr/Documents/edk2/MdePkg/Library/PeiHobLib/HobLib.c"
	.loc 1 39 1
	.cfi_startproc
	addi	sp,sp,-32
	.cfi_def_cfa_offset 32
	sd	ra,24(sp)
	sd	s0,16(sp)
	.cfi_offset 1, -8
	.cfi_offset 8, -16
	addi	s0,sp,32
	.cfi_def_cfa 8, 0
	.loc 1 43 12
	addi	a5,s0,-32
	mv	a0,a5
	call	PeiServicesGetHobList
	sd	a0,-24(s0)
	.loc 1 44 12
	call	DebugAssertEnabled
	mv	a5,a0
	.loc 1 44 11
	beq	a5,zero,.L2
	.loc 1 44 43 discriminator 1
	ld	a5,-24(s0)
	.loc 1 44 40 discriminator 1
	bge	a5,zero,.L2
	.loc 1 44 91 discriminator 2
	call	DebugPrintEnabled
	mv	a5,a0
	.loc 1 44 90 discriminator 2
	beq	a5,zero,.L3
	.loc 1 44 124 discriminator 3
	li	a5,1
	slli	a0,a5,31
	call	DebugPrintLevelEnabled
	mv	a5,a0
	.loc 1 44 123 discriminator 3
	beq	a5,zero,.L3
	.loc 1 44 163 discriminator 5
	ld	a2,-24(s0)
	lla	a1,.LC0
	li	a5,1
	slli	a0,a5,31
	call	DebugPrint
.L3:
	.loc 1 44 296 discriminator 7
	lla	a2,.LC1
	li	a1,44
	lla	a0,.LC2
	call	UnitTestDebugAssert
.L2:
	.loc 1 45 12
	call	DebugAssertEnabled
	mv	a5,a0
	.loc 1 45 11
	beq	a5,zero,.L4
	.loc 1 45 41 discriminator 1
	ld	a5,-32(s0)
	.loc 1 45 40 discriminator 1
	bne	a5,zero,.L4
	.loc 1 45 71 discriminator 2
	lla	a2,.LC3
	li	a1,45
	lla	a0,.LC2
	call	UnitTestDebugAssert
.L4:
	.loc 1 47 10
	ld	a5,-32(s0)
	.loc 1 48 1
	mv	a0,a5
	ld	ra,24(sp)
	.cfi_restore 1
	ld	s0,16(sp)
	.cfi_restore 8
	.cfi_def_cfa 2, 32
	addi	sp,sp,32
	.cfi_def_cfa_offset 0
	jr	ra
	.cfi_endproc
.LFE0:
	.size	GetHobList, .-GetHobList
	.section	.rodata
	.align	3
.LC4:
	.string	"HobStart != ((void *) 0)"
	.section	.text.GetNextHob,"ax",@progbits
	.align	1
	.globl	GetNextHob
	.type	GetNextHob, @function
GetNextHob:
.LFB1:
	.loc 1 73 1
	.cfi_startproc
	addi	sp,sp,-48
	.cfi_def_cfa_offset 48
	sd	ra,40(sp)
	sd	s0,32(sp)
	.cfi_offset 1, -8
	.cfi_offset 8, -16
	addi	s0,sp,48
	.cfi_def_cfa 8, 0
	mv	a5,a0
	sd	a1,-48(s0)
	sh	a5,-34(s0)
	.loc 1 76 12
	call	DebugAssertEnabled
	mv	a5,a0
	.loc 1 76 11
	beq	a5,zero,.L7
	.loc 1 76 40 discriminator 1
	ld	a5,-48(s0)
	bne	a5,zero,.L7
	.loc 1 76 72 discriminator 2
	lla	a2,.LC4
	li	a1,76
	lla	a0,.LC2
	call	UnitTestDebugAssert
.L7:
	.loc 1 78 11
	ld	a5,-48(s0)
	sd	a5,-24(s0)
	.loc 1 82 9
	j	.L8
.L11:
	.loc 1 83 12
	ld	a5,-24(s0)
	.loc 1 83 19
	lhu	a5,0(a5)
	.loc 1 83 8
	lhu	a4,-34(s0)
	sext.w	a4,a4
	sext.w	a5,a5
	bne	a4,a5,.L9
	.loc 1 84 17
	ld	a5,-24(s0)
	j	.L12
.L9:
	.loc 1 86 35
	addi	a5,s0,-24
	.loc 1 86 24
	ld	a5,0(a5)
	.loc 1 86 74
	addi	a4,s0,-24
	.loc 1 86 46
	ld	a4,0(a4)
	.loc 1 86 81
	lhu	a4,2(a4)
	.loc 1 86 42
	add	a5,a5,a4
	.loc 1 86 13
	sd	a5,-24(s0)
.L8:
	.loc 1 82 42
	addi	a5,s0,-24
	.loc 1 82 14
	ld	a5,0(a5)
	.loc 1 82 49
	lhu	a5,0(a5)
	.loc 1 82 9
	sext.w	a4,a5
	li	a5,65536
	addi	a5,a5,-1
	bne	a4,a5,.L11
	.loc 1 88 10
	li	a5,0
.L12:
	.loc 1 89 1 discriminator 1
	mv	a0,a5
	ld	ra,40(sp)
	.cfi_restore 1
	ld	s0,32(sp)
	.cfi_restore 8
	.cfi_def_cfa 2, 48
	addi	sp,sp,48
	.cfi_def_cfa_offset 0
	jr	ra
	.cfi_endproc
.LFE1:
	.size	GetNextHob, .-GetNextHob
	.section	.text.GetFirstHob,"ax",@progbits
	.align	1
	.globl	GetFirstHob
	.type	GetFirstHob, @function
GetFirstHob:
.LFB2:
	.loc 1 109 1
	.cfi_startproc
	addi	sp,sp,-48
	.cfi_def_cfa_offset 48
	sd	ra,40(sp)
	sd	s0,32(sp)
	.cfi_offset 1, -8
	.cfi_offset 8, -16
	addi	s0,sp,48
	.cfi_def_cfa 8, 0
	mv	a5,a0
	sh	a5,-34(s0)
	.loc 1 112 13
	call	GetHobList
	sd	a0,-24(s0)
	.loc 1 113 10
	lhu	a5,-34(s0)
	ld	a1,-24(s0)
	mv	a0,a5
	call	GetNextHob
	mv	a5,a0
	.loc 1 114 1
	mv	a0,a5
	ld	ra,40(sp)
	.cfi_restore 1
	ld	s0,32(sp)
	.cfi_restore 8
	.cfi_def_cfa 2, 48
	addi	sp,sp,48
	.cfi_def_cfa_offset 0
	jr	ra
	.cfi_endproc
.LFE2:
	.size	GetFirstHob, .-GetFirstHob
	.section	.text.GetNextGuidHob,"ax",@progbits
	.align	1
	.globl	GetNextGuidHob
	.type	GetNextGuidHob, @function
GetNextGuidHob:
.LFB3:
	.loc 1 144 1
	.cfi_startproc
	addi	sp,sp,-48
	.cfi_def_cfa_offset 48
	sd	ra,40(sp)
	sd	s0,32(sp)
	.cfi_offset 1, -8
	.cfi_offset 8, -16
	addi	s0,sp,48
	.cfi_def_cfa 8, 0
	sd	a0,-40(s0)
	sd	a1,-48(s0)
	.loc 1 147 15
	ld	a5,-48(s0)
	sd	a5,-24(s0)
	.loc 1 148 9
	j	.L16
.L19:
	.loc 1 149 36
	ld	a5,-24(s0)
	.loc 1 149 28
	addi	a5,a5,8
	.loc 1 149 9
	mv	a1,a5
	ld	a0,-40(s0)
	call	CompareGuid
	mv	a5,a0
	.loc 1 149 8
	bne	a5,zero,.L21
	.loc 1 152 39
	addi	a5,s0,-24
	.loc 1 152 28
	ld	a5,0(a5)
	.loc 1 152 82
	addi	a4,s0,-24
	.loc 1 152 54
	ld	a4,0(a4)
	.loc 1 152 93
	lhu	a4,2(a4)
	.loc 1 152 50
	add	a5,a5,a4
	.loc 1 152 17
	sd	a5,-24(s0)
.L16:
	.loc 1 148 52
	ld	a5,-24(s0)
	.loc 1 148 25
	mv	a1,a5
	li	a0,4
	call	GetNextHob
	mv	a5,a0
	.loc 1 148 23
	sd	a5,-24(s0)
	.loc 1 148 18
	ld	a5,-24(s0)
	.loc 1 148 9
	bne	a5,zero,.L19
	j	.L18
.L21:
	.loc 1 150 7
	nop
.L18:
	.loc 1 154 17
	ld	a5,-24(s0)
	.loc 1 155 1
	mv	a0,a5
	ld	ra,40(sp)
	.cfi_restore 1
	ld	s0,32(sp)
	.cfi_restore 8
	.cfi_def_cfa 2, 48
	addi	sp,sp,48
	.cfi_def_cfa_offset 0
	jr	ra
	.cfi_endproc
.LFE3:
	.size	GetNextGuidHob, .-GetNextGuidHob
	.section	.text.GetFirstGuidHob,"ax",@progbits
	.align	1
	.globl	GetFirstGuidHob
	.type	GetFirstGuidHob, @function
GetFirstGuidHob:
.LFB4:
	.loc 1 180 1
	.cfi_startproc
	addi	sp,sp,-48
	.cfi_def_cfa_offset 48
	sd	ra,40(sp)
	sd	s0,32(sp)
	.cfi_offset 1, -8
	.cfi_offset 8, -16
	addi	s0,sp,48
	.cfi_def_cfa 8, 0
	sd	a0,-40(s0)
	.loc 1 183 13
	call	GetHobList
	sd	a0,-24(s0)
	.loc 1 184 10
	ld	a1,-24(s0)
	ld	a0,-40(s0)
	call	GetNextGuidHob
	mv	a5,a0
	.loc 1 185 1
	mv	a0,a5
	ld	ra,40(sp)
	.cfi_restore 1
	ld	s0,32(sp)
	.cfi_restore 8
	.cfi_def_cfa 2, 48
	addi	sp,sp,48
	.cfi_def_cfa_offset 0
	jr	ra
	.cfi_endproc
.LFE4:
	.size	GetFirstGuidHob, .-GetFirstGuidHob
	.section	.text.GetBootModeHob,"ax",@progbits
	.align	1
	.globl	GetBootModeHob
	.type	GetBootModeHob, @function
GetBootModeHob:
.LFB5:
	.loc 1 205 1
	.cfi_startproc
	addi	sp,sp,-32
	.cfi_def_cfa_offset 32
	sd	ra,24(sp)
	sd	s0,16(sp)
	.cfi_offset 1, -8
	.cfi_offset 8, -16
	addi	s0,sp,32
	.cfi_def_cfa 8, 0
	.loc 1 209 12
	addi	a5,s0,-28
	mv	a0,a5
	call	PeiServicesGetBootMode
	sd	a0,-24(s0)
	.loc 1 210 12
	call	DebugAssertEnabled
	mv	a5,a0
	.loc 1 210 11
	beq	a5,zero,.L25
	.loc 1 210 43 discriminator 1
	ld	a5,-24(s0)
	.loc 1 210 40 discriminator 1
	bge	a5,zero,.L25
	.loc 1 210 91 discriminator 2
	call	DebugPrintEnabled
	mv	a5,a0
	.loc 1 210 90 discriminator 2
	beq	a5,zero,.L26
	.loc 1 210 124 discriminator 3
	li	a5,1
	slli	a0,a5,31
	call	DebugPrintLevelEnabled
	mv	a5,a0
	.loc 1 210 123 discriminator 3
	beq	a5,zero,.L26
	.loc 1 210 163 discriminator 5
	ld	a2,-24(s0)
	lla	a1,.LC0
	li	a5,1
	slli	a0,a5,31
	call	DebugPrint
.L26:
	.loc 1 210 296 discriminator 7
	lla	a2,.LC1
	li	a1,210
	lla	a0,.LC2
	call	UnitTestDebugAssert
.L25:
	.loc 1 212 10
	lw	a5,-28(s0)
	.loc 1 213 1
	mv	a0,a5
	ld	ra,24(sp)
	.cfi_restore 1
	ld	s0,16(sp)
	.cfi_restore 8
	.cfi_def_cfa 2, 32
	addi	sp,sp,32
	.cfi_def_cfa_offset 0
	jr	ra
	.cfi_endproc
.LFE5:
	.size	GetBootModeHob, .-GetBootModeHob
	.section	.rodata
	.align	3
.LC5:
	.string	"Hob != ((void *) 0)"
	.section	.text.InternalPeiCreateHob,"ax",@progbits
	.align	1
	.globl	InternalPeiCreateHob
	.type	InternalPeiCreateHob, @function
InternalPeiCreateHob:
.LFB6:
	.loc 1 233 1
	.cfi_startproc
	addi	sp,sp,-48
	.cfi_def_cfa_offset 48
	sd	ra,40(sp)
	sd	s0,32(sp)
	.cfi_offset 1, -8
	.cfi_offset 8, -16
	addi	s0,sp,48
	.cfi_def_cfa 8, 0
	mv	a5,a0
	mv	a4,a1
	sh	a5,-34(s0)
	mv	a5,a4
	sh	a5,-36(s0)
	.loc 1 237 12
	addi	a3,s0,-32
	lhu	a4,-36(s0)
	lhu	a5,-34(s0)
	mv	a2,a3
	mv	a1,a4
	mv	a0,a5
	call	PeiServicesCreateHob
	sd	a0,-24(s0)
	.loc 1 238 9
	ld	a5,-24(s0)
	.loc 1 238 6
	bge	a5,zero,.L29
	.loc 1 239 9
	sd	zero,-32(s0)
.L29:
	.loc 1 244 12
	call	DebugAssertEnabled
	mv	a5,a0
	.loc 1 244 11
	beq	a5,zero,.L30
	.loc 1 244 41 discriminator 1
	ld	a5,-32(s0)
	.loc 1 244 40 discriminator 1
	bne	a5,zero,.L30
	.loc 1 244 67 discriminator 2
	lla	a2,.LC5
	li	a1,244
	lla	a0,.LC2
	call	UnitTestDebugAssert
.L30:
	.loc 1 245 10
	ld	a5,-32(s0)
	.loc 1 246 1
	mv	a0,a5
	ld	ra,40(sp)
	.cfi_restore 1
	ld	s0,32(sp)
	.cfi_restore 8
	.cfi_def_cfa 2, 48
	addi	sp,sp,48
	.cfi_def_cfa_offset 0
	jr	ra
	.cfi_endproc
.LFE6:
	.size	InternalPeiCreateHob, .-InternalPeiCreateHob
	.section	.rodata
	.align	3
.LC6:
	.string	"((MemoryAllocationModule & (0x00001000 - 1)) == 0) && ((ModuleLength & (0x00001000 - 1)) == 0)"
	.section	.text.BuildModuleHob,"ax",@progbits
	.align	1
	.globl	BuildModuleHob
	.type	BuildModuleHob, @function
BuildModuleHob:
.LFB7:
	.loc 1 272 1
	.cfi_startproc
	addi	sp,sp,-64
	.cfi_def_cfa_offset 64
	sd	ra,56(sp)
	sd	s0,48(sp)
	.cfi_offset 1, -8
	.cfi_offset 8, -16
	addi	s0,sp,64
	.cfi_def_cfa 8, 0
	sd	a0,-40(s0)
	sd	a1,-48(s0)
	sd	a2,-56(s0)
	sd	a3,-64(s0)
	.loc 1 275 12
	call	DebugAssertEnabled
	mv	a5,a0
	.loc 1 275 11
	beq	a5,zero,.L33
	.loc 1 275 68 discriminator 1
	ld	a4,-48(s0)
	li	a5,4096
	addi	a5,a5,-1
	and	a5,a4,a5
	.loc 1 275 40 discriminator 1
	bne	a5,zero,.L34
	.loc 1 275 112 discriminator 3
	ld	a4,-56(s0)
	li	a5,4096
	addi	a5,a5,-1
	and	a5,a4,a5
	.loc 1 275 41 discriminator 3
	beq	a5,zero,.L33
.L34:
	.loc 1 275 142 discriminator 4
	lla	a2,.LC6
	li	a1,275
	lla	a0,.LC2
	call	UnitTestDebugAssert
.L33:
	.loc 1 278 9
	li	a1,72
	li	a0,2
	call	InternalPeiCreateHob
	sd	a0,-24(s0)
	.loc 1 279 6
	ld	a5,-24(s0)
	beq	a5,zero,.L37
	.loc 1 283 13
	ld	a5,-24(s0)
	addi	a5,a5,8
	.loc 1 283 3
	lla	a1,gEfiHobMemoryAllocModuleGuid
	mv	a0,a5
	call	CopyGuid
	.loc 1 284 49
	ld	a5,-24(s0)
	ld	a4,-48(s0)
	sd	a4,24(a5)
	.loc 1 285 44
	ld	a5,-24(s0)
	ld	a4,-56(s0)
	sd	a4,32(a5)
	.loc 1 286 42
	ld	a5,-24(s0)
	li	a4,3
	sw	a4,40(a5)
	.loc 1 291 39
	ld	a5,-24(s0)
	addi	a5,a5,44
	.loc 1 291 3
	li	a1,4
	mv	a0,a5
	call	ZeroMem
	.loc 1 293 13
	ld	a5,-24(s0)
	addi	a5,a5,48
	.loc 1 293 3
	ld	a1,-40(s0)
	mv	a0,a5
	call	CopyGuid
	.loc 1 294 19
	ld	a5,-24(s0)
	ld	a4,-64(s0)
	sd	a4,64(a5)
	j	.L32
.L37:
	.loc 1 280 5
	nop
.L32:
	.loc 1 295 1
	ld	ra,56(sp)
	.cfi_restore 1
	ld	s0,48(sp)
	.cfi_restore 8
	.cfi_def_cfa 2, 64
	addi	sp,sp,64
	.cfi_def_cfa_offset 0
	jr	ra
	.cfi_endproc
.LFE7:
	.size	BuildModuleHob, .-BuildModuleHob
	.section	.text.BuildResourceDescriptorWithOwnerHob,"ax",@progbits
	.align	1
	.globl	BuildResourceDescriptorWithOwnerHob
	.type	BuildResourceDescriptorWithOwnerHob, @function
BuildResourceDescriptorWithOwnerHob:
.LFB8:
	.loc 1 322 1
	.cfi_startproc
	addi	sp,sp,-64
	.cfi_def_cfa_offset 64
	sd	ra,56(sp)
	sd	s0,48(sp)
	.cfi_offset 1, -8
	.cfi_offset 8, -16
	addi	s0,sp,64
	.cfi_def_cfa 8, 0
	mv	a5,a0
	sd	a2,-48(s0)
	sd	a3,-56(s0)
	sd	a4,-64(s0)
	sw	a5,-36(s0)
	mv	a5,a1
	sw	a5,-40(s0)
	.loc 1 325 9
	li	a1,48
	li	a0,3
	call	InternalPeiCreateHob
	sd	a0,-24(s0)
	.loc 1 326 6
	ld	a5,-24(s0)
	beq	a5,zero,.L41
	.loc 1 330 21
	ld	a5,-24(s0)
	lw	a4,-36(s0)
	sw	a4,24(a5)
	.loc 1 331 26
	ld	a5,-24(s0)
	lw	a4,-40(s0)
	sw	a4,28(a5)
	.loc 1 332 22
	ld	a5,-24(s0)
	ld	a4,-48(s0)
	sd	a4,32(a5)
	.loc 1 333 23
	ld	a5,-24(s0)
	ld	a4,-56(s0)
	sd	a4,40(a5)
	.loc 1 335 13
	ld	a5,-24(s0)
	addi	a5,a5,8
	.loc 1 335 3
	ld	a1,-64(s0)
	mv	a0,a5
	call	CopyGuid
	j	.L38
.L41:
	.loc 1 327 5
	nop
.L38:
	.loc 1 336 1
	ld	ra,56(sp)
	.cfi_restore 1
	ld	s0,48(sp)
	.cfi_restore 8
	.cfi_def_cfa 2, 64
	addi	sp,sp,64
	.cfi_def_cfa_offset 0
	jr	ra
	.cfi_endproc
.LFE8:
	.size	BuildResourceDescriptorWithOwnerHob, .-BuildResourceDescriptorWithOwnerHob
	.section	.text.BuildResourceDescriptorHob,"ax",@progbits
	.align	1
	.globl	BuildResourceDescriptorHob
	.type	BuildResourceDescriptorHob, @function
BuildResourceDescriptorHob:
.LFB9:
	.loc 1 361 1
	.cfi_startproc
	addi	sp,sp,-64
	.cfi_def_cfa_offset 64
	sd	ra,56(sp)
	sd	s0,48(sp)
	.cfi_offset 1, -8
	.cfi_offset 8, -16
	addi	s0,sp,64
	.cfi_def_cfa 8, 0
	mv	a5,a0
	mv	a4,a1
	sd	a2,-48(s0)
	sd	a3,-56(s0)
	sw	a5,-36(s0)
	mv	a5,a4
	sw	a5,-40(s0)
	.loc 1 364 9
	li	a1,48
	li	a0,3
	call	InternalPeiCreateHob
	sd	a0,-24(s0)
	.loc 1 365 6
	ld	a5,-24(s0)
	beq	a5,zero,.L45
	.loc 1 369 21
	ld	a5,-24(s0)
	lw	a4,-36(s0)
	sw	a4,24(a5)
	.loc 1 370 26
	ld	a5,-24(s0)
	lw	a4,-40(s0)
	sw	a4,28(a5)
	.loc 1 371 22
	ld	a5,-24(s0)
	ld	a4,-48(s0)
	sd	a4,32(a5)
	.loc 1 372 23
	ld	a5,-24(s0)
	ld	a4,-56(s0)
	sd	a4,40(a5)
	.loc 1 373 12
	ld	a5,-24(s0)
	addi	a5,a5,8
	.loc 1 373 3
	li	a1,16
	mv	a0,a5
	call	ZeroMem
	j	.L42
.L45:
	.loc 1 366 5
	nop
.L42:
	.loc 1 374 1
	ld	ra,56(sp)
	.cfi_restore 1
	ld	s0,48(sp)
	.cfi_restore 8
	.cfi_def_cfa 2, 64
	addi	sp,sp,64
	.cfi_def_cfa_offset 0
	jr	ra
	.cfi_endproc
.LFE9:
	.size	BuildResourceDescriptorHob, .-BuildResourceDescriptorHob
	.section	.rodata
	.align	3
.LC7:
	.string	"Guid != ((void *) 0)"
	.align	3
.LC8:
	.string	"DataLength <= (0xFFF8 - sizeof (EFI_HOB_GUID_TYPE))"
	.section	.text.BuildGuidHob,"ax",@progbits
	.align	1
	.globl	BuildGuidHob
	.type	BuildGuidHob, @function
BuildGuidHob:
.LFB10:
	.loc 1 404 1
	.cfi_startproc
	addi	sp,sp,-48
	.cfi_def_cfa_offset 48
	sd	ra,40(sp)
	sd	s0,32(sp)
	.cfi_offset 1, -8
	.cfi_offset 8, -16
	addi	s0,sp,48
	.cfi_def_cfa 8, 0
	sd	a0,-40(s0)
	sd	a1,-48(s0)
	.loc 1 410 12
	call	DebugAssertEnabled
	mv	a5,a0
	.loc 1 410 11
	beq	a5,zero,.L47
	.loc 1 410 40 discriminator 1
	ld	a5,-40(s0)
	bne	a5,zero,.L47
	.loc 1 410 68 discriminator 2
	lla	a2,.LC7
	li	a1,410
	lla	a0,.LC2
	call	UnitTestDebugAssert
.L47:
	.loc 1 415 12
	call	DebugAssertEnabled
	mv	a5,a0
	.loc 1 415 11
	beq	a5,zero,.L48
	.loc 1 415 40 discriminator 1
	ld	a4,-48(s0)
	li	a5,65536
	addi	a5,a5,-32
	bleu	a4,a5,.L48
	.loc 1 415 99 discriminator 2
	lla	a2,.LC8
	li	a1,415
	lla	a0,.LC2
	call	UnitTestDebugAssert
.L48:
	.loc 1 417 9
	ld	a5,-48(s0)
	slli	a5,a5,48
	srli	a5,a5,48
	addiw	a5,a5,24
	slli	a5,a5,48
	srli	a5,a5,48
	mv	a1,a5
	li	a0,4
	call	InternalPeiCreateHob
	sd	a0,-24(s0)
	.loc 1 418 6
	ld	a5,-24(s0)
	bne	a5,zero,.L49
	.loc 1 419 12
	ld	a5,-24(s0)
	j	.L50
.L49:
	.loc 1 421 13
	ld	a5,-24(s0)
	addi	a5,a5,8
	.loc 1 421 3
	ld	a1,-40(s0)
	mv	a0,a5
	call	CopyGuid
	.loc 1 422 14
	ld	a5,-24(s0)
	addi	a5,a5,24
.L50:
	.loc 1 423 1
	mv	a0,a5
	ld	ra,40(sp)
	.cfi_restore 1
	ld	s0,32(sp)
	.cfi_restore 8
	.cfi_def_cfa 2, 48
	addi	sp,sp,48
	.cfi_def_cfa_offset 0
	jr	ra
	.cfi_endproc
.LFE10:
	.size	BuildGuidHob, .-BuildGuidHob
	.section	.rodata
	.align	3
.LC9:
	.string	"Data != ((void *) 0) || DataLength == 0"
	.section	.text.BuildGuidDataHob,"ax",@progbits
	.align	1
	.globl	BuildGuidDataHob
	.type	BuildGuidDataHob, @function
BuildGuidDataHob:
.LFB11:
	.loc 1 457 1
	.cfi_startproc
	addi	sp,sp,-64
	.cfi_def_cfa_offset 64
	sd	ra,56(sp)
	sd	s0,48(sp)
	.cfi_offset 1, -8
	.cfi_offset 8, -16
	addi	s0,sp,64
	.cfi_def_cfa 8, 0
	sd	a0,-40(s0)
	sd	a1,-48(s0)
	sd	a2,-56(s0)
	.loc 1 460 12
	call	DebugAssertEnabled
	mv	a5,a0
	.loc 1 460 11
	beq	a5,zero,.L52
	.loc 1 460 40 discriminator 1
	ld	a5,-48(s0)
	bne	a5,zero,.L52
	.loc 1 460 41 discriminator 2
	ld	a5,-56(s0)
	beq	a5,zero,.L52
	.loc 1 460 87 discriminator 3
	lla	a2,.LC9
	li	a1,460
	lla	a0,.LC2
	call	UnitTestDebugAssert
.L52:
	.loc 1 462 13
	ld	a1,-56(s0)
	ld	a0,-40(s0)
	call	BuildGuidHob
	sd	a0,-24(s0)
	.loc 1 463 6
	ld	a5,-24(s0)
	bne	a5,zero,.L53
	.loc 1 464 12
	ld	a5,-24(s0)
	j	.L54
.L53:
	.loc 1 467 10
	ld	a2,-56(s0)
	ld	a1,-48(s0)
	ld	a0,-24(s0)
	call	CopyMem
	mv	a5,a0
.L54:
	.loc 1 468 1
	mv	a0,a5
	ld	ra,56(sp)
	.cfi_restore 1
	ld	s0,48(sp)
	.cfi_restore 8
	.cfi_def_cfa 2, 64
	addi	sp,sp,64
	.cfi_def_cfa_offset 0
	jr	ra
	.cfi_endproc
.LFE11:
	.size	BuildGuidDataHob, .-BuildGuidDataHob
	.section	.rodata
	.align	3
.LC10:
	.string	"Unaligned FvImage found at 0x%lx:0x%lx, the required alignment is 0x%x\n"
	.section	.text.InternalCheckFvAlignment,"ax",@progbits
	.align	1
	.globl	InternalCheckFvAlignment
	.type	InternalCheckFvAlignment, @function
InternalCheckFvAlignment:
.LFB12:
	.loc 1 485 1
	.cfi_startproc
	addi	sp,sp,-48
	.cfi_def_cfa_offset 48
	sd	ra,40(sp)
	sd	s0,32(sp)
	.cfi_offset 1, -8
	.cfi_offset 8, -16
	addi	s0,sp,48
	.cfi_def_cfa 8, 0
	sd	a0,-40(s0)
	sd	a1,-48(s0)
	.loc 1 489 15
	sw	zero,-20(s0)
	.loc 1 490 15
	ld	a5,-40(s0)
	sd	a5,-32(s0)
	.loc 1 497 19
	ld	a5,-32(s0)
	lw	a5,44(a5)
	.loc 1 497 46
	sext.w	a5,a5
	.loc 1 497 6
	blt	a5,zero,.L56
	.loc 1 501 37
	ld	a5,-32(s0)
	lw	a5,44(a5)
	.loc 1 501 64
	srliw	a5,a5,16
	sext.w	a5,a5
	andi	a5,a5,31
	sext.w	a5,a5
	.loc 1 501 21
	li	a4,1
	sllw	a5,a4,a5
	sext.w	a5,a5
	.loc 1 501 17
	sw	a5,-20(s0)
	.loc 1 505 8
	lw	a5,-20(s0)
	sext.w	a4,a5
	li	a5,7
	bgtu	a4,a5,.L57
	.loc 1 506 19
	li	a5,8
	sw	a5,-20(s0)
.L57:
	.loc 1 508 28
	lwu	a5,-20(s0)
	ld	a4,-40(s0)
	remu	a5,a4,a5
	.loc 1 508 8
	beq	a5,zero,.L56
	.loc 1 512 16
	call	DebugPrintEnabled
	mv	a5,a0
	.loc 1 512 15
	beq	a5,zero,.L58
	.loc 1 512 49 discriminator 1
	li	a5,1
	slli	a0,a5,31
	call	DebugPrintLevelEnabled
	mv	a5,a0
	.loc 1 512 48 discriminator 1
	beq	a5,zero,.L58
	.loc 1 512 88 discriminator 2
	lw	a5,-20(s0)
	mv	a4,a5
	ld	a3,-48(s0)
	ld	a2,-40(s0)
	lla	a1,.LC10
	li	a5,1
	slli	a0,a5,31
	call	DebugPrint
.L58:
	.loc 1 519 14
	li	a5,0
	j	.L59
.L56:
	.loc 1 523 10
	li	a5,1
.L59:
	.loc 1 524 1
	mv	a0,a5
	ld	ra,40(sp)
	.cfi_restore 1
	ld	s0,32(sp)
	.cfi_restore 8
	.cfi_def_cfa 2, 48
	addi	sp,sp,48
	.cfi_def_cfa_offset 0
	jr	ra
	.cfi_endproc
.LFE12:
	.size	InternalCheckFvAlignment, .-InternalCheckFvAlignment
	.section	.rodata
	.align	3
.LC11:
	.string	"((BOOLEAN)(0==1))"
	.section	.text.BuildFvHob,"ax",@progbits
	.align	1
	.globl	BuildFvHob
	.type	BuildFvHob, @function
BuildFvHob:
.LFB13:
	.loc 1 546 1
	.cfi_startproc
	addi	sp,sp,-48
	.cfi_def_cfa_offset 48
	sd	ra,40(sp)
	sd	s0,32(sp)
	.cfi_offset 1, -8
	.cfi_offset 8, -16
	addi	s0,sp,48
	.cfi_def_cfa 8, 0
	sd	a0,-40(s0)
	sd	a1,-48(s0)
	.loc 1 549 8
	ld	a1,-48(s0)
	ld	a0,-40(s0)
	call	InternalCheckFvAlignment
	mv	a5,a0
	.loc 1 549 6
	bne	a5,zero,.L61
	.loc 1 550 14
	call	DebugAssertEnabled
	mv	a5,a0
	.loc 1 550 13
	beq	a5,zero,.L65
	.loc 1 550 67 discriminator 2
	lla	a2,.LC11
	li	a1,550
	lla	a0,.LC2
	call	UnitTestDebugAssert
	.loc 1 551 5 discriminator 2
	j	.L65
.L61:
	.loc 1 554 9
	li	a1,24
	li	a0,5
	call	InternalPeiCreateHob
	sd	a0,-24(s0)
	.loc 1 555 6
	ld	a5,-24(s0)
	beq	a5,zero,.L66
	.loc 1 559 20
	ld	a5,-24(s0)
	ld	a4,-40(s0)
	sd	a4,8(a5)
	.loc 1 560 15
	ld	a5,-24(s0)
	ld	a4,-48(s0)
	sd	a4,16(a5)
	j	.L60
.L65:
	.loc 1 551 5
	nop
	j	.L60
.L66:
	.loc 1 556 5
	nop
.L60:
	.loc 1 561 1
	ld	ra,40(sp)
	.cfi_restore 1
	ld	s0,32(sp)
	.cfi_restore 8
	.cfi_def_cfa 2, 48
	addi	sp,sp,48
	.cfi_def_cfa_offset 0
	jr	ra
	.cfi_endproc
.LFE13:
	.size	BuildFvHob, .-BuildFvHob
	.section	.text.BuildFv2Hob,"ax",@progbits
	.align	1
	.globl	BuildFv2Hob
	.type	BuildFv2Hob, @function
BuildFv2Hob:
.LFB14:
	.loc 1 587 1
	.cfi_startproc
	addi	sp,sp,-64
	.cfi_def_cfa_offset 64
	sd	ra,56(sp)
	sd	s0,48(sp)
	.cfi_offset 1, -8
	.cfi_offset 8, -16
	addi	s0,sp,64
	.cfi_def_cfa 8, 0
	sd	a0,-40(s0)
	sd	a1,-48(s0)
	sd	a2,-56(s0)
	sd	a3,-64(s0)
	.loc 1 590 8
	ld	a1,-48(s0)
	ld	a0,-40(s0)
	call	InternalCheckFvAlignment
	mv	a5,a0
	.loc 1 590 6
	bne	a5,zero,.L68
	.loc 1 591 14
	call	DebugAssertEnabled
	mv	a5,a0
	.loc 1 591 13
	beq	a5,zero,.L72
	.loc 1 591 67 discriminator 2
	lla	a2,.LC11
	li	a1,591
	lla	a0,.LC2
	call	UnitTestDebugAssert
	.loc 1 592 5 discriminator 2
	j	.L72
.L68:
	.loc 1 595 9
	li	a1,56
	li	a0,9
	call	InternalPeiCreateHob
	sd	a0,-24(s0)
	.loc 1 596 6
	ld	a5,-24(s0)
	beq	a5,zero,.L73
	.loc 1 600 20
	ld	a5,-24(s0)
	ld	a4,-40(s0)
	sd	a4,8(a5)
	.loc 1 601 15
	ld	a5,-24(s0)
	ld	a4,-48(s0)
	sd	a4,16(a5)
	.loc 1 602 13
	ld	a5,-24(s0)
	addi	a5,a5,24
	.loc 1 602 3
	ld	a1,-56(s0)
	mv	a0,a5
	call	CopyGuid
	.loc 1 603 13
	ld	a5,-24(s0)
	addi	a5,a5,40
	.loc 1 603 3
	ld	a1,-64(s0)
	mv	a0,a5
	call	CopyGuid
	j	.L67
.L72:
	.loc 1 592 5
	nop
	j	.L67
.L73:
	.loc 1 597 5
	nop
.L67:
	.loc 1 604 1
	ld	ra,56(sp)
	.cfi_restore 1
	ld	s0,48(sp)
	.cfi_restore 8
	.cfi_def_cfa 2, 64
	addi	sp,sp,64
	.cfi_def_cfa_offset 0
	jr	ra
	.cfi_endproc
.LFE14:
	.size	BuildFv2Hob, .-BuildFv2Hob
	.section	.text.BuildFv3Hob,"ax",@progbits
	.align	1
	.globl	BuildFv3Hob
	.type	BuildFv3Hob, @function
BuildFv3Hob:
.LFB15:
	.loc 1 637 1
	.cfi_startproc
	addi	sp,sp,-80
	.cfi_def_cfa_offset 80
	sd	ra,72(sp)
	sd	s0,64(sp)
	.cfi_offset 1, -8
	.cfi_offset 8, -16
	addi	s0,sp,80
	.cfi_def_cfa 8, 0
	sd	a0,-40(s0)
	sd	a1,-48(s0)
	sd	a4,-64(s0)
	sd	a5,-72(s0)
	mv	a5,a2
	sw	a5,-52(s0)
	mv	a5,a3
	sb	a5,-53(s0)
	.loc 1 640 8
	ld	a1,-48(s0)
	ld	a0,-40(s0)
	call	InternalCheckFvAlignment
	mv	a5,a0
	.loc 1 640 6
	bne	a5,zero,.L75
	.loc 1 641 14
	call	DebugAssertEnabled
	mv	a5,a0
	.loc 1 641 13
	beq	a5,zero,.L79
	.loc 1 641 67 discriminator 2
	lla	a2,.LC11
	li	a1,641
	lla	a0,.LC2
	call	UnitTestDebugAssert
	.loc 1 642 5 discriminator 2
	j	.L79
.L75:
	.loc 1 645 9
	li	a1,64
	li	a0,12
	call	InternalPeiCreateHob
	sd	a0,-24(s0)
	.loc 1 646 6
	ld	a5,-24(s0)
	beq	a5,zero,.L80
	.loc 1 650 20
	ld	a5,-24(s0)
	ld	a4,-40(s0)
	sd	a4,8(a5)
	.loc 1 651 15
	ld	a5,-24(s0)
	ld	a4,-48(s0)
	sd	a4,16(a5)
	.loc 1 652 29
	ld	a5,-24(s0)
	lw	a4,-52(s0)
	sw	a4,24(a5)
	.loc 1 653 20
	ld	a5,-24(s0)
	lbu	a4,-53(s0)
	sb	a4,28(a5)
	.loc 1 654 6
	lbu	a5,-53(s0)
	andi	a5,a5,0xff
	beq	a5,zero,.L74
	.loc 1 655 15
	ld	a5,-24(s0)
	addi	a5,a5,32
	.loc 1 655 5
	ld	a1,-64(s0)
	mv	a0,a5
	call	CopyGuid
	.loc 1 656 15
	ld	a5,-24(s0)
	addi	a5,a5,48
	.loc 1 656 5
	ld	a1,-72(s0)
	mv	a0,a5
	call	CopyGuid
	j	.L74
.L79:
	.loc 1 642 5
	nop
	j	.L74
.L80:
	.loc 1 647 5
	nop
.L74:
	.loc 1 658 1
	ld	ra,72(sp)
	.cfi_restore 1
	ld	s0,64(sp)
	.cfi_restore 8
	.cfi_def_cfa 2, 80
	addi	sp,sp,80
	.cfi_def_cfa_offset 0
	jr	ra
	.cfi_endproc
.LFE15:
	.size	BuildFv3Hob, .-BuildFv3Hob
	.section	.text.BuildCvHob,"ax",@progbits
	.align	1
	.globl	BuildCvHob
	.type	BuildCvHob, @function
BuildCvHob:
.LFB16:
	.loc 1 680 1
	.cfi_startproc
	addi	sp,sp,-48
	.cfi_def_cfa_offset 48
	sd	ra,40(sp)
	sd	s0,32(sp)
	.cfi_offset 1, -8
	.cfi_offset 8, -16
	addi	s0,sp,48
	.cfi_def_cfa 8, 0
	sd	a0,-40(s0)
	sd	a1,-48(s0)
	.loc 1 683 9
	li	a1,24
	li	a0,11
	call	InternalPeiCreateHob
	sd	a0,-24(s0)
	.loc 1 684 6
	ld	a5,-24(s0)
	beq	a5,zero,.L84
	.loc 1 688 20
	ld	a5,-24(s0)
	ld	a4,-40(s0)
	sd	a4,8(a5)
	.loc 1 689 15
	ld	a5,-24(s0)
	ld	a4,-48(s0)
	sd	a4,16(a5)
	j	.L81
.L84:
	.loc 1 685 5
	nop
.L81:
	.loc 1 690 1
	ld	ra,40(sp)
	.cfi_restore 1
	ld	s0,32(sp)
	.cfi_restore 8
	.cfi_def_cfa 2, 48
	addi	sp,sp,48
	.cfi_def_cfa_offset 0
	jr	ra
	.cfi_endproc
.LFE16:
	.size	BuildCvHob, .-BuildCvHob
	.section	.text.BuildCpuHob,"ax",@progbits
	.align	1
	.globl	BuildCpuHob
	.type	BuildCpuHob, @function
BuildCpuHob:
.LFB17:
	.loc 1 711 1
	.cfi_startproc
	addi	sp,sp,-48
	.cfi_def_cfa_offset 48
	sd	ra,40(sp)
	sd	s0,32(sp)
	.cfi_offset 1, -8
	.cfi_offset 8, -16
	addi	s0,sp,48
	.cfi_def_cfa 8, 0
	mv	a5,a0
	mv	a4,a1
	sb	a5,-33(s0)
	mv	a5,a4
	sb	a5,-34(s0)
	.loc 1 714 9
	li	a1,16
	li	a0,6
	call	InternalPeiCreateHob
	sd	a0,-24(s0)
	.loc 1 715 6
	ld	a5,-24(s0)
	beq	a5,zero,.L88
	.loc 1 719 26
	ld	a5,-24(s0)
	lbu	a4,-33(s0)
	sb	a4,8(a5)
	.loc 1 720 22
	ld	a5,-24(s0)
	lbu	a4,-34(s0)
	sb	a4,9(a5)
	.loc 1 725 15
	ld	a5,-24(s0)
	addi	a5,a5,10
	.loc 1 725 3
	li	a1,6
	mv	a0,a5
	call	ZeroMem
	j	.L85
.L88:
	.loc 1 716 5
	nop
.L85:
	.loc 1 726 1
	ld	ra,40(sp)
	.cfi_restore 1
	ld	s0,32(sp)
	.cfi_restore 8
	.cfi_def_cfa 2, 48
	addi	sp,sp,48
	.cfi_def_cfa_offset 0
	jr	ra
	.cfi_endproc
.LFE17:
	.size	BuildCpuHob, .-BuildCpuHob
	.section	.rodata
	.align	3
.LC12:
	.string	"((BaseAddress & (0x00001000 - 1)) == 0) && ((Length & (0x00001000 - 1)) == 0)"
	.section	.text.BuildStackHob,"ax",@progbits
	.align	1
	.globl	BuildStackHob
	.type	BuildStackHob, @function
BuildStackHob:
.LFB18:
	.loc 1 747 1
	.cfi_startproc
	addi	sp,sp,-48
	.cfi_def_cfa_offset 48
	sd	ra,40(sp)
	sd	s0,32(sp)
	.cfi_offset 1, -8
	.cfi_offset 8, -16
	addi	s0,sp,48
	.cfi_def_cfa 8, 0
	sd	a0,-40(s0)
	sd	a1,-48(s0)
	.loc 1 750 12
	call	DebugAssertEnabled
	mv	a5,a0
	.loc 1 750 11
	beq	a5,zero,.L90
	.loc 1 750 57 discriminator 1
	ld	a4,-40(s0)
	li	a5,4096
	addi	a5,a5,-1
	and	a5,a4,a5
	.loc 1 750 40 discriminator 1
	bne	a5,zero,.L91
	.loc 1 750 95 discriminator 3
	ld	a4,-48(s0)
	li	a5,4096
	addi	a5,a5,-1
	and	a5,a4,a5
	.loc 1 750 41 discriminator 3
	beq	a5,zero,.L90
.L91:
	.loc 1 750 125 discriminator 4
	lla	a2,.LC12
	li	a1,750
	lla	a0,.LC2
	call	UnitTestDebugAssert
.L90:
	.loc 1 753 9
	li	a1,48
	li	a0,2
	call	InternalPeiCreateHob
	sd	a0,-24(s0)
	.loc 1 754 6
	ld	a5,-24(s0)
	beq	a5,zero,.L94
	.loc 1 758 13
	ld	a5,-24(s0)
	addi	a5,a5,8
	.loc 1 758 3
	lla	a1,gEfiHobMemoryAllocStackGuid
	mv	a0,a5
	call	CopyGuid
	.loc 1 759 42
	ld	a5,-24(s0)
	ld	a4,-40(s0)
	sd	a4,24(a5)
	.loc 1 760 37
	ld	a5,-24(s0)
	ld	a4,-48(s0)
	sd	a4,32(a5)
	.loc 1 761 35
	ld	a5,-24(s0)
	li	a4,4
	sw	a4,40(a5)
	.loc 1 766 32
	ld	a5,-24(s0)
	addi	a5,a5,44
	.loc 1 766 3
	li	a1,4
	mv	a0,a5
	call	ZeroMem
	j	.L89
.L94:
	.loc 1 755 5
	nop
.L89:
	.loc 1 767 1
	ld	ra,40(sp)
	.cfi_restore 1
	ld	s0,32(sp)
	.cfi_restore 8
	.cfi_def_cfa 2, 48
	addi	sp,sp,48
	.cfi_def_cfa_offset 0
	jr	ra
	.cfi_endproc
.LFE18:
	.size	BuildStackHob, .-BuildStackHob
	.section	.text.BuildBspStoreHob,"ax",@progbits
	.align	1
	.globl	BuildBspStoreHob
	.type	BuildBspStoreHob, @function
BuildBspStoreHob:
.LFB19:
	.loc 1 790 1
	.cfi_startproc
	addi	sp,sp,-64
	.cfi_def_cfa_offset 64
	sd	ra,56(sp)
	sd	s0,48(sp)
	.cfi_offset 1, -8
	.cfi_offset 8, -16
	addi	s0,sp,64
	.cfi_def_cfa 8, 0
	sd	a0,-40(s0)
	sd	a1,-48(s0)
	mv	a5,a2
	sw	a5,-52(s0)
	.loc 1 793 12
	call	DebugAssertEnabled
	mv	a5,a0
	.loc 1 793 11
	beq	a5,zero,.L96
	.loc 1 793 57 discriminator 1
	ld	a4,-40(s0)
	li	a5,4096
	addi	a5,a5,-1
	and	a5,a4,a5
	.loc 1 793 40 discriminator 1
	bne	a5,zero,.L97
	.loc 1 793 95 discriminator 3
	ld	a4,-48(s0)
	li	a5,4096
	addi	a5,a5,-1
	and	a5,a4,a5
	.loc 1 793 41 discriminator 3
	beq	a5,zero,.L96
.L97:
	.loc 1 793 125 discriminator 4
	lla	a2,.LC12
	li	a1,793
	lla	a0,.LC2
	call	UnitTestDebugAssert
.L96:
	.loc 1 796 9
	li	a1,48
	li	a0,2
	call	InternalPeiCreateHob
	sd	a0,-24(s0)
	.loc 1 797 6
	ld	a5,-24(s0)
	beq	a5,zero,.L100
	.loc 1 801 13
	ld	a5,-24(s0)
	addi	a5,a5,8
	.loc 1 801 3
	lla	a1,gEfiHobMemoryAllocBspStoreGuid
	mv	a0,a5
	call	CopyGuid
	.loc 1 802 42
	ld	a5,-24(s0)
	ld	a4,-40(s0)
	sd	a4,24(a5)
	.loc 1 803 37
	ld	a5,-24(s0)
	ld	a4,-48(s0)
	sd	a4,32(a5)
	.loc 1 804 35
	ld	a5,-24(s0)
	lw	a4,-52(s0)
	sw	a4,40(a5)
	.loc 1 809 32
	ld	a5,-24(s0)
	addi	a5,a5,44
	.loc 1 809 3
	li	a1,4
	mv	a0,a5
	call	ZeroMem
	j	.L95
.L100:
	.loc 1 798 5
	nop
.L95:
	.loc 1 810 1
	ld	ra,56(sp)
	.cfi_restore 1
	ld	s0,48(sp)
	.cfi_restore 8
	.cfi_def_cfa 2, 64
	addi	sp,sp,64
	.cfi_def_cfa_offset 0
	jr	ra
	.cfi_endproc
.LFE19:
	.size	BuildBspStoreHob, .-BuildBspStoreHob
	.section	.text.BuildMemoryAllocationHob,"ax",@progbits
	.align	1
	.globl	BuildMemoryAllocationHob
	.type	BuildMemoryAllocationHob, @function
BuildMemoryAllocationHob:
.LFB20:
	.loc 1 833 1
	.cfi_startproc
	addi	sp,sp,-64
	.cfi_def_cfa_offset 64
	sd	ra,56(sp)
	sd	s0,48(sp)
	.cfi_offset 1, -8
	.cfi_offset 8, -16
	addi	s0,sp,64
	.cfi_def_cfa 8, 0
	sd	a0,-40(s0)
	sd	a1,-48(s0)
	mv	a5,a2
	sw	a5,-52(s0)
	.loc 1 836 12
	call	DebugAssertEnabled
	mv	a5,a0
	.loc 1 836 11
	beq	a5,zero,.L102
	.loc 1 836 57 discriminator 1
	ld	a4,-40(s0)
	li	a5,4096
	addi	a5,a5,-1
	and	a5,a4,a5
	.loc 1 836 40 discriminator 1
	bne	a5,zero,.L103
	.loc 1 836 95 discriminator 3
	ld	a4,-48(s0)
	li	a5,4096
	addi	a5,a5,-1
	and	a5,a4,a5
	.loc 1 836 41 discriminator 3
	beq	a5,zero,.L102
.L103:
	.loc 1 836 125 discriminator 4
	lla	a2,.LC12
	li	a1,836
	lla	a0,.LC2
	call	UnitTestDebugAssert
.L102:
	.loc 1 839 9
	li	a1,48
	li	a0,2
	call	InternalPeiCreateHob
	sd	a0,-24(s0)
	.loc 1 840 6
	ld	a5,-24(s0)
	beq	a5,zero,.L106
	.loc 1 844 12
	ld	a5,-24(s0)
	addi	a5,a5,8
	.loc 1 844 3
	li	a1,16
	mv	a0,a5
	call	ZeroMem
	.loc 1 845 42
	ld	a5,-24(s0)
	ld	a4,-40(s0)
	sd	a4,24(a5)
	.loc 1 846 37
	ld	a5,-24(s0)
	ld	a4,-48(s0)
	sd	a4,32(a5)
	.loc 1 847 35
	ld	a5,-24(s0)
	lw	a4,-52(s0)
	sw	a4,40(a5)
	.loc 1 851 32
	ld	a5,-24(s0)
	addi	a5,a5,44
	.loc 1 851 3
	li	a1,4
	mv	a0,a5
	call	ZeroMem
	j	.L101
.L106:
	.loc 1 841 5
	nop
.L101:
	.loc 1 852 1
	ld	ra,56(sp)
	.cfi_restore 1
	ld	s0,48(sp)
	.cfi_restore 8
	.cfi_def_cfa 2, 64
	addi	sp,sp,64
	.cfi_def_cfa_offset 0
	jr	ra
	.cfi_endproc
.LFE20:
	.size	BuildMemoryAllocationHob, .-BuildMemoryAllocationHob
	.text
.Letext0:
	.file 2 "/home/xephyr/Documents/edk2/MdePkg/Include/RiscV64/ProcessorBind.h"
	.file 3 "/home/xephyr/Documents/edk2/MdePkg/Include/Base.h"
	.file 4 "/home/xephyr/Documents/edk2/MdePkg/Include/Uefi/UefiBaseType.h"
	.file 5 "/home/xephyr/Documents/edk2/MdePkg/Include/Uefi/UefiMultiPhase.h"
	.file 6 "/home/xephyr/Documents/edk2/MdePkg/Include/Pi/PiFirmwareVolume.h"
	.file 7 "/home/xephyr/Documents/edk2/MdePkg/Include/Pi/PiBootMode.h"
	.file 8 "/home/xephyr/Documents/edk2/MdePkg/Include/Pi/PiHob.h"
	.file 9 "/home/xephyr/Documents/edk2/MdePkg/Include/Guid/WinCertificate.h"
	.file 10 "/home/xephyr/Documents/edk2/MdePkg/Include/Protocol/DebugSupport.h"
	.file 11 "/home/xephyr/Documents/edk2/MdePkg/Include/Ppi/CpuIo.h"
	.file 12 "/home/xephyr/Documents/edk2/MdePkg/Include/Ppi/PciCfg2.h"
	.file 13 "/home/xephyr/Documents/edk2/Build/Mde/DEBUG_GCC5/RISCV64/MdePkg/Library/PeiHobLib/PeiHobLib/DEBUG/AutoGen.h"