	.file	"DebugLib.c"
	.option nopic
	.option norelax
	.attribute arch, "rv64i2p0_m2p0_a2p0_f2p0_d2p0_c2p0"
	.attribute unaligned_access, 0
	.attribute stack_align, 16
	.text
.Ltext0:
	.cfi_sections	.debug_frame
	.globl	mDebugPort
	.section	.bss.mDebugPort,"aw",@nobits
	.align	3
	.type	mDebugPort, @object
	.size	mDebugPort, 8
mDebugPort:
	.zero	8
	.globl	mVaListNull
	.section	.bss.mVaListNull,"aw",@nobits
	.align	3
	.type	mVaListNull, @object
	.size	mVaListNull, 8
mVaListNull:
	.zero	8
	.section	.text.UefiDebugLibDebugPortProtocolWrite,"ax",@progbits
	.align	1
	.globl	UefiDebugLibDebugPortProtocolWrite
	.type	UefiDebugLibDebugPortProtocolWrite, @function
UefiDebugLibDebugPortProtocolWrite:
.LFB0:
	.file 1 "/home/xephyr/Documents/edk2/MdePkg/Library/UefiDebugLibDebugPortProtocol/DebugLib.c"
	.loc 1 57 1
	.cfi_startproc
	addi	sp,sp,-48
	.cfi_def_cfa_offset 48
	sd	ra,40(sp)
	sd	s0,32(sp)
	.cfi_offset 1, -8
	.cfi_offset 8, -16
	addi	s0,sp,48
	.cfi_def_cfa 8, 0
	sd	a0,-40(s0)
	sd	a1,-48(s0)
	.loc 1 61 7
	lla	a5,mPostEBS
	lbu	a5,0(a5)
	.loc 1 61 6
	bne	a5,zero,.L1
	.loc 1 65 20
	lla	a5,mDebugPort
	ld	a5,0(a5)
	.loc 1 65 8
	bne	a5,zero,.L6
	.loc 1 66 26
	lla	a5,mDebugBS
	ld	a5,0(a5)
	ld	a5,320(a5)
	.loc 1 66 18
	lla	a2,mDebugPort
	li	a1,0
	lla	a0,gEfiDebugPortProtocolGuid
	jalr	a5
.LVL0:
	sd	a0,-24(s0)
	.loc 1 67 15
	ld	a5,-24(s0)
	.loc 1 67 12
	blt	a5,zero,.L8
	.loc 1 71 19
	lla	a5,mDebugPort
	ld	a5,0(a5)
	ld	a4,0(a5)
	.loc 1 71 9
	lla	a5,mDebugPort
	ld	a5,0(a5)
	mv	a0,a5
	jalr	a4
.LVL1:
	.loc 1 77 11
	j	.L6
.L7:
	.loc 1 78 14
	ld	a5,-48(s0)
	sd	a5,-32(s0)
	.loc 1 80 26
	lla	a5,mDebugPort
	ld	a5,0(a5)
	ld	a6,8(a5)
	.loc 1 80 16
	lla	a5,mDebugPort
	ld	a5,0(a5)
	addi	a4,s0,-32
	ld	a3,-40(s0)
	mv	a2,a4
	li	a1,1000
	mv	a0,a5
	jalr	a6
.LVL2:
	sd	a0,-24(s0)
	.loc 1 81 13
	ld	a5,-24(s0)
	.loc 1 81 10
	blt	a5,zero,.L1
	.loc 1 81 65 discriminator 1
	ld	a5,-32(s0)
	.loc 1 81 49 discriminator 1
	ld	a4,-48(s0)
	bltu	a4,a5,.L1
	.loc 1 85 14
	ld	a5,-32(s0)
	ld	a4,-40(s0)
	add	a5,a4,a5
	sd	a5,-40(s0)
	.loc 1 86 20
	ld	a5,-32(s0)
	ld	a4,-48(s0)
	sub	a5,a4,a5
	sd	a5,-48(s0)
.L6:
	.loc 1 77 11
	ld	a5,-48(s0)
	bne	a5,zero,.L7
	j	.L1
.L8:
	.loc 1 68 13
	nop
.L1:
	.loc 1 89 1
	ld	ra,40(sp)
	.cfi_restore 1
	ld	s0,32(sp)
	.cfi_restore 8
	.cfi_def_cfa 2, 48
	addi	sp,sp,48
	.cfi_def_cfa_offset 0
	jr	ra
	.cfi_endproc
.LFE0:
	.size	UefiDebugLibDebugPortProtocolWrite, .-UefiDebugLibDebugPortProtocolWrite
	.section	.text.DebugPrint,"ax",@progbits
	.align	1
	.globl	DebugPrint
	.type	DebugPrint, @function
DebugPrint:
.LFB1:
	.loc 1 113 1
	.cfi_startproc
	addi	sp,sp,-112
	.cfi_def_cfa_offset 112
	sd	ra,56(sp)
	sd	s0,48(sp)
	.cfi_offset 1, -56
	.cfi_offset 8, -64
	addi	s0,sp,64
	.cfi_def_cfa 8, 48
	sd	a0,-40(s0)
	sd	a1,-48(s0)
	sd	a2,0(s0)
	sd	a3,8(s0)
	sd	a4,16(s0)
	sd	a5,24(s0)
	sd	a6,32(s0)
	sd	a7,40(s0)
	.loc 1 116 3
	addi	a5,s0,48
	sd	a5,-56(s0)
	ld	a5,-56(s0)
	addi	a5,a5,-48
	sd	a5,-24(s0)
	.loc 1 117 3
	ld	a5,-24(s0)
	mv	a2,a5
	ld	a1,-48(s0)
	ld	a0,-40(s0)
	call	DebugVPrint
	.loc 1 119 1
	nop
	ld	ra,56(sp)
	.cfi_restore 1
	ld	s0,48(sp)
	.cfi_restore 8
	.cfi_def_cfa 2, 112
	addi	sp,sp,112
	.cfi_def_cfa_offset 0
	jr	ra
	.cfi_endproc
.LFE1:
	.size	DebugPrint, .-DebugPrint
	.section	.rodata
	.align	3
.LC0:
	.string	"Format != ((void *) 0)"
	.align	3
.LC1:
	.string	"/home/xephyr/Documents/edk2/MdePkg/Library/UefiDebugLibDebugPortProtocol/DebugLib.c"
	.section	.text.DebugPrintMarker,"ax",@progbits
	.align	1
	.globl	DebugPrintMarker
	.type	DebugPrintMarker, @function
DebugPrintMarker:
.LFB2:
	.loc 1 146 1
	.cfi_startproc
	addi	sp,sp,-304
	.cfi_def_cfa_offset 304
	sd	ra,296(sp)
	sd	s0,288(sp)
	.cfi_offset 1, -8
	.cfi_offset 8, -16
	addi	s0,sp,304
	.cfi_def_cfa 8, 0
	sd	a0,-280(s0)
	sd	a1,-288(s0)
	sd	a2,-296(s0)
	sd	a3,-304(s0)
	.loc 1 149 7
	lla	a5,mPostEBS
	lbu	a5,0(a5)
	.loc 1 149 6
	bne	a5,zero,.L10
	.loc 1 153 14
	call	DebugAssertEnabled
	mv	a5,a0
	.loc 1 153 13
	beq	a5,zero,.L12
	.loc 1 153 42 discriminator 1
	ld	a5,-288(s0)
	bne	a5,zero,.L12
	.loc 1 153 72 discriminator 2
	lla	a2,.LC0
	li	a1,153
	lla	a0,.LC1
	call	UnitTestDebugAssert
.L12:
	.loc 1 158 23
	call	GetDebugPrintErrorLevel
	mv	a5,a0
	sext.w	a5,a5
	slli	a4,a5,32
	srli	a4,a4,32
	.loc 1 158 21
	ld	a5,-280(s0)
	and	a5,a4,a5
	.loc 1 158 8
	beq	a5,zero,.L17
	.loc 1 165 8
	ld	a5,-304(s0)
	bne	a5,zero,.L15
	.loc 1 166 7
	addi	a5,s0,-272
	ld	a3,-296(s0)
	ld	a2,-288(s0)
	li	a1,256
	mv	a0,a5
	call	AsciiVSPrint
	j	.L16
.L15:
	.loc 1 168 7
	addi	a5,s0,-272
	ld	a3,-304(s0)
	ld	a2,-288(s0)
	li	a1,256
	mv	a0,a5
	call	AsciiBSPrint
.L16:
	.loc 1 174 5
	addi	a5,s0,-272
	mv	a0,a5
	call	AsciiStrLen
	mv	a4,a0
	addi	a5,s0,-272
	mv	a1,a4
	mv	a0,a5
	call	UefiDebugLibDebugPortProtocolWrite
	j	.L10
.L17:
	.loc 1 159 7
	nop
.L10:
	.loc 1 176 1
	ld	ra,296(sp)
	.cfi_restore 1
	ld	s0,288(sp)
	.cfi_restore 8
	.cfi_def_cfa 2, 304
	addi	sp,sp,304
	.cfi_def_cfa_offset 0
	jr	ra
	.cfi_endproc
.LFE2:
	.size	DebugPrintMarker, .-DebugPrintMarker
	.section	.text.DebugVPrint,"ax",@progbits
	.align	1
	.globl	DebugVPrint
	.type	DebugVPrint, @function
DebugVPrint:
.LFB3:
	.loc 1 201 1
	.cfi_startproc
	addi	sp,sp,-48
	.cfi_def_cfa_offset 48
	sd	ra,40(sp)
	sd	s0,32(sp)
	.cfi_offset 1, -8
	.cfi_offset 8, -16
	addi	s0,sp,48
	.cfi_def_cfa 8, 0
	sd	a0,-24(s0)
	sd	a1,-32(s0)
	sd	a2,-40(s0)
	.loc 1 202 3
	li	a3,0
	ld	a2,-40(s0)
	ld	a1,-32(s0)
	ld	a0,-24(s0)
	call	DebugPrintMarker
	.loc 1 203 1
	nop
	ld	ra,40(sp)
	.cfi_restore 1
	ld	s0,32(sp)
	.cfi_restore 8
	.cfi_def_cfa 2, 48
	addi	sp,sp,48
	.cfi_def_cfa_offset 0
	jr	ra
	.cfi_endproc
.LFE3:
	.size	DebugVPrint, .-DebugVPrint
	.section	.text.DebugBPrint,"ax",@progbits
	.align	1
	.globl	DebugBPrint
	.type	DebugBPrint, @function
DebugBPrint:
.LFB4:
	.loc 1 230 1
	.cfi_startproc
	addi	sp,sp,-48
	.cfi_def_cfa_offset 48
	sd	ra,40(sp)
	sd	s0,32(sp)
	.cfi_offset 1, -8
	.cfi_offset 8, -16
	addi	s0,sp,48
	.cfi_def_cfa 8, 0
	sd	a0,-24(s0)
	sd	a1,-32(s0)
	sd	a2,-40(s0)
	.loc 1 231 3
	lla	a5,mVaListNull
	ld	a5,0(a5)
	ld	a3,-40(s0)
	mv	a2,a5
	ld	a1,-32(s0)
	ld	a0,-24(s0)
	call	DebugPrintMarker
	.loc 1 232 1
	nop
	ld	ra,40(sp)
	.cfi_restore 1
	ld	s0,32(sp)
	.cfi_restore 8
	.cfi_def_cfa 2, 48
	addi	sp,sp,48
	.cfi_def_cfa_offset 0
	jr	ra
	.cfi_endproc
.LFE4:
	.size	DebugBPrint, .-DebugBPrint
	.section	.rodata
	.align	3
.LC2:
	.string	"ASSERT [%a] %a(%d): %a\n"
	.section	.text.DebugAssert,"ax",@progbits
	.align	1
	.globl	DebugAssert
	.type	DebugAssert, @function
DebugAssert:
.LFB5:
	.loc 1 265 1
	.cfi_startproc
	addi	sp,sp,-304
	.cfi_def_cfa_offset 304
	sd	ra,296(sp)
	sd	s0,288(sp)
	.cfi_offset 1, -8
	.cfi_offset 8, -16
	addi	s0,sp,304
	.cfi_def_cfa 8, 0
	sd	a0,-280(s0)
	sd	a1,-288(s0)
	sd	a2,-296(s0)
	.loc 1 268 7
	lla	a5,mPostEBS
	lbu	a5,0(a5)
	.loc 1 268 6
	bne	a5,zero,.L23
	.loc 1 272 5
	lla	a5,gEfiCallerBaseName
	ld	a3,0(a5)
	addi	a0,s0,-272
	ld	a6,-296(s0)
	ld	a5,-288(s0)
	ld	a4,-280(s0)
	lla	a2,.LC2
	li	a1,256
	call	AsciiSPrint
	.loc 1 285 5
	addi	a5,s0,-272
	mv	a0,a5
	call	AsciiStrLen
	mv	a4,a0
	addi	a5,s0,-272
	mv	a1,a4
	mv	a0,a5
	call	UefiDebugLibDebugPortProtocolWrite
	.loc 1 290 50
	lla	a5,_gPcd_FixedAtBuild_PcdDebugPropertyMask
	lbu	a5,0(a5)
	sext.w	a5,a5
	andi	a5,a5,16
	sext.w	a5,a5
	.loc 1 290 8
	beq	a5,zero,.L22
	.loc 1 291 7
	call	CpuBreakpoint
	.loc 1 296 1
	j	.L23
.L22:
	.loc 1 292 57
	lla	a5,_gPcd_FixedAtBuild_PcdDebugPropertyMask
	lbu	a5,0(a5)
	sext.w	a5,a5
	andi	a5,a5,32
	sext.w	a5,a5
	.loc 1 292 15
	beq	a5,zero,.L23
	.loc 1 293 7
	call	CpuDeadLoop
.L23:
	.loc 1 296 1
	nop
	ld	ra,296(sp)
	.cfi_restore 1
	ld	s0,288(sp)
	.cfi_restore 8
	.cfi_def_cfa 2, 304
	addi	sp,sp,304
	.cfi_def_cfa_offset 0
	jr	ra
	.cfi_endproc
.LFE5:
	.size	DebugAssert, .-DebugAssert
	.section	.rodata
	.align	3
.LC3:
	.string	"Buffer != ((void *) 0)"
	.section	.text.DebugClearMemory,"ax",@progbits
	.align	1
	.globl	DebugClearMemory
	.type	DebugClearMemory, @function
DebugClearMemory:
.LFB6:
	.loc 1 320 1
	.cfi_startproc
	addi	sp,sp,-32
	.cfi_def_cfa_offset 32
	sd	ra,24(sp)
	sd	s0,16(sp)
	.cfi_offset 1, -8
	.cfi_offset 8, -16
	addi	s0,sp,32
	.cfi_def_cfa 8, 0
	sd	a0,-24(s0)
	sd	a1,-32(s0)
	.loc 1 324 12
	call	DebugAssertEnabled
	mv	a5,a0
	.loc 1 324 11
	beq	a5,zero,.L25
	.loc 1 324 40 discriminator 1
	ld	a5,-24(s0)
	bne	a5,zero,.L25
	.loc 1 324 70 discriminator 2
	lla	a2,.LC3
	li	a1,324
	lla	a0,.LC1
	call	UnitTestDebugAssert
.L25:
	.loc 1 329 10
	lla	a5,_gPcd_FixedAtBuild_PcdDebugClearMemoryValue
	lbu	a5,0(a5)
	mv	a2,a5
	ld	a1,-32(s0)
	ld	a0,-24(s0)
	call	SetMem
	mv	a5,a0
	.loc 1 330 1
	mv	a0,a5
	ld	ra,24(sp)
	.cfi_restore 1
	ld	s0,16(sp)
	.cfi_restore 8
	.cfi_def_cfa 2, 32
	addi	sp,sp,32
	.cfi_def_cfa_offset 0
	jr	ra
	.cfi_endproc
.LFE6:
	.size	DebugClearMemory, .-DebugClearMemory
	.section	.text.DebugAssertEnabled,"ax",@progbits
	.align	1
	.globl	DebugAssertEnabled
	.type	DebugAssertEnabled, @function
DebugAssertEnabled:
.LFB7:
	.loc 1 348 1
	.cfi_startproc
	addi	sp,sp,-16
	.cfi_def_cfa_offset 16
	sd	s0,8(sp)
	.cfi_offset 8, -8
	addi	s0,sp,16
	.cfi_def_cfa 8, 0
	.loc 1 349 62
	lla	a5,_gPcd_FixedAtBuild_PcdDebugPropertyMask
	lbu	a5,0(a5)
	sext.w	a5,a5
	andi	a5,a5,1
	sext.w	a5,a5
	.loc 1 349 10
	snez	a5,a5
	andi	a5,a5,0xff
	.loc 1 350 1
	mv	a0,a5
	ld	s0,8(sp)
	.cfi_restore 8
	.cfi_def_cfa 2, 16
	addi	sp,sp,16
	.cfi_def_cfa_offset 0
	jr	ra
	.cfi_endproc
.LFE7:
	.size	DebugAssertEnabled, .-DebugAssertEnabled
	.section	.text.DebugPrintEnabled,"ax",@progbits
	.align	1
	.globl	DebugPrintEnabled
	.type	DebugPrintEnabled, @function
DebugPrintEnabled:
.LFB8:
	.loc 1 368 1
	.cfi_startproc
	addi	sp,sp,-16
	.cfi_def_cfa_offset 16
	sd	s0,8(sp)
	.cfi_offset 8, -8
	addi	s0,sp,16
	.cfi_def_cfa 8, 0
	.loc 1 369 62
	lla	a5,_gPcd_FixedAtBuild_PcdDebugPropertyMask
	lbu	a5,0(a5)
	sext.w	a5,a5
	andi	a5,a5,2
	sext.w	a5,a5
	.loc 1 369 10
	snez	a5,a5
	andi	a5,a5,0xff
	.loc 1 370 1
	mv	a0,a5
	ld	s0,8(sp)
	.cfi_restore 8
	.cfi_def_cfa 2, 16
	addi	sp,sp,16
	.cfi_def_cfa_offset 0
	jr	ra
	.cfi_endproc
.LFE8:
	.size	DebugPrintEnabled, .-DebugPrintEnabled
	.section	.text.DebugCodeEnabled,"ax",@progbits
	.align	1
	.globl	DebugCodeEnabled
	.type	DebugCodeEnabled, @function
DebugCodeEnabled:
.LFB9:
	.loc 1 388 1
	.cfi_startproc
	addi	sp,sp,-16
	.cfi_def_cfa_offset 16
	sd	s0,8(sp)
	.cfi_offset 8, -8
	addi	s0,sp,16
	.cfi_def_cfa 8, 0
	.loc 1 389 62
	lla	a5,_gPcd_FixedAtBuild_PcdDebugPropertyMask
	lbu	a5,0(a5)
	sext.w	a5,a5
	andi	a5,a5,4
	sext.w	a5,a5
	.loc 1 389 10
	snez	a5,a5
	andi	a5,a5,0xff
	.loc 1 390 1
	mv	a0,a5
	ld	s0,8(sp)
	.cfi_restore 8
	.cfi_def_cfa 2, 16
	addi	sp,sp,16
	.cfi_def_cfa_offset 0
	jr	ra
	.cfi_endproc
.LFE9:
	.size	DebugCodeEnabled, .-DebugCodeEnabled
	.section	.text.DebugClearMemoryEnabled,"ax",@progbits
	.align	1
	.globl	DebugClearMemoryEnabled
	.type	DebugClearMemoryEnabled, @function
DebugClearMemoryEnabled:
.LFB10:
	.loc 1 408 1
	.cfi_startproc
	addi	sp,sp,-16
	.cfi_def_cfa_offset 16
	sd	s0,8(sp)
	.cfi_offset 8, -8
	addi	s0,sp,16
	.cfi_def_cfa 8, 0
	.loc 1 409 62
	lla	a5,_gPcd_FixedAtBuild_PcdDebugPropertyMask
	lbu	a5,0(a5)
	sext.w	a5,a5
	andi	a5,a5,8
	sext.w	a5,a5
	.loc 1 409 10
	snez	a5,a5
	andi	a5,a5,0xff
	.loc 1 410 1
	mv	a0,a5
	ld	s0,8(sp)
	.cfi_restore 8
	.cfi_def_cfa 2, 16
	addi	sp,sp,16
	.cfi_def_cfa_offset 0
	jr	ra
	.cfi_endproc
.LFE10:
	.size	DebugClearMemoryEnabled, .-DebugClearMemoryEnabled
	.section	.text.DebugPrintLevelEnabled,"ax",@progbits
	.align	1
	.globl	DebugPrintLevelEnabled
	.type	DebugPrintLevelEnabled, @function
DebugPrintLevelEnabled:
.LFB11:
	.loc 1 426 1
	.cfi_startproc
	addi	sp,sp,-32
	.cfi_def_cfa_offset 32
	sd	s0,24(sp)
	.cfi_offset 8, -8
	addi	s0,sp,32
	.cfi_def_cfa 8, 0
	sd	a0,-24(s0)
	.loc 1 427 33
	lla	a5,_gPcd_FixedAtBuild_PcdFixedDebugPrintErrorLevel
	lw	a5,0(a5)
	slli	a4,a5,32
	srli	a4,a4,32
	ld	a5,-24(s0)
	and	a5,a4,a5
	.loc 1 427 10
	snez	a5,a5
	andi	a5,a5,0xff
	.loc 1 428 1
	mv	a0,a5
	ld	s0,24(sp)
	.cfi_restore 8
	.cfi_def_cfa 2, 32
	addi	sp,sp,32
	.cfi_def_cfa_offset 0
	jr	ra
	.cfi_endproc
.LFE11:
	.size	DebugPrintLevelEnabled, .-DebugPrintLevelEnabled
	.text
.Letext0:
	.file 2 "/home/xephyr/Documents/edk2/MdePkg/Include/RiscV64/ProcessorBind.h"
	.file 3 "/home/xephyr/Documents/edk2/MdePkg/Include/Base.h"
	.file 4 "/home/xephyr/Documents/edk2/MdePkg/Include/Uefi/UefiBaseType.h"
	.file 5 "/home/xephyr/Documents/edk2/MdePkg/Include/Uefi/UefiMultiPhase.h"
	.file 6 "/home/xephyr/Documents/edk2/MdePkg/Include/Guid/WinCertificate.h"
	.file 7 "/home/xephyr/Documents/edk2/MdePkg/Include/Guid/PcAnsi.h"
	.file 8 "/home/xephyr/Documents/edk2/MdePkg/Include/Protocol/DevicePath.h"
	.file 9 "/home/xephyr/Documents/edk2/MdePkg/Include/Protocol/SimpleTextIn.h"
	.file 10 "/home/xephyr/Documents/edk2/MdePkg/Include/Protocol/SimpleTextInEx.h"
	.file 11 "/home/xephyr/Documents/edk2/MdePkg/Include/Protocol/SimpleTextOut.h"
	.file 12 "/home/xephyr/Documents/edk2/MdePkg/Include/Uefi/UefiSpec.h"
	.file 13 "/home/xephyr/Documents/edk2/MdePkg/Include/Guid/HiiFormMapMethodGuid.h"
	.file 14 "/home/xephyr/Documents/edk2/Build/Mde/DEBUG_GCC5/RISCV64/MdePkg/Library/UefiDebugLibDebugPortProtocol/UefiDebugLibDebugPortProtocol/DEBUG/AutoGen.h"
	.file 15 "/home/xephyr/Documents/edk2/MdePkg/Include/Protocol/DebugPort.h"