	.file	"DxeCoreEntryPoint.c"
	.option nopic
	.option norelax
	.attribute arch, "rv64i2p0_m2p0_a2p0_f2p0_d2p0_c2p0"
	.attribute unaligned_access, 0
	.attribute stack_align, 16
	.text
.Ltext0:
	.cfi_sections	.debug_frame
	.globl	gHobList
	.section	.bss.gHobList,"aw",@nobits
	.align	3
	.type	gHobList, @object
	.size	gHobList, 8
gHobList:
	.zero	8
	.section	.rodata
	.align	3
.LC0:
	.string	"((BOOLEAN)(0==1))"
	.align	3
.LC1:
	.string	"/home/xephyr/Documents/edk2/MdePkg/Library/DxeCoreEntryPoint/DxeCoreEntryPoint.c"
	.section	.text._ModuleEntryPoint,"ax",@progbits
	.align	1
	.globl	_ModuleEntryPoint
	.type	_ModuleEntryPoint, @function
_ModuleEntryPoint:
.LFB0:
	.file 1 "/home/xephyr/Documents/edk2/MdePkg/Library/DxeCoreEntryPoint/DxeCoreEntryPoint.c"
	.loc 1 39 1
	.cfi_startproc
	addi	sp,sp,-32
	.cfi_def_cfa_offset 32
	sd	ra,24(sp)
	sd	s0,16(sp)
	.cfi_offset 1, -8
	.cfi_offset 8, -16
	addi	s0,sp,32
	.cfi_def_cfa 8, 0
	sd	a0,-24(s0)
	.loc 1 43 12
	lla	a5,gHobList
	ld	a4,-24(s0)
	sd	a4,0(a5)
	.loc 1 48 3
	ld	a0,-24(s0)
	call	ProcessModuleEntryPointList
	.loc 1 53 12
	call	DebugAssertEnabled
	mv	a5,a0
	.loc 1 53 11
	beq	a5,zero,.L2
	.loc 1 53 65 discriminator 2
	lla	a2,.LC0
	li	a1,53
	lla	a0,.LC1
	call	UnitTestDebugAssert
.L2:
	.loc 1 54 3
	call	CpuDeadLoop
	.loc 1 55 1
	nop
	ld	ra,24(sp)
	.cfi_restore 1
	ld	s0,16(sp)
	.cfi_restore 8
	.cfi_def_cfa 2, 32
	addi	sp,sp,32
	.cfi_def_cfa_offset 0
	jr	ra
	.cfi_endproc
.LFE0:
	.size	_ModuleEntryPoint, .-_ModuleEntryPoint
	.section	.text.EfiMain,"ax",@progbits
	.align	1
	.globl	EfiMain
	.type	EfiMain, @function
EfiMain:
.LFB1:
	.loc 1 71 1
	.cfi_startproc
	addi	sp,sp,-32
	.cfi_def_cfa_offset 32
	sd	ra,24(sp)
	sd	s0,16(sp)
	.cfi_offset 1, -8
	.cfi_offset 8, -16
	addi	s0,sp,32
	.cfi_def_cfa 8, 0
	sd	a0,-24(s0)
	.loc 1 72 3
	ld	a0,-24(s0)
	call	_ModuleEntryPoint
	.loc 1 73 1
	nop
	ld	ra,24(sp)
	.cfi_restore 1
	ld	s0,16(sp)
	.cfi_restore 8
	.cfi_def_cfa 2, 32
	addi	sp,sp,32
	.cfi_def_cfa_offset 0
	jr	ra
	.cfi_endproc
.LFE1:
	.size	EfiMain, .-EfiMain
	.text
.Letext0:
	.file 2 "/home/xephyr/Documents/edk2/MdePkg/Include/RiscV64/ProcessorBind.h"
	.file 3 "/home/xephyr/Documents/edk2/MdePkg/Include/Base.h"
	.file 4 "/home/xephyr/Documents/edk2/MdePkg/Include/Uefi/UefiBaseType.h"
	.file 5 "/home/xephyr/Documents/edk2/MdePkg/Include/Guid/WinCertificate.h"
	.file 6 "/home/xephyr/Documents/edk2/MdePkg/Include/Guid/PcAnsi.h"
	.file 7 "/home/xephyr/Documents/edk2/MdePkg/Include/Protocol/DevicePath.h"
	.file 8 "/home/xephyr/Documents/edk2/MdePkg/Include/Protocol/SimpleTextIn.h"
	.file 9 "/home/xephyr/Documents/edk2/MdePkg/Include/Protocol/SimpleTextInEx.h"
	.file 10 "/home/xephyr/Documents/edk2/MdePkg/Include/Protocol/SimpleTextOut.h"
	.file 11 "/home/xephyr/Documents/edk2/MdePkg/Include/Guid/HiiFormMapMethodGuid.h"
	.file 12 "/home/xephyr/Documents/edk2/MdePkg/Include/Protocol/DebugSupport.h"
	.file 13 "/home/xephyr/Documents/edk2/Build/Mde/DEBUG_GCC5/RISCV64/MdePkg/Library/DxeCoreEntryPoint/DxeCoreEntryPoint/DEBUG/AutoGen.h"
	.file 14 "/home/xephyr/Documents/edk2/MdePkg/Include/Library/DxeCoreEntryPoint.h"