	.file	"PeiExtractGuidedSectionLib.c"
	.option nopic
	.option norelax
	.attribute arch, "rv64i2p0_m2p0_a2p0_f2p0_d2p0_c2p0"
	.attribute unaligned_access, 0
	.attribute stack_align, 16
	.text
.Ltext0:
	.cfi_sections	.debug_frame
	.section	.text.PeiGetExtractGuidedSectionHandlerInfo,"ax",@progbits
	.align	1
	.globl	PeiGetExtractGuidedSectionHandlerInfo
	.type	PeiGetExtractGuidedSectionHandlerInfo, @function
PeiGetExtractGuidedSectionHandlerInfo:
.LFB0:
	.file 1 "/home/xephyr/Documents/edk2/MdePkg/Library/PeiExtractGuidedSectionLib/PeiExtractGuidedSectionLib.c"
	.loc 1 40 1
	.cfi_startproc
	addi	sp,sp,-48
	.cfi_def_cfa_offset 48
	sd	ra,40(sp)
	sd	s0,32(sp)
	.cfi_offset 1, -8
	.cfi_offset 8, -16
	addi	s0,sp,48
	.cfi_def_cfa 8, 0
	sd	a0,-40(s0)
	.loc 1 47 33
	call	GetHobList
	mv	a5,a0
	.loc 1 47 13
	mv	a1,a5
	li	a0,4
	call	GetNextHob
	mv	a5,a0
	.loc 1 47 11
	sd	a5,-32(s0)
	.loc 1 48 9
	j	.L2
.L6:
	.loc 1 49 27
	ld	a5,-32(s0)
	.loc 1 49 22
	addi	a5,a5,8
	.loc 1 49 9
	lla	a1,gEfiCallerIdGuid
	mv	a0,a5
	call	CompareGuid
	mv	a5,a0
	.loc 1 49 8
	beq	a5,zero,.L3
	.loc 1 50 85
	addi	a5,s0,-32
	.loc 1 50 74
	ld	a5,0(a5)
	.loc 1 50 19
	addi	a5,a5,24
	sd	a5,-24(s0)
	.loc 1 51 22
	ld	a5,-24(s0)
	lw	a5,0(a5)
	.loc 1 51 10
	mv	a4,a5
	li	a5,1229471744
	addi	a5,a5,1360
	bne	a4,a5,.L3
	.loc 1 55 24
	ld	a5,-24(s0)
	ld	a4,8(a5)
	.loc 1 55 75
	ld	a5,-24(s0)
	addi	a5,a5,32
	.loc 1 55 12
	beq	a4,a5,.L4
	.loc 1 56 72
	ld	a5,-24(s0)
	addi	a4,a5,32
	.loc 1 56 48
	ld	a5,-24(s0)
	sd	a4,8(a5)
	.loc 1 58 75
	ld	a5,-24(s0)
	ld	a4,8(a5)
	.loc 1 59 105
	lla	a5,_gPcd_FixedAtBuild_PcdMaximumGuidedExtractHandler
	lw	a5,0(a5)
	slli	a5,a5,32
	srli	a5,a5,32
	slli	a5,a5,4
	.loc 1 57 52
	add	a4,a4,a5
	.loc 1 57 50
	ld	a5,-24(s0)
	sd	a4,16(a5)
	.loc 1 62 75
	ld	a5,-24(s0)
	ld	a4,16(a5)
	.loc 1 63 105
	lla	a5,_gPcd_FixedAtBuild_PcdMaximumGuidedExtractHandler
	lw	a5,0(a5)
	slli	a5,a5,32
	srli	a5,a5,32
	slli	a5,a5,3
	.loc 1 61 53
	add	a4,a4,a5
	.loc 1 61 51
	ld	a5,-24(s0)
	sd	a4,24(a5)
.L4:
	.loc 1 70 22
	ld	a5,-40(s0)
	ld	a4,-24(s0)
	sd	a4,0(a5)
	.loc 1 71 16
	li	a5,0
	j	.L8
.L3:
	.loc 1 74 35
	addi	a5,s0,-32
	.loc 1 74 24
	ld	a5,0(a5)
	.loc 1 74 74
	addi	a4,s0,-32
	.loc 1 74 46
	ld	a4,0(a4)
	.loc 1 74 81
	lhu	a4,2(a4)
	.loc 1 74 42
	add	a5,a5,a4
	.loc 1 74 13
	sd	a5,-32(s0)
	.loc 1 75 38
	ld	a5,-32(s0)
	.loc 1 75 15
	mv	a1,a5
	li	a0,4
	call	GetNextHob
	mv	a5,a0
	.loc 1 75 13
	sd	a5,-32(s0)
.L2:
	.loc 1 48 13
	ld	a5,-32(s0)
	.loc 1 48 9
	bne	a5,zero,.L6
	.loc 1 83 67
	lla	a5,_gPcd_FixedAtBuild_PcdMaximumGuidedExtractHandler
	lw	a5,0(a5)
	slli	a5,a5,32
	srli	a5,a5,32
	addi	a5,a5,1
	slli	a5,a5,5
	.loc 1 81 17
	mv	a1,a5
	lla	a0,gEfiCallerIdGuid
	call	BuildGuidHob
	sd	a0,-24(s0)
	.loc 1 87 6
	ld	a5,-24(s0)
	bne	a5,zero,.L7
	.loc 1 91 18
	ld	a5,-40(s0)
	sd	zero,0(a5)
	.loc 1 92 12
	li	a5,-1
	slli	a5,a5,63
	addi	a5,a5,9
	j	.L8
.L7:
	.loc 1 97 26
	ld	a5,-24(s0)
	li	a4,1229471744
	addi	a4,a4,1360
	sw	a4,0(a5)
	.loc 1 98 39
	ld	a5,-24(s0)
	sw	zero,4(a5)
	.loc 1 99 64
	ld	a5,-24(s0)
	addi	a4,a5,32
	.loc 1 99 40
	ld	a5,-24(s0)
	sd	a4,8(a5)
	.loc 1 101 67
	ld	a5,-24(s0)
	ld	a4,8(a5)
	.loc 1 102 97
	lla	a5,_gPcd_FixedAtBuild_PcdMaximumGuidedExtractHandler
	lw	a5,0(a5)
	slli	a5,a5,32
	srli	a5,a5,32
	slli	a5,a5,4
	.loc 1 100 44
	add	a4,a4,a5
	.loc 1 100 42
	ld	a5,-24(s0)
	sd	a4,16(a5)
	.loc 1 105 67
	ld	a5,-24(s0)
	ld	a4,16(a5)
	.loc 1 106 97
	lla	a5,_gPcd_FixedAtBuild_PcdMaximumGuidedExtractHandler
	lw	a5,0(a5)
	slli	a5,a5,32
	srli	a5,a5,32
	slli	a5,a5,3
	.loc 1 104 45
	add	a4,a4,a5
	.loc 1 104 43
	ld	a5,-24(s0)
	sd	a4,24(a5)
	.loc 1 112 16
	ld	a5,-40(s0)
	ld	a4,-24(s0)
	sd	a4,0(a5)
	.loc 1 113 10
	li	a5,0
.L8:
	.loc 1 114 1 discriminator 1
	mv	a0,a5
	ld	ra,40(sp)
	.cfi_restore 1
	ld	s0,32(sp)
	.cfi_restore 8
	.cfi_def_cfa 2, 48
	addi	sp,sp,48
	.cfi_def_cfa_offset 0
	jr	ra
	.cfi_endproc
.LFE0:
	.size	PeiGetExtractGuidedSectionHandlerInfo, .-PeiGetExtractGuidedSectionHandlerInfo
	.section	.rodata
	.align	3
.LC0:
	.string	"ExtractHandlerGuidTable != ((void *) 0)"
	.align	3
.LC1:
	.string	"/home/xephyr/Documents/edk2/MdePkg/Library/PeiExtractGuidedSectionLib/PeiExtractGuidedSectionLib.c"
	.align	3
.LC2:
	.string	"HandlerInfo != ((void *) 0)"
	.section	.text.ExtractGuidedSectionGetGuidList,"ax",@progbits
	.align	1
	.globl	ExtractGuidedSectionGetGuidList
	.type	ExtractGuidedSectionGetGuidList, @function
ExtractGuidedSectionGetGuidList:
.LFB1:
	.loc 1 135 1
	.cfi_startproc
	addi	sp,sp,-48
	.cfi_def_cfa_offset 48
	sd	ra,40(sp)
	sd	s0,32(sp)
	.cfi_offset 1, -8
	.cfi_offset 8, -16
	addi	s0,sp,48
	.cfi_def_cfa 8, 0
	sd	a0,-40(s0)
	.loc 1 139 12
	call	DebugAssertEnabled
	mv	a5,a0
	.loc 1 139 11
	beq	a5,zero,.L10
	.loc 1 139 40 discriminator 1
	ld	a5,-40(s0)
	bne	a5,zero,.L10
	.loc 1 139 87 discriminator 2
	lla	a2,.LC0
	li	a1,139
	lla	a0,.LC1
	call	UnitTestDebugAssert
.L10:
	.loc 1 144 12
	addi	a5,s0,-32
	mv	a0,a5
	call	PeiGetExtractGuidedSectionHandlerInfo
	sd	a0,-24(s0)
	.loc 1 145 9
	ld	a5,-24(s0)
	.loc 1 145 6
	bge	a5,zero,.L11
	.loc 1 146 30
	ld	a5,-40(s0)
	sd	zero,0(a5)
	.loc 1 147 12
	li	a5,0
	j	.L14
.L11:
	.loc 1 153 12
	call	DebugAssertEnabled
	mv	a5,a0
	.loc 1 153 11
	beq	a5,zero,.L13
	.loc 1 153 41 discriminator 1
	ld	a5,-32(s0)
	.loc 1 153 40 discriminator 1
	bne	a5,zero,.L13
	.loc 1 153 75 discriminator 2
	lla	a2,.LC2
	li	a1,153
	lla	a0,.LC1
	call	UnitTestDebugAssert
.L13:
	.loc 1 154 41
	ld	a5,-32(s0)
	ld	a4,8(a5)
	.loc 1 154 28
	ld	a5,-40(s0)
	sd	a4,0(a5)
	.loc 1 155 21
	ld	a5,-32(s0)
	lw	a5,4(a5)
	slli	a5,a5,32
	srli	a5,a5,32
.L14:
	.loc 1 156 1 discriminator 1
	mv	a0,a5
	ld	ra,40(sp)
	.cfi_restore 1
	ld	s0,32(sp)
	.cfi_restore 8
	.cfi_def_cfa 2, 48
	addi	sp,sp,48
	.cfi_def_cfa_offset 0
	jr	ra
	.cfi_endproc
.LFE1:
	.size	ExtractGuidedSectionGetGuidList, .-ExtractGuidedSectionGetGuidList
	.section	.rodata
	.align	3
.LC3:
	.string	"SectionGuid != ((void *) 0)"
	.align	3
.LC4:
	.string	"GetInfoHandler != ((void *) 0)"
	.align	3
.LC5:
	.string	"DecodeHandler != ((void *) 0)"
	.section	.text.ExtractGuidedSectionRegisterHandlers,"ax",@progbits
	.align	1
	.globl	ExtractGuidedSectionRegisterHandlers
	.type	ExtractGuidedSectionRegisterHandlers, @function
ExtractGuidedSectionRegisterHandlers:
.LFB2:
	.loc 1 189 1
	.cfi_startproc
	addi	sp,sp,-80
	.cfi_def_cfa_offset 80
	sd	ra,72(sp)
	sd	s0,64(sp)
	.cfi_offset 1, -8
	.cfi_offset 8, -16
	addi	s0,sp,80
	.cfi_def_cfa 8, 0
	sd	a0,-56(s0)
	sd	a1,-64(s0)
	sd	a2,-72(s0)
	.loc 1 197 12
	call	DebugAssertEnabled
	mv	a5,a0
	.loc 1 197 11
	beq	a5,zero,.L16
	.loc 1 197 40 discriminator 1
	ld	a5,-56(s0)
	bne	a5,zero,.L16
	.loc 1 197 75 discriminator 2
	lla	a2,.LC3
	li	a1,197
	lla	a0,.LC1
	call	UnitTestDebugAssert
.L16:
	.loc 1 198 12
	call	DebugAssertEnabled
	mv	a5,a0
	.loc 1 198 11
	beq	a5,zero,.L17
	.loc 1 198 40 discriminator 1
	ld	a5,-64(s0)
	bne	a5,zero,.L17
	.loc 1 198 78 discriminator 2
	lla	a2,.LC4
	li	a1,198
	lla	a0,.LC1
	call	UnitTestDebugAssert
.L17:
	.loc 1 199 12
	call	DebugAssertEnabled
	mv	a5,a0
	.loc 1 199 11
	beq	a5,zero,.L18
	.loc 1 199 40 discriminator 1
	ld	a5,-72(s0)
	bne	a5,zero,.L18
	.loc 1 199 77 discriminator 2
	lla	a2,.LC5
	li	a1,199
	lla	a0,.LC1
	call	UnitTestDebugAssert
.L18:
	.loc 1 206 12
	addi	a5,s0,-40
	mv	a0,a5
	call	PeiGetExtractGuidedSectionHandlerInfo
	sd	a0,-32(s0)
	.loc 1 207 9
	ld	a5,-32(s0)
	.loc 1 207 6
	bge	a5,zero,.L19
	.loc 1 208 12
	ld	a5,-32(s0)
	j	.L26
.L19:
	.loc 1 214 12
	call	DebugAssertEnabled
	mv	a5,a0
	.loc 1 214 11
	beq	a5,zero,.L21
	.loc 1 214 41 discriminator 1
	ld	a5,-40(s0)
	.loc 1 214 40 discriminator 1
	bne	a5,zero,.L21
	.loc 1 214 75 discriminator 2
	lla	a2,.LC2
	li	a1,214
	lla	a0,.LC1
	call	UnitTestDebugAssert
.L21:
	.loc 1 215 14
	sw	zero,-20(s0)
	.loc 1 215 3
	j	.L22
.L24:
	.loc 1 216 33
	ld	a5,-40(s0)
	ld	a4,8(a5)
	.loc 1 216 59
	lwu	a5,-20(s0)
	slli	a5,a5,4
	add	a5,a4,a5
	.loc 1 216 9
	ld	a1,-56(s0)
	mv	a0,a5
	call	CompareGuid
	mv	a5,a0
	.loc 1 216 8
	beq	a5,zero,.L23
	.loc 1 220 18
	ld	a5,-40(s0)
	ld	a4,16(a5)
	.loc 1 220 46
	lwu	a5,-20(s0)
	slli	a5,a5,3
	add	a5,a4,a5
	.loc 1 220 54
	ld	a4,-72(s0)
	sd	a4,0(a5)
	.loc 1 221 18
	ld	a5,-40(s0)
	ld	a4,24(a5)
	.loc 1 221 47
	lwu	a5,-20(s0)
	slli	a5,a5,3
	add	a5,a4,a5
	.loc 1 221 55
	ld	a4,-64(s0)
	sd	a4,0(a5)
	.loc 1 222 14
	li	a5,0
	j	.L26
.L23:
	.loc 1 215 70 discriminator 2
	lw	a5,-20(s0)
	addiw	a5,a5,1
	sw	a5,-20(s0)
.L22:
	.loc 1 215 38 discriminator 1
	ld	a5,-40(s0)
	lw	a4,4(a5)
	.loc 1 215 3 discriminator 1
	lw	a5,-20(s0)
	sext.w	a5,a5
	bltu	a5,a4,.L24
	.loc 1 229 18
	ld	a5,-40(s0)
	lw	a4,4(a5)
	.loc 1 229 43
	lla	a5,_gPcd_FixedAtBuild_PcdMaximumGuidedExtractHandler
	lw	a5,0(a5)
	.loc 1 229 6
	bltu	a4,a5,.L25
	.loc 1 230 12
	li	a5,-1
	slli	a5,a5,63
	addi	a5,a5,9
	j	.L26
.L25:
	.loc 1 236 24
	ld	a5,-40(s0)
	ld	a4,8(a5)
	.loc 1 236 63
	ld	a5,-40(s0)
	lw	a5,4(a5)
	slli	a5,a5,32
	srli	a5,a5,32
	.loc 1 236 50
	slli	a5,a5,4
	.loc 1 236 3
	add	a5,a4,a5
	ld	a1,-56(s0)
	mv	a0,a5
	call	CopyGuid
	.loc 1 237 14
	ld	a5,-40(s0)
	ld	a4,16(a5)
	.loc 1 237 54
	ld	a5,-40(s0)
	lw	a5,4(a5)
	slli	a5,a5,32
	srli	a5,a5,32
	.loc 1 237 42
	slli	a5,a5,3
	add	a5,a4,a5
	.loc 1 237 80
	ld	a4,-72(s0)
	sd	a4,0(a5)
	.loc 1 238 14
	ld	a5,-40(s0)
	ld	a3,24(a5)
	.loc 1 238 55
	ld	a4,-40(s0)
	lw	a5,4(a4)
	.loc 1 238 79
	sext.w	a5,a5
	addiw	a2,a5,1
	sext.w	a2,a2
	sw	a2,4(a4)
	slli	a5,a5,32
	srli	a5,a5,32
	.loc 1 238 43
	slli	a5,a5,3
	add	a5,a3,a5
	.loc 1 238 83
	ld	a4,-64(s0)
	sd	a4,0(a5)
	.loc 1 244 3
	li	a2,16
	ld	a1,-56(s0)
	ld	a0,-56(s0)
	call	BuildGuidDataHob
	.loc 1 250 10
	li	a5,0
.L26:
	.loc 1 251 1 discriminator 1
	mv	a0,a5
	ld	ra,72(sp)
	.cfi_restore 1
	ld	s0,64(sp)
	.cfi_restore 8
	.cfi_def_cfa 2, 80
	addi	sp,sp,80
	.cfi_def_cfa_offset 0
	jr	ra
	.cfi_endproc
.LFE2:
	.size	ExtractGuidedSectionRegisterHandlers, .-ExtractGuidedSectionRegisterHandlers
	.section	.rodata
	.align	3
.LC6:
	.string	"InputSection != ((void *) 0)"
	.align	3
.LC7:
	.string	"OutputBufferSize != ((void *) 0)"
	.align	3
.LC8:
	.string	"ScratchBufferSize != ((void *) 0)"
	.align	3
.LC9:
	.string	"SectionAttribute != ((void *) 0)"
	.section	.text.ExtractGuidedSectionGetInfo,"ax",@progbits
	.align	1
	.globl	ExtractGuidedSectionGetInfo
	.type	ExtractGuidedSectionGetInfo, @function
ExtractGuidedSectionGetInfo:
.LFB3:
	.loc 1 295 1
	.cfi_startproc
	addi	sp,sp,-80
	.cfi_def_cfa_offset 80
	sd	ra,72(sp)
	sd	s0,64(sp)
	.cfi_offset 1, -8
	.cfi_offset 8, -16
	addi	s0,sp,80
	.cfi_def_cfa 8, 0
	sd	a0,-56(s0)
	sd	a1,-64(s0)
	sd	a2,-72(s0)
	sd	a3,-80(s0)
	.loc 1 304 12
	call	DebugAssertEnabled
	mv	a5,a0
	.loc 1 304 11
	beq	a5,zero,.L28
	.loc 1 304 40 discriminator 1
	ld	a5,-56(s0)
	bne	a5,zero,.L28
	.loc 1 304 76 discriminator 2
	lla	a2,.LC6
	li	a1,304
	lla	a0,.LC1
	call	UnitTestDebugAssert
.L28:
	.loc 1 305 12
	call	DebugAssertEnabled
	mv	a5,a0
	.loc 1 305 11
	beq	a5,zero,.L29
	.loc 1 305 40 discriminator 1
	ld	a5,-64(s0)
	bne	a5,zero,.L29
	.loc 1 305 80 discriminator 2
	lla	a2,.LC7
	li	a1,305
	lla	a0,.LC1
	call	UnitTestDebugAssert
.L29:
	.loc 1 306 12
	call	DebugAssertEnabled
	mv	a5,a0
	.loc 1 306 11
	beq	a5,zero,.L30
	.loc 1 306 40 discriminator 1
	ld	a5,-72(s0)
	bne	a5,zero,.L30
	.loc 1 306 81 discriminator 2
	lla	a2,.LC8
	li	a1,306
	lla	a0,.LC1
	call	UnitTestDebugAssert
.L30:
	.loc 1 307 12
	call	DebugAssertEnabled
	mv	a5,a0
	.loc 1 307 11
	beq	a5,zero,.L31
	.loc 1 307 40 discriminator 1
	ld	a5,-80(s0)
	bne	a5,zero,.L31
	.loc 1 307 80 discriminator 2
	lla	a2,.LC9
	li	a1,307
	lla	a0,.LC1
	call	UnitTestDebugAssert
.L31:
	.loc 1 312 12
	addi	a5,s0,-48
	mv	a0,a5
	call	PeiGetExtractGuidedSectionHandlerInfo
	sd	a0,-40(s0)
	.loc 1 313 9
	ld	a5,-40(s0)
	.loc 1 313 6
	bge	a5,zero,.L32
	.loc 1 314 12
	ld	a5,-40(s0)
	j	.L40
.L32:
	.loc 1 317 81
	ld	a5,-56(s0)
	lbu	a5,0(a5)
	sext.w	a4,a5
	.loc 1 317 150
	ld	a5,-56(s0)
	lbu	a5,1(a5)
	sext.w	a5,a5
	.loc 1 317 154
	slliw	a5,a5,8
	sext.w	a5,a5
	.loc 1 317 87
	or	a5,a4,a5
	sext.w	a4,a5
	.loc 1 317 223
	ld	a5,-56(s0)
	lbu	a5,2(a5)
	sext.w	a5,a5
	.loc 1 317 227
	slliw	a5,a5,16
	sext.w	a5,a5
	.loc 1 317 160
	or	a5,a4,a5
	sext.w	a5,a5
	.loc 1 317 6
	mv	a4,a5
	li	a5,16777216
	addi	a5,a5,-1
	bne	a4,a5,.L34
	.loc 1 318 27
	ld	a5,-56(s0)
	addi	a5,a5,8
	sd	a5,-32(s0)
	j	.L35
.L34:
	.loc 1 320 27
	ld	a5,-56(s0)
	addi	a5,a5,4
	sd	a5,-32(s0)
.L35:
	.loc 1 326 12
	call	DebugAssertEnabled
	mv	a5,a0
	.loc 1 326 11
	beq	a5,zero,.L36
	.loc 1 326 41 discriminator 1
	ld	a5,-48(s0)
	.loc 1 326 40 discriminator 1
	bne	a5,zero,.L36
	.loc 1 326 75 discriminator 2
	lla	a2,.LC2
	li	a1,326
	lla	a0,.LC1
	call	UnitTestDebugAssert
.L36:
	.loc 1 327 14
	sw	zero,-20(s0)
	.loc 1 327 3
	j	.L37
.L39:
	.loc 1 328 33
	ld	a5,-48(s0)
	ld	a4,8(a5)
	.loc 1 328 59
	lwu	a5,-20(s0)
	slli	a5,a5,4
	add	a5,a4,a5
	.loc 1 328 9
	ld	a1,-32(s0)
	mv	a0,a5
	call	CompareGuid
	mv	a5,a0
	.loc 1 328 8
	beq	a5,zero,.L38
	.loc 1 332 25
	ld	a5,-48(s0)
	ld	a4,24(a5)
	.loc 1 332 54
	lwu	a5,-20(s0)
	slli	a5,a5,3
	add	a5,a4,a5
	ld	a5,0(a5)
	.loc 1 332 14
	ld	a3,-80(s0)
	ld	a2,-72(s0)
	ld	a1,-64(s0)
	ld	a0,-56(s0)
	jalr	a5
.LVL0:
	mv	a5,a0
	j	.L40
.L38:
	.loc 1 327 70 discriminator 2
	lw	a5,-20(s0)
	addiw	a5,a5,1
	sw	a5,-20(s0)
.L37:
	.loc 1 327 38 discriminator 1
	ld	a5,-48(s0)
	lw	a4,4(a5)
	.loc 1 327 3 discriminator 1
	lw	a5,-20(s0)
	sext.w	a5,a5
	bltu	a5,a4,.L39
	.loc 1 344 10
	li	a5,-1
	slli	a5,a5,63
	addi	a5,a5,3
.L40:
	.loc 1 345 1 discriminator 1
	mv	a0,a5
	ld	ra,72(sp)
	.cfi_restore 1
	ld	s0,64(sp)
	.cfi_restore 8
	.cfi_def_cfa 2, 80
	addi	sp,sp,80
	.cfi_def_cfa_offset 0
	jr	ra
	.cfi_endproc
.LFE3:
	.size	ExtractGuidedSectionGetInfo, .-ExtractGuidedSectionGetInfo
	.section	.rodata
	.align	3
.LC10:
	.string	"OutputBuffer != ((void *) 0)"
	.align	3
.LC11:
	.string	"AuthenticationStatus != ((void *) 0)"
	.section	.text.ExtractGuidedSectionDecode,"ax",@progbits
	.align	1
	.globl	ExtractGuidedSectionDecode
	.type	ExtractGuidedSectionDecode, @function
ExtractGuidedSectionDecode:
.LFB4:
	.loc 1 390 1
	.cfi_startproc
	addi	sp,sp,-80
	.cfi_def_cfa_offset 80
	sd	ra,72(sp)
	sd	s0,64(sp)
	.cfi_offset 1, -8
	.cfi_offset 8, -16
	addi	s0,sp,80
	.cfi_def_cfa 8, 0
	sd	a0,-56(s0)
	sd	a1,-64(s0)
	sd	a2,-72(s0)
	sd	a3,-80(s0)
	.loc 1 399 12
	call	DebugAssertEnabled
	mv	a5,a0
	.loc 1 399 11
	beq	a5,zero,.L42
	.loc 1 399 40 discriminator 1
	ld	a5,-56(s0)
	bne	a5,zero,.L42
	.loc 1 399 76 discriminator 2
	lla	a2,.LC6
	li	a1,399
	lla	a0,.LC1
	call	UnitTestDebugAssert
.L42:
	.loc 1 400 12
	call	DebugAssertEnabled
	mv	a5,a0
	.loc 1 400 11
	beq	a5,zero,.L43
	.loc 1 400 40 discriminator 1
	ld	a5,-64(s0)
	bne	a5,zero,.L43
	.loc 1 400 76 discriminator 2
	lla	a2,.LC10
	li	a1,400
	lla	a0,.LC1
	call	UnitTestDebugAssert
.L43:
	.loc 1 401 12
	call	DebugAssertEnabled
	mv	a5,a0
	.loc 1 401 11
	beq	a5,zero,.L44
	.loc 1 401 40 discriminator 1
	ld	a5,-80(s0)
	bne	a5,zero,.L44
	.loc 1 401 84 discriminator 2
	lla	a2,.LC11
	li	a1,401
	lla	a0,.LC1
	call	UnitTestDebugAssert
.L44:
	.loc 1 406 12
	addi	a5,s0,-48
	mv	a0,a5
	call	PeiGetExtractGuidedSectionHandlerInfo
	sd	a0,-40(s0)
	.loc 1 407 9
	ld	a5,-40(s0)
	.loc 1 407 6
	bge	a5,zero,.L45
	.loc 1 408 12
	ld	a5,-40(s0)
	j	.L53
.L45:
	.loc 1 411 81
	ld	a5,-56(s0)
	lbu	a5,0(a5)
	sext.w	a4,a5
	.loc 1 411 150
	ld	a5,-56(s0)
	lbu	a5,1(a5)
	sext.w	a5,a5
	.loc 1 411 154
	slliw	a5,a5,8
	sext.w	a5,a5
	.loc 1 411 87
	or	a5,a4,a5
	sext.w	a4,a5
	.loc 1 411 223
	ld	a5,-56(s0)
	lbu	a5,2(a5)
	sext.w	a5,a5
	.loc 1 411 227
	slliw	a5,a5,16
	sext.w	a5,a5
	.loc 1 411 160
	or	a5,a4,a5
	sext.w	a5,a5
	.loc 1 411 6
	mv	a4,a5
	li	a5,16777216
	addi	a5,a5,-1
	bne	a4,a5,.L47
	.loc 1 412 27
	ld	a5,-56(s0)
	addi	a5,a5,8
	sd	a5,-32(s0)
	j	.L48
.L47:
	.loc 1 414 27
	ld	a5,-56(s0)
	addi	a5,a5,4
	sd	a5,-32(s0)
.L48:
	.loc 1 420 12
	call	DebugAssertEnabled
	mv	a5,a0
	.loc 1 420 11
	beq	a5,zero,.L49
	.loc 1 420 41 discriminator 1
	ld	a5,-48(s0)
	.loc 1 420 40 discriminator 1
	bne	a5,zero,.L49
	.loc 1 420 75 discriminator 2
	lla	a2,.LC2
	li	a1,420
	lla	a0,.LC1
	call	UnitTestDebugAssert
.L49:
	.loc 1 421 14
	sw	zero,-20(s0)
	.loc 1 421 3
	j	.L50
.L52:
	.loc 1 422 33
	ld	a5,-48(s0)
	ld	a4,8(a5)
	.loc 1 422 59
	lwu	a5,-20(s0)
	slli	a5,a5,4
	add	a5,a4,a5
	.loc 1 422 9
	ld	a1,-32(s0)
	mv	a0,a5
	call	CompareGuid
	mv	a5,a0
	.loc 1 422 8
	beq	a5,zero,.L51
	.loc 1 426 25
	ld	a5,-48(s0)
	ld	a4,16(a5)
	.loc 1 426 53
	lwu	a5,-20(s0)
	slli	a5,a5,3
	add	a5,a4,a5
	ld	a5,0(a5)
	.loc 1 426 14
	ld	a3,-80(s0)
	ld	a2,-72(s0)
	ld	a1,-64(s0)
	ld	a0,-56(s0)
	jalr	a5
.LVL1:
	mv	a5,a0
	j	.L53
.L51:
	.loc 1 421 70 discriminator 2
	lw	a5,-20(s0)
	addiw	a5,a5,1
	sw	a5,-20(s0)
.L50:
	.loc 1 421 38 discriminator 1
	ld	a5,-48(s0)
	lw	a4,4(a5)
	.loc 1 421 3 discriminator 1
	lw	a5,-20(s0)
	sext.w	a5,a5
	bltu	a5,a4,.L52
	.loc 1 438 10
	li	a5,-1
	slli	a5,a5,63
	addi	a5,a5,3
.L53:
	.loc 1 439 1 discriminator 1
	mv	a0,a5
	ld	ra,72(sp)
	.cfi_restore 1
	ld	s0,64(sp)
	.cfi_restore 8
	.cfi_def_cfa 2, 80
	addi	sp,sp,80
	.cfi_def_cfa_offset 0
	jr	ra
	.cfi_endproc
.LFE4:
	.size	ExtractGuidedSectionDecode, .-ExtractGuidedSectionDecode
	.section	.text.ExtractGuidedSectionGetHandlers,"ax",@progbits
	.align	1
	.globl	ExtractGuidedSectionGetHandlers
	.type	ExtractGuidedSectionGetHandlers, @function
ExtractGuidedSectionGetHandlers:
.LFB5:
	.loc 1 475 1
	.cfi_startproc
	addi	sp,sp,-80
	.cfi_def_cfa_offset 80
	sd	ra,72(sp)
	sd	s0,64(sp)
	.cfi_offset 1, -8
	.cfi_offset 8, -16
	addi	s0,sp,80
	.cfi_def_cfa 8, 0
	sd	a0,-56(s0)
	sd	a1,-64(s0)
	sd	a2,-72(s0)
	.loc 1 483 12
	call	DebugAssertEnabled
	mv	a5,a0
	.loc 1 483 11
	beq	a5,zero,.L55
	.loc 1 483 40 discriminator 1
	ld	a5,-56(s0)
	bne	a5,zero,.L55
	.loc 1 483 75 discriminator 2
	lla	a2,.LC3
	li	a1,483
	lla	a0,.LC1
	call	UnitTestDebugAssert
.L55:
	.loc 1 488 12
	addi	a5,s0,-40
	mv	a0,a5
	call	PeiGetExtractGuidedSectionHandlerInfo
	sd	a0,-32(s0)
	.loc 1 489 9
	ld	a5,-32(s0)
	.loc 1 489 6
	bge	a5,zero,.L56
	.loc 1 490 12
	ld	a5,-32(s0)
	j	.L64
.L56:
	.loc 1 496 12
	call	DebugAssertEnabled
	mv	a5,a0
	.loc 1 496 11
	beq	a5,zero,.L58
	.loc 1 496 41 discriminator 1
	ld	a5,-40(s0)
	.loc 1 496 40 discriminator 1
	bne	a5,zero,.L58
	.loc 1 496 75 discriminator 2
	lla	a2,.LC2
	li	a1,496
	lla	a0,.LC1
	call	UnitTestDebugAssert
.L58:
	.loc 1 497 14
	sw	zero,-20(s0)
	.loc 1 497 3
	j	.L59
.L63:
	.loc 1 498 33
	ld	a5,-40(s0)
	ld	a4,8(a5)
	.loc 1 498 59
	lwu	a5,-20(s0)
	slli	a5,a5,4
	add	a5,a4,a5
	.loc 1 498 9
	ld	a1,-56(s0)
	mv	a0,a5
	call	CompareGuid
	mv	a5,a0
	.loc 1 498 8
	beq	a5,zero,.L60
	.loc 1 503 10
	ld	a5,-64(s0)
	beq	a5,zero,.L61
	.loc 1 504 38
	ld	a5,-40(s0)
	ld	a4,24(a5)
	.loc 1 504 66
	lwu	a5,-20(s0)
	slli	a5,a5,3
	add	a5,a4,a5
	ld	a4,0(a5)
	.loc 1 504 25
	ld	a5,-64(s0)
	sd	a4,0(a5)
.L61:
	.loc 1 506 10
	ld	a5,-72(s0)
	beq	a5,zero,.L62
	.loc 1 507 37
	ld	a5,-40(s0)
	ld	a4,16(a5)
	.loc 1 507 64
	lwu	a5,-20(s0)
	slli	a5,a5,3
	add	a5,a4,a5
	ld	a4,0(a5)
	.loc 1 507 24
	ld	a5,-72(s0)
	sd	a4,0(a5)
.L62:
	.loc 1 509 14
	li	a5,0
	j	.L64
.L60:
	.loc 1 497 70 discriminator 2
	lw	a5,-20(s0)
	addiw	a5,a5,1
	sw	a5,-20(s0)
.L59:
	.loc 1 497 38 discriminator 1
	ld	a5,-40(s0)
	lw	a4,4(a5)
	.loc 1 497 3 discriminator 1
	lw	a5,-20(s0)
	sext.w	a5,a5
	bltu	a5,a4,.L63
	.loc 1 512 10
	li	a5,-1
	slli	a5,a5,63
	addi	a5,a5,14
.L64:
	.loc 1 513 1 discriminator 1
	mv	a0,a5
	ld	ra,72(sp)
	.cfi_restore 1
	ld	s0,64(sp)
	.cfi_restore 8
	.cfi_def_cfa 2, 80
	addi	sp,sp,80
	.cfi_def_cfa_offset 0
	jr	ra
	.cfi_endproc
.LFE5:
	.size	ExtractGuidedSectionGetHandlers, .-ExtractGuidedSectionGetHandlers
	.text
.Letext0:
	.file 2 "/home/xephyr/Documents/edk2/MdePkg/Include/RiscV64/ProcessorBind.h"
	.file 3 "/home/xephyr/Documents/edk2/MdePkg/Include/Base.h"
	.file 4 "/home/xephyr/Documents/edk2/MdePkg/Include/Uefi/UefiBaseType.h"
	.file 5 "/home/xephyr/Documents/edk2/MdePkg/Include/Uefi/UefiMultiPhase.h"
	.file 6 "/home/xephyr/Documents/edk2/MdePkg/Include/Pi/PiFirmwareFile.h"
	.file 7 "/home/xephyr/Documents/edk2/MdePkg/Include/Pi/PiBootMode.h"
	.file 8 "/home/xephyr/Documents/edk2/MdePkg/Include/Pi/PiHob.h"
	.file 9 "/home/xephyr/Documents/edk2/MdePkg/Include/Guid/WinCertificate.h"
	.file 10 "/home/xephyr/Documents/edk2/MdePkg/Include/Protocol/DebugSupport.h"
	.file 11 "/home/xephyr/Documents/edk2/MdePkg/Include/Ppi/CpuIo.h"
	.file 12 "/home/xephyr/Documents/edk2/MdePkg/Include/Ppi/PciCfg2.h"
	.file 13 "/home/xephyr/Documents/edk2/Build/Mde/DEBUG_GCC5/RISCV64/MdePkg/Library/PeiExtractGuidedSectionLib/PeiExtractGuidedSectionLib/DEBUG/AutoGen.h"
	.file 14 "/home/xephyr/Documents/edk2/MdePkg/Include/Library/ExtractGuidedSectionLib.h"