	.file	"DebugLib.c"
	.option nopic
	.option norelax
	.attribute arch, "rv64i2p0_m2p0_a2p0_f2p0_d2p0_c2p0"
	.attribute unaligned_access, 0
	.attribute stack_align, 16
	.text
.Ltext0:
	.cfi_sections	.debug_frame
	.globl	mVaListNull
	.section	.bss.mVaListNull,"aw",@nobits
	.align	3
	.type	mVaListNull, @object
	.size	mVaListNull, 8
mVaListNull:
	.zero	8
	.section	.text.BaseDebugLibSerialPortConstructor,"ax",@progbits
	.align	1
	.globl	BaseDebugLibSerialPortConstructor
	.type	BaseDebugLibSerialPortConstructor, @function
BaseDebugLibSerialPortConstructor:
.LFB0:
	.file 1 "/home/xephyr/Documents/edk2/MdePkg/Library/BaseDebugLibSerialPort/DebugLib.c"
	.loc 1 46 1
	.cfi_startproc
	addi	sp,sp,-16
	.cfi_def_cfa_offset 16
	sd	ra,8(sp)
	sd	s0,0(sp)
	.cfi_offset 1, -8
	.cfi_offset 8, -16
	addi	s0,sp,16
	.cfi_def_cfa 8, 0
	.loc 1 47 10
	call	SerialPortInitialize
	mv	a5,a0
	.loc 1 48 1
	mv	a0,a5
	ld	ra,8(sp)
	.cfi_restore 1
	ld	s0,0(sp)
	.cfi_restore 8
	.cfi_def_cfa 2, 16
	addi	sp,sp,16
	.cfi_def_cfa_offset 0
	jr	ra
	.cfi_endproc
.LFE0:
	.size	BaseDebugLibSerialPortConstructor, .-BaseDebugLibSerialPortConstructor
	.section	.text.DebugPrint,"ax",@progbits
	.align	1
	.globl	DebugPrint
	.type	DebugPrint, @function
DebugPrint:
.LFB1:
	.loc 1 72 1
	.cfi_startproc
	addi	sp,sp,-112
	.cfi_def_cfa_offset 112
	sd	ra,56(sp)
	sd	s0,48(sp)
	.cfi_offset 1, -56
	.cfi_offset 8, -64
	addi	s0,sp,64
	.cfi_def_cfa 8, 48
	sd	a0,-40(s0)
	sd	a1,-48(s0)
	sd	a2,0(s0)
	sd	a3,8(s0)
	sd	a4,16(s0)
	sd	a5,24(s0)
	sd	a6,32(s0)
	sd	a7,40(s0)
	.loc 1 75 3
	addi	a5,s0,48
	sd	a5,-56(s0)
	ld	a5,-56(s0)
	addi	a5,a5,-48
	sd	a5,-24(s0)
	.loc 1 76 3
	ld	a5,-24(s0)
	mv	a2,a5
	ld	a1,-48(s0)
	ld	a0,-40(s0)
	call	DebugVPrint
	.loc 1 78 1
	nop
	ld	ra,56(sp)
	.cfi_restore 1
	ld	s0,48(sp)
	.cfi_restore 8
	.cfi_def_cfa 2, 112
	addi	sp,sp,112
	.cfi_def_cfa_offset 0
	jr	ra
	.cfi_endproc
.LFE1:
	.size	DebugPrint, .-DebugPrint
	.section	.rodata
	.align	3
.LC0:
	.string	"Format != ((void *) 0)"
	.align	3
.LC1:
	.string	"/home/xephyr/Documents/edk2/MdePkg/Library/BaseDebugLibSerialPort/DebugLib.c"
	.section	.text.DebugPrintMarker,"ax",@progbits
	.align	1
	.globl	DebugPrintMarker
	.type	DebugPrintMarker, @function
DebugPrintMarker:
.LFB2:
	.loc 1 105 1
	.cfi_startproc
	addi	sp,sp,-304
	.cfi_def_cfa_offset 304
	sd	ra,296(sp)
	sd	s0,288(sp)
	.cfi_offset 1, -8
	.cfi_offset 8, -16
	addi	s0,sp,304
	.cfi_def_cfa 8, 0
	sd	a0,-280(s0)
	sd	a1,-288(s0)
	sd	a2,-296(s0)
	sd	a3,-304(s0)
	.loc 1 111 12
	call	DebugAssertEnabled
	mv	a5,a0
	.loc 1 111 11
	beq	a5,zero,.L5
	.loc 1 111 40 discriminator 1
	ld	a5,-288(s0)
	bne	a5,zero,.L5
	.loc 1 111 70 discriminator 2
	lla	a2,.LC0
	li	a1,111
	lla	a0,.LC1
	call	UnitTestDebugAssert
.L5:
	.loc 1 116 21
	call	GetDebugPrintErrorLevel
	mv	a5,a0
	sext.w	a5,a5
	slli	a4,a5,32
	srli	a4,a4,32
	.loc 1 116 19
	ld	a5,-280(s0)
	and	a5,a4,a5
	.loc 1 116 6
	beq	a5,zero,.L10
	.loc 1 123 6
	ld	a5,-304(s0)
	bne	a5,zero,.L8
	.loc 1 124 5
	addi	a5,s0,-272
	ld	a3,-296(s0)
	ld	a2,-288(s0)
	li	a1,256
	mv	a0,a5
	call	AsciiVSPrint
	j	.L9
.L8:
	.loc 1 126 5
	addi	a5,s0,-272
	ld	a3,-304(s0)
	ld	a2,-288(s0)
	li	a1,256
	mv	a0,a5
	call	AsciiBSPrint
.L9:
	.loc 1 132 3
	addi	a5,s0,-272
	mv	a0,a5
	call	AsciiStrLen
	mv	a4,a0
	addi	a5,s0,-272
	mv	a1,a4
	mv	a0,a5
	call	SerialPortWrite
	j	.L4
.L10:
	.loc 1 117 5
	nop
.L4:
	.loc 1 133 1
	ld	ra,296(sp)
	.cfi_restore 1
	ld	s0,288(sp)
	.cfi_restore 8
	.cfi_def_cfa 2, 304
	addi	sp,sp,304
	.cfi_def_cfa_offset 0
	jr	ra
	.cfi_endproc
.LFE2:
	.size	DebugPrintMarker, .-DebugPrintMarker
	.section	.text.DebugVPrint,"ax",@progbits
	.align	1
	.globl	DebugVPrint
	.type	DebugVPrint, @function
DebugVPrint:
.LFB3:
	.loc 1 158 1
	.cfi_startproc
	addi	sp,sp,-48
	.cfi_def_cfa_offset 48
	sd	ra,40(sp)
	sd	s0,32(sp)
	.cfi_offset 1, -8
	.cfi_offset 8, -16
	addi	s0,sp,48
	.cfi_def_cfa 8, 0
	sd	a0,-24(s0)
	sd	a1,-32(s0)
	sd	a2,-40(s0)
	.loc 1 159 3
	li	a3,0
	ld	a2,-40(s0)
	ld	a1,-32(s0)
	ld	a0,-24(s0)
	call	DebugPrintMarker
	.loc 1 160 1
	nop
	ld	ra,40(sp)
	.cfi_restore 1
	ld	s0,32(sp)
	.cfi_restore 8
	.cfi_def_cfa 2, 48
	addi	sp,sp,48
	.cfi_def_cfa_offset 0
	jr	ra
	.cfi_endproc
.LFE3:
	.size	DebugVPrint, .-DebugVPrint
	.section	.text.DebugBPrint,"ax",@progbits
	.align	1
	.globl	DebugBPrint
	.type	DebugBPrint, @function
DebugBPrint:
.LFB4:
	.loc 1 187 1
	.cfi_startproc
	addi	sp,sp,-48
	.cfi_def_cfa_offset 48
	sd	ra,40(sp)
	sd	s0,32(sp)
	.cfi_offset 1, -8
	.cfi_offset 8, -16
	addi	s0,sp,48
	.cfi_def_cfa 8, 0
	sd	a0,-24(s0)
	sd	a1,-32(s0)
	sd	a2,-40(s0)
	.loc 1 188 3
	lla	a5,mVaListNull
	ld	a5,0(a5)
	ld	a3,-40(s0)
	mv	a2,a5
	ld	a1,-32(s0)
	ld	a0,-24(s0)
	call	DebugPrintMarker
	.loc 1 189 1
	nop
	ld	ra,40(sp)
	.cfi_restore 1
	ld	s0,32(sp)
	.cfi_restore 8
	.cfi_def_cfa 2, 48
	addi	sp,sp,48
	.cfi_def_cfa_offset 0
	jr	ra
	.cfi_endproc
.LFE4:
	.size	DebugBPrint, .-DebugBPrint
	.section	.rodata
	.align	3
.LC2:
	.string	"ASSERT [%a] %a(%d): %a\n"
	.section	.text.DebugAssert,"ax",@progbits
	.align	1
	.globl	DebugAssert
	.type	DebugAssert, @function
DebugAssert:
.LFB5:
	.loc 1 220 1
	.cfi_startproc
	addi	sp,sp,-304
	.cfi_def_cfa_offset 304
	sd	ra,296(sp)
	sd	s0,288(sp)
	.cfi_offset 1, -8
	.cfi_offset 8, -16
	addi	s0,sp,304
	.cfi_def_cfa 8, 0
	sd	a0,-280(s0)
	sd	a1,-288(s0)
	sd	a2,-296(s0)
	.loc 1 226 3
	lla	a5,gEfiCallerBaseName
	ld	a3,0(a5)
	addi	a0,s0,-272
	ld	a6,-296(s0)
	ld	a5,-288(s0)
	ld	a4,-280(s0)
	lla	a2,.LC2
	li	a1,256
	call	AsciiSPrint
	.loc 1 231 3
	addi	a5,s0,-272
	mv	a0,a5
	call	AsciiStrLen
	mv	a4,a0
	addi	a5,s0,-272
	mv	a1,a4
	mv	a0,a5
	call	SerialPortWrite
	.loc 1 236 48
	lla	a5,_gPcd_FixedAtBuild_PcdDebugPropertyMask
	lbu	a5,0(a5)
	sext.w	a5,a5
	andi	a5,a5,16
	sext.w	a5,a5
	.loc 1 236 6
	beq	a5,zero,.L14
	.loc 1 237 5
	call	CpuBreakpoint
	.loc 1 241 1
	j	.L16
.L14:
	.loc 1 238 55
	lla	a5,_gPcd_FixedAtBuild_PcdDebugPropertyMask
	lbu	a5,0(a5)
	sext.w	a5,a5
	andi	a5,a5,32
	sext.w	a5,a5
	.loc 1 238 13
	beq	a5,zero,.L16
	.loc 1 239 5
	call	CpuDeadLoop
.L16:
	.loc 1 241 1
	nop
	ld	ra,296(sp)
	.cfi_restore 1
	ld	s0,288(sp)
	.cfi_restore 8
	.cfi_def_cfa 2, 304
	addi	sp,sp,304
	.cfi_def_cfa_offset 0
	jr	ra
	.cfi_endproc
.LFE5:
	.size	DebugAssert, .-DebugAssert
	.section	.rodata
	.align	3
.LC3:
	.string	"Buffer != ((void *) 0)"
	.section	.text.DebugClearMemory,"ax",@progbits
	.align	1
	.globl	DebugClearMemory
	.type	DebugClearMemory, @function
DebugClearMemory:
.LFB6:
	.loc 1 265 1
	.cfi_startproc
	addi	sp,sp,-32
	.cfi_def_cfa_offset 32
	sd	ra,24(sp)
	sd	s0,16(sp)
	.cfi_offset 1, -8
	.cfi_offset 8, -16
	addi	s0,sp,32
	.cfi_def_cfa 8, 0
	sd	a0,-24(s0)
	sd	a1,-32(s0)
	.loc 1 269 12
	call	DebugAssertEnabled
	mv	a5,a0
	.loc 1 269 11
	beq	a5,zero,.L18
	.loc 1 269 40 discriminator 1
	ld	a5,-24(s0)
	bne	a5,zero,.L18
	.loc 1 269 70 discriminator 2
	lla	a2,.LC3
	li	a1,269
	lla	a0,.LC1
	call	UnitTestDebugAssert
.L18:
	.loc 1 274 10
	lla	a5,_gPcd_FixedAtBuild_PcdDebugClearMemoryValue
	lbu	a5,0(a5)
	mv	a2,a5
	ld	a1,-32(s0)
	ld	a0,-24(s0)
	call	SetMem
	mv	a5,a0
	.loc 1 275 1
	mv	a0,a5
	ld	ra,24(sp)
	.cfi_restore 1
	ld	s0,16(sp)
	.cfi_restore 8
	.cfi_def_cfa 2, 32
	addi	sp,sp,32
	.cfi_def_cfa_offset 0
	jr	ra
	.cfi_endproc
.LFE6:
	.size	DebugClearMemory, .-DebugClearMemory
	.section	.text.DebugAssertEnabled,"ax",@progbits
	.align	1
	.globl	DebugAssertEnabled
	.type	DebugAssertEnabled, @function
DebugAssertEnabled:
.LFB7:
	.loc 1 293 1
	.cfi_startproc
	addi	sp,sp,-16
	.cfi_def_cfa_offset 16
	sd	s0,8(sp)
	.cfi_offset 8, -8
	addi	s0,sp,16
	.cfi_def_cfa 8, 0
	.loc 1 294 62
	lla	a5,_gPcd_FixedAtBuild_PcdDebugPropertyMask
	lbu	a5,0(a5)
	sext.w	a5,a5
	andi	a5,a5,1
	sext.w	a5,a5
	.loc 1 294 10
	snez	a5,a5
	andi	a5,a5,0xff
	.loc 1 295 1
	mv	a0,a5
	ld	s0,8(sp)
	.cfi_restore 8
	.cfi_def_cfa 2, 16
	addi	sp,sp,16
	.cfi_def_cfa_offset 0
	jr	ra
	.cfi_endproc
.LFE7:
	.size	DebugAssertEnabled, .-DebugAssertEnabled
	.section	.text.DebugPrintEnabled,"ax",@progbits
	.align	1
	.globl	DebugPrintEnabled
	.type	DebugPrintEnabled, @function
DebugPrintEnabled:
.LFB8:
	.loc 1 313 1
	.cfi_startproc
	addi	sp,sp,-16
	.cfi_def_cfa_offset 16
	sd	s0,8(sp)
	.cfi_offset 8, -8
	addi	s0,sp,16
	.cfi_def_cfa 8, 0
	.loc 1 314 62
	lla	a5,_gPcd_FixedAtBuild_PcdDebugPropertyMask
	lbu	a5,0(a5)
	sext.w	a5,a5
	andi	a5,a5,2
	sext.w	a5,a5
	.loc 1 314 10
	snez	a5,a5
	andi	a5,a5,0xff
	.loc 1 315 1
	mv	a0,a5
	ld	s0,8(sp)
	.cfi_restore 8
	.cfi_def_cfa 2, 16
	addi	sp,sp,16
	.cfi_def_cfa_offset 0
	jr	ra
	.cfi_endproc
.LFE8:
	.size	DebugPrintEnabled, .-DebugPrintEnabled
	.section	.text.DebugCodeEnabled,"ax",@progbits
	.align	1
	.globl	DebugCodeEnabled
	.type	DebugCodeEnabled, @function
DebugCodeEnabled:
.LFB9:
	.loc 1 333 1
	.cfi_startproc
	addi	sp,sp,-16
	.cfi_def_cfa_offset 16
	sd	s0,8(sp)
	.cfi_offset 8, -8
	addi	s0,sp,16
	.cfi_def_cfa 8, 0
	.loc 1 334 62
	lla	a5,_gPcd_FixedAtBuild_PcdDebugPropertyMask
	lbu	a5,0(a5)
	sext.w	a5,a5
	andi	a5,a5,4
	sext.w	a5,a5
	.loc 1 334 10
	snez	a5,a5
	andi	a5,a5,0xff
	.loc 1 335 1
	mv	a0,a5
	ld	s0,8(sp)
	.cfi_restore 8
	.cfi_def_cfa 2, 16
	addi	sp,sp,16
	.cfi_def_cfa_offset 0
	jr	ra
	.cfi_endproc
.LFE9:
	.size	DebugCodeEnabled, .-DebugCodeEnabled
	.section	.text.DebugClearMemoryEnabled,"ax",@progbits
	.align	1
	.globl	DebugClearMemoryEnabled
	.type	DebugClearMemoryEnabled, @function
DebugClearMemoryEnabled:
.LFB10:
	.loc 1 353 1
	.cfi_startproc
	addi	sp,sp,-16
	.cfi_def_cfa_offset 16
	sd	s0,8(sp)
	.cfi_offset 8, -8
	addi	s0,sp,16
	.cfi_def_cfa 8, 0
	.loc 1 354 62
	lla	a5,_gPcd_FixedAtBuild_PcdDebugPropertyMask
	lbu	a5,0(a5)
	sext.w	a5,a5
	andi	a5,a5,8
	sext.w	a5,a5
	.loc 1 354 10
	snez	a5,a5
	andi	a5,a5,0xff
	.loc 1 355 1
	mv	a0,a5
	ld	s0,8(sp)
	.cfi_restore 8
	.cfi_def_cfa 2, 16
	addi	sp,sp,16
	.cfi_def_cfa_offset 0
	jr	ra
	.cfi_endproc
.LFE10:
	.size	DebugClearMemoryEnabled, .-DebugClearMemoryEnabled
	.section	.text.DebugPrintLevelEnabled,"ax",@progbits
	.align	1
	.globl	DebugPrintLevelEnabled
	.type	DebugPrintLevelEnabled, @function
DebugPrintLevelEnabled:
.LFB11:
	.loc 1 371 1
	.cfi_startproc
	addi	sp,sp,-32
	.cfi_def_cfa_offset 32
	sd	s0,24(sp)
	.cfi_offset 8, -8
	addi	s0,sp,32
	.cfi_def_cfa 8, 0
	sd	a0,-24(s0)
	.loc 1 372 33
	lla	a5,_gPcd_FixedAtBuild_PcdFixedDebugPrintErrorLevel
	lw	a5,0(a5)
	slli	a4,a5,32
	srli	a4,a4,32
	ld	a5,-24(s0)
	and	a5,a4,a5
	.loc 1 372 10
	snez	a5,a5
	andi	a5,a5,0xff
	.loc 1 373 1
	mv	a0,a5
	ld	s0,24(sp)
	.cfi_restore 8
	.cfi_def_cfa 2, 32
	addi	sp,sp,32
	.cfi_def_cfa_offset 0
	jr	ra
	.cfi_endproc
.LFE11:
	.size	DebugPrintLevelEnabled, .-DebugPrintLevelEnabled
	.text
.Letext0:
	.file 2 "/home/xephyr/Documents/edk2/MdePkg/Include/RiscV64/ProcessorBind.h"
	.file 3 "/home/xephyr/Documents/edk2/MdePkg/Include/Base.h"
	.file 4 "/home/xephyr/Documents/edk2/Build/Mde/DEBUG_GCC5/RISCV64/MdePkg/Library/BaseDebugLibSerialPort/BaseDebugLibSerialPort/DEBUG/AutoGen.h"
	.file 5 "/home/xephyr/Documents/edk2/MdePkg/Include/Uefi/UefiBaseType.h"
	.file 6 "/home/xephyr/Documents/edk2/MdePkg/Include/Protocol/SerialIo.h"