	.file	"PciSegmentLib.c"
	.option nopic
	.option norelax
	.attribute arch, "rv64i2p0_m2p0_a2p0_f2p0_d2p0_c2p0"
	.attribute unaligned_access, 0
	.attribute stack_align, 16
	.text
.Ltext0:
	.cfi_sections	.debug_frame
	.globl	mPciRootBridgeData
	.section	.bss.mPciRootBridgeData,"aw",@nobits
	.align	3
	.type	mPciRootBridgeData, @object
	.size	mPciRootBridgeData, 8
mPciRootBridgeData:
	.zero	8
	.globl	mNumberOfPciRootBridges
	.section	.bss.mNumberOfPciRootBridges,"aw",@nobits
	.align	3
	.type	mNumberOfPciRootBridges, @object
	.size	mNumberOfPciRootBridges, 8
mNumberOfPciRootBridges:
	.zero	8
	.section	.rodata
	.align	3
.LC0:
	.string	"\nASSERT_EFI_ERROR (Status = %r)\n"
	.align	3
.LC1:
	.string	"!EFI_ERROR (Status)"
	.align	3
.LC2:
	.string	"/home/xephyr/Documents/edk2/MdePkg/Library/UefiPciSegmentLibPciRootBridgeIo/PciSegmentLib.c"
	.align	3
.LC3:
	.string	"mPciRootBridgeData != ((void *) 0)"
	.align	3
.LC4:
	.string	"Descriptors->Desc != 0x79"
	.section	.text.PciSegmentLibConstructor,"ax",@progbits
	.align	1
	.globl	PciSegmentLibConstructor
	.type	PciSegmentLibConstructor, @function
PciSegmentLibConstructor:
.LFB0:
	.file 1 "/home/xephyr/Documents/edk2/MdePkg/Library/UefiPciSegmentLibPciRootBridgeIo/PciSegmentLib.c"
	.loc 1 36 1
	.cfi_startproc
	addi	sp,sp,-80
	.cfi_def_cfa_offset 80
	sd	ra,72(sp)
	sd	s0,64(sp)
	.cfi_offset 1, -8
	.cfi_offset 8, -16
	addi	s0,sp,80
	.cfi_def_cfa 8, 0
	sd	a0,-72(s0)
	sd	a1,-80(s0)
	.loc 1 44 15
	sd	zero,-40(s0)
	.loc 1 45 16
	sd	zero,-48(s0)
	.loc 1 46 19
	sd	zero,-56(s0)
	.loc 1 47 15
	sd	zero,-64(s0)
	.loc 1 49 15
	lla	a5,gBS
	ld	a5,0(a5)
	ld	a6,312(a5)
	.loc 1 49 12
	addi	a4,s0,-48
	addi	a5,s0,-40
	mv	a3,a5
	li	a2,0
	lla	a1,gEfiPciRootBridgeIoProtocolGuid
	li	a0,2
	jalr	a6
.LVL0:
	sd	a0,-32(s0)
	.loc 1 56 12
	call	DebugAssertEnabled
	mv	a5,a0
	.loc 1 56 11
	beq	a5,zero,.L2
	.loc 1 56 43 discriminator 1
	ld	a5,-32(s0)
	.loc 1 56 40 discriminator 1
	bge	a5,zero,.L2
	.loc 1 56 91 discriminator 2
	call	DebugPrintEnabled
	mv	a5,a0
	.loc 1 56 90 discriminator 2
	beq	a5,zero,.L3
	.loc 1 56 124 discriminator 3
	li	a5,1
	slli	a0,a5,31
	call	DebugPrintLevelEnabled
	mv	a5,a0
	.loc 1 56 123 discriminator 3
	beq	a5,zero,.L3
	.loc 1 56 163 discriminator 5
	ld	a2,-32(s0)
	lla	a1,.LC0
	li	a5,1
	slli	a0,a5,31
	call	DebugPrint
.L3:
	.loc 1 56 296 discriminator 7
	lla	a2,.LC1
	li	a1,56
	lla	a0,.LC2
	call	UnitTestDebugAssert
.L2:
	.loc 1 58 27
	ld	a4,-40(s0)
	lla	a5,mNumberOfPciRootBridges
	sd	a4,0(a5)
	.loc 1 60 24
	ld	a5,-40(s0)
	slli	a5,a5,5
	mv	a0,a5
	call	AllocatePool
	mv	a4,a0
	.loc 1 60 22
	lla	a5,mPciRootBridgeData
	sd	a4,0(a5)
	.loc 1 61 12
	call	DebugAssertEnabled
	mv	a5,a0
	.loc 1 61 11
	beq	a5,zero,.L4
	.loc 1 61 41 discriminator 1
	lla	a5,mPciRootBridgeData
	ld	a5,0(a5)
	.loc 1 61 40 discriminator 1
	bne	a5,zero,.L4
	.loc 1 61 82 discriminator 2
	lla	a2,.LC3
	li	a1,61
	lla	a0,.LC2
	call	UnitTestDebugAssert
.L4:
	.loc 1 67 14
	sd	zero,-24(s0)
	.loc 1 67 3
	j	.L5
.L15:
	.loc 1 68 17
	lla	a5,gBS
	ld	a5,0(a5)
	ld	a3,152(a5)
	.loc 1 69 33
	ld	a4,-48(s0)
	ld	a5,-24(s0)
	slli	a5,a5,3
	add	a5,a4,a5
	.loc 1 68 14
	ld	a5,0(a5)
	addi	a4,s0,-56
	mv	a2,a4
	lla	a1,gEfiPciRootBridgeIoProtocolGuid
	mv	a0,a5
	jalr	a3
.LVL1:
	sd	a0,-32(s0)
	.loc 1 73 14
	call	DebugAssertEnabled
	mv	a5,a0
	.loc 1 73 13
	beq	a5,zero,.L6
	.loc 1 73 45 discriminator 1
	ld	a5,-32(s0)
	.loc 1 73 42 discriminator 1
	bge	a5,zero,.L6
	.loc 1 73 93 discriminator 2
	call	DebugPrintEnabled
	mv	a5,a0
	.loc 1 73 92 discriminator 2
	beq	a5,zero,.L7
	.loc 1 73 126 discriminator 3
	li	a5,1
	slli	a0,a5,31
	call	DebugPrintLevelEnabled
	mv	a5,a0
	.loc 1 73 125 discriminator 3
	beq	a5,zero,.L7
	.loc 1 73 165 discriminator 5
	ld	a2,-32(s0)
	lla	a1,.LC0
	li	a5,1
	slli	a0,a5,31
	call	DebugPrint
.L7:
	.loc 1 73 298 discriminator 7
	lla	a2,.LC1
	li	a1,73
	lla	a0,.LC2
	call	UnitTestDebugAssert
.L6:
	.loc 1 75 23
	lla	a5,mPciRootBridgeData
	ld	a4,0(a5)
	ld	a5,-24(s0)
	slli	a5,a5,5
	add	a5,a4,a5
	.loc 1 75 47
	ld	a4,-56(s0)
	sd	a4,0(a5)
	.loc 1 76 62
	ld	a4,-56(s0)
	.loc 1 76 23
	lla	a5,mPciRootBridgeData
	ld	a3,0(a5)
	ld	a5,-24(s0)
	slli	a5,a5,5
	add	a5,a3,a5
	.loc 1 76 62
	lw	a4,144(a4)
	.loc 1 76 45
	sw	a4,8(a5)
	.loc 1 78 29
	ld	a5,-56(s0)
	ld	a3,136(a5)
	.loc 1 78 14
	ld	a5,-56(s0)
	addi	a4,s0,-64
	mv	a1,a4
	mv	a0,a5
	jalr	a3
.LVL2:
	sd	a0,-32(s0)
	.loc 1 79 14
	call	DebugAssertEnabled
	mv	a5,a0
	.loc 1 79 13
	beq	a5,zero,.L10
	.loc 1 79 45 discriminator 1
	ld	a5,-32(s0)
	.loc 1 79 42 discriminator 1
	bge	a5,zero,.L10
	.loc 1 79 93 discriminator 2
	call	DebugPrintEnabled
	mv	a5,a0
	.loc 1 79 92 discriminator 2
	beq	a5,zero,.L9
	.loc 1 79 126 discriminator 3
	li	a5,1
	slli	a0,a5,31
	call	DebugPrintLevelEnabled
	mv	a5,a0
	.loc 1 79 125 discriminator 3
	beq	a5,zero,.L9
	.loc 1 79 165 discriminator 5
	ld	a2,-32(s0)
	lla	a1,.LC0
	li	a5,1
	slli	a0,a5,31
	call	DebugPrint
.L9:
	.loc 1 79 298 discriminator 7
	lla	a2,.LC1
	li	a1,79
	lla	a0,.LC2
	call	UnitTestDebugAssert
	.loc 1 81 11 discriminator 7
	j	.L10
.L13:
	.loc 1 82 22
	ld	a5,-64(s0)
	lbu	a5,3(a5)
	.loc 1 82 10
	mv	a4,a5
	li	a5,2
	bne	a4,a5,.L11
	.loc 1 83 61
	ld	a5,-64(s0)
	.loc 1 83 27
	lla	a4,mPciRootBridgeData
	ld	a3,0(a4)
	ld	a4,-24(s0)
	slli	a4,a4,5
	add	a4,a3,a4
	.loc 1 83 61
	lbu	a3,14(a5)
	lbu	a2,15(a5)
	slli	a2,a2,8
	or	a3,a2,a3
	lbu	a2,16(a5)
	slli	a2,a2,16
	or	a3,a2,a3
	lbu	a2,17(a5)
	slli	a2,a2,24
	or	a3,a2,a3
	lbu	a2,18(a5)
	slli	a2,a2,32
	or	a3,a2,a3
	lbu	a2,19(a5)
	slli	a2,a2,40
	or	a3,a2,a3
	lbu	a2,20(a5)
	slli	a2,a2,48
	or	a3,a2,a3
	lbu	a5,21(a5)
	slli	a5,a5,56
	or	a5,a5,a3
	.loc 1 83 48
	sd	a5,16(a4)
	.loc 1 84 61
	ld	a5,-64(s0)
	.loc 1 84 27
	lla	a4,mPciRootBridgeData
	ld	a3,0(a4)
	ld	a4,-24(s0)
	slli	a4,a4,5
	add	a4,a3,a4
	.loc 1 84 61
	lbu	a3,22(a5)
	lbu	a2,23(a5)
	slli	a2,a2,8
	or	a3,a2,a3
	lbu	a2,24(a5)
	slli	a2,a2,16
	or	a3,a2,a3
	lbu	a2,25(a5)
	slli	a2,a2,24
	or	a3,a2,a3
	lbu	a2,26(a5)
	slli	a2,a2,32
	or	a3,a2,a3
	lbu	a2,27(a5)
	slli	a2,a2,40
	or	a3,a2,a3
	lbu	a2,28(a5)
	slli	a2,a2,48
	or	a3,a2,a3
	lbu	a5,29(a5)
	slli	a5,a5,56
	or	a5,a5,a3
	.loc 1 84 48
	sd	a5,24(a4)
	.loc 1 85 9
	j	.L12
.L11:
	.loc 1 87 18
	ld	a5,-64(s0)
	addi	a5,a5,46
	sd	a5,-64(s0)
.L10:
	.loc 1 81 23
	ld	a5,-64(s0)
	lbu	a5,0(a5)
	.loc 1 81 11
	mv	a4,a5
	li	a5,121
	bne	a4,a5,.L13
.L12:
	.loc 1 89 14
	call	DebugAssertEnabled
	mv	a5,a0
	.loc 1 89 13
	beq	a5,zero,.L14
	.loc 1 89 56 discriminator 1
	ld	a5,-64(s0)
	lbu	a5,0(a5)
	.loc 1 89 42 discriminator 1
	mv	a4,a5
	li	a5,121
	bne	a4,a5,.L14
	.loc 1 89 75 discriminator 2
	lla	a2,.LC4
	li	a1,89
	lla	a0,.LC2
	call	UnitTestDebugAssert
.L14:
	.loc 1 67 45 discriminator 2
	ld	a5,-24(s0)
	addi	a5,a5,1
	sd	a5,-24(s0)
.L5:
	.loc 1 67 25 discriminator 1
	ld	a5,-40(s0)
	.loc 1 67 3 discriminator 1
	ld	a4,-24(s0)
	bltu	a4,a5,.L15
	.loc 1 92 3
	ld	a5,-48(s0)
	mv	a0,a5
	call	FreePool
	.loc 1 94 10
	li	a5,0
	.loc 1 95 1
	mv	a0,a5
	ld	ra,72(sp)
	.cfi_restore 1
	ld	s0,64(sp)
	.cfi_restore 8
	.cfi_def_cfa 2, 80
	addi	sp,sp,80
	.cfi_def_cfa_offset 0
	jr	ra
	.cfi_endproc
.LFE0:
	.size	PciSegmentLibConstructor, .-PciSegmentLibConstructor
	.section	.text.PciSegmentLibDestructor,"ax",@progbits
	.align	1
	.globl	PciSegmentLibDestructor
	.type	PciSegmentLibDestructor, @function
PciSegmentLibDestructor:
.LFB1:
	.loc 1 115 1
	.cfi_startproc
	addi	sp,sp,-32
	.cfi_def_cfa_offset 32
	sd	ra,24(sp)
	sd	s0,16(sp)
	.cfi_offset 1, -8
	.cfi_offset 8, -16
	addi	s0,sp,32
	.cfi_def_cfa 8, 0
	sd	a0,-24(s0)
	sd	a1,-32(s0)
	.loc 1 116 3
	lla	a5,mPciRootBridgeData
	ld	a5,0(a5)
	mv	a0,a5
	call	FreePool
	.loc 1 118 10
	li	a5,0
	.loc 1 119 1
	mv	a0,a5
	ld	ra,24(sp)
	.cfi_restore 1
	ld	s0,16(sp)
	.cfi_restore 8
	.cfi_def_cfa 2, 32
	addi	sp,sp,32
	.cfi_def_cfa_offset 0
	jr	ra
	.cfi_endproc
.LFE1:
	.size	PciSegmentLibDestructor, .-PciSegmentLibDestructor
	.section	.text.PciSegmentLibSearchForRootBridge,"ax",@progbits
	.align	1
	.globl	PciSegmentLibSearchForRootBridge
	.type	PciSegmentLibSearchForRootBridge, @function
PciSegmentLibSearchForRootBridge:
.LFB2:
	.loc 1 137 1
	.cfi_startproc
	addi	sp,sp,-64
	.cfi_def_cfa_offset 64
	sd	ra,56(sp)
	sd	s0,48(sp)
	.cfi_offset 1, -8
	.cfi_offset 8, -16
	addi	s0,sp,64
	.cfi_def_cfa 8, 0
	sd	a0,-56(s0)
	.loc 1 142 14
	sd	zero,-24(s0)
	.loc 1 142 3
	j	.L20
.L23:
	.loc 1 146 21
	li	a2,63
	li	a1,32
	ld	a0,-56(s0)
	call	BitFieldRead64
	sd	a0,-32(s0)
	.loc 1 147 44
	lla	a5,mPciRootBridgeData
	ld	a4,0(a5)
	ld	a5,-24(s0)
	slli	a5,a5,5
	add	a5,a4,a5
	.loc 1 147 51
	lw	a5,8(a5)
	slli	a5,a5,32
	srli	a5,a5,32
	.loc 1 147 8
	ld	a4,-32(s0)
	bne	a4,a5,.L21
	.loc 1 151 19
	li	a2,27
	li	a1,20
	ld	a0,-56(s0)
	call	BitFieldRead64
	sd	a0,-40(s0)
	.loc 1 152 42
	lla	a5,mPciRootBridgeData
	ld	a4,0(a5)
	ld	a5,-24(s0)
	slli	a5,a5,5
	add	a5,a4,a5
	.loc 1 152 49
	ld	a5,16(a5)
	.loc 1 152 10
	ld	a4,-40(s0)
	bltu	a4,a5,.L21
	.loc 1 152 97 discriminator 1
	lla	a5,mPciRootBridgeData
	ld	a4,0(a5)
	ld	a5,-24(s0)
	slli	a5,a5,5
	add	a5,a4,a5
	.loc 1 152 104 discriminator 1
	ld	a5,24(a5)
	.loc 1 152 63 discriminator 1
	ld	a4,-40(s0)
	bgtu	a4,a5,.L21
	.loc 1 153 34
	lla	a5,mPciRootBridgeData
	ld	a4,0(a5)
	ld	a5,-24(s0)
	slli	a5,a5,5
	add	a5,a4,a5
	.loc 1 153 41
	ld	a5,0(a5)
	j	.L22
.L21:
	.loc 1 142 57 discriminator 2
	ld	a5,-24(s0)
	addi	a5,a5,1
	sd	a5,-24(s0)
.L20:
	.loc 1 142 25 discriminator 1
	lla	a5,mNumberOfPciRootBridges
	ld	a5,0(a5)
	.loc 1 142 3 discriminator 1
	ld	a4,-24(s0)
	bltu	a4,a5,.L23
	.loc 1 157 10
	li	a5,0
.L22:
	.loc 1 158 1
	mv	a0,a5
	ld	ra,56(sp)
	.cfi_restore 1
	ld	s0,48(sp)
	.cfi_restore 8
	.cfi_def_cfa 2, 64
	addi	sp,sp,64
	.cfi_def_cfa_offset 0
	jr	ra
	.cfi_endproc
.LFE2:
	.size	PciSegmentLibSearchForRootBridge, .-PciSegmentLibSearchForRootBridge
	.section	.rodata
	.align	3
.LC5:
	.string	"PciRootBridgeIo != ((void *) 0)"
	.section	.text.DxePciSegmentLibPciRootBridgeIoReadWorker,"ax",@progbits
	.align	1
	.globl	DxePciSegmentLibPciRootBridgeIoReadWorker
	.type	DxePciSegmentLibPciRootBridgeIoReadWorker, @function
DxePciSegmentLibPciRootBridgeIoReadWorker:
.LFB3:
	.loc 1 179 1
	.cfi_startproc
	addi	sp,sp,-64
	.cfi_def_cfa_offset 64
	sd	ra,56(sp)
	sd	s0,48(sp)
	sd	s1,40(sp)
	sd	s2,32(sp)
	.cfi_offset 1, -8
	.cfi_offset 8, -16
	.cfi_offset 9, -24
	.cfi_offset 18, -32
	addi	s0,sp,64
	.cfi_def_cfa 8, 0
	sd	a0,-56(s0)
	mv	a5,a1
	sw	a5,-60(s0)
	.loc 1 183 21
	ld	a0,-56(s0)
	call	PciSegmentLibSearchForRootBridge
	sd	a0,-40(s0)
	.loc 1 184 12
	call	DebugAssertEnabled
	mv	a5,a0
	.loc 1 184 11
	beq	a5,zero,.L25
	.loc 1 184 40 discriminator 1
	ld	a5,-40(s0)
	bne	a5,zero,.L25
	.loc 1 184 79 discriminator 2
	lla	a2,.LC5
	li	a1,184
	lla	a0,.LC2
	call	UnitTestDebugAssert
.L25:
	.loc 1 186 23
	ld	a5,-40(s0)
	ld	s2,56(a5)
	.loc 1 189 29
	ld	a5,-56(s0)
	sext.w	a5,a5
	.loc 1 189 47
	slliw	a5,a5,4
	sext.w	a5,a5
	.loc 1 189 53
	mv	a4,a5
	li	a5,-16777216
	and	a5,a4,a5
	sext.w	a4,a5
	.loc 1 189 71
	ld	a5,-56(s0)
	sext.w	a5,a5
	.loc 1 189 89
	srliw	a5,a5,4
	sext.w	a5,a5
	.loc 1 189 95
	andi	a5,a5,1792
	sext.w	a5,a5
	.loc 1 189 67
	or	a5,a4,a5
	sext.w	a4,a5
	.loc 1 189 113
	ld	a5,-56(s0)
	sext.w	a5,a5
	.loc 1 189 131
	slliw	a5,a5,1
	sext.w	a5,a5
	.loc 1 189 137
	mv	a3,a5
	li	a5,2031616
	and	a5,a3,a5
	sext.w	a5,a5
	.loc 1 189 109
	or	a5,a4,a5
	sext.w	a5,a5
	slli	s1,a5,32
	srli	s1,s1,32
	.loc 1 189 154
	ld	a4,-56(s0)
	li	a5,4096
	addi	a5,a5,-1
	and	a5,a4,a5
	li	a1,32
	mv	a0,a5
	call	LShiftU64
	mv	a5,a0
	.loc 1 186 3
	or	a2,s1,a5
	addi	a4,s0,-44
	lw	a5,-60(s0)
	li	a3,1
	mv	a1,a5
	ld	a0,-40(s0)
	jalr	s2
.LVL3:
	.loc 1 194 10
	lw	a5,-44(s0)
	.loc 1 195 1
	mv	a0,a5
	ld	ra,56(sp)
	.cfi_restore 1
	ld	s0,48(sp)
	.cfi_restore 8
	.cfi_def_cfa 2, 64
	ld	s1,40(sp)
	.cfi_restore 9
	ld	s2,32(sp)
	.cfi_restore 18
	addi	sp,sp,64
	.cfi_def_cfa_offset 0
	jr	ra
	.cfi_endproc
.LFE3:
	.size	DxePciSegmentLibPciRootBridgeIoReadWorker, .-DxePciSegmentLibPciRootBridgeIoReadWorker
	.section	.text.DxePciSegmentLibPciRootBridgeIoWriteWorker,"ax",@progbits
	.align	1
	.globl	DxePciSegmentLibPciRootBridgeIoWriteWorker
	.type	DxePciSegmentLibPciRootBridgeIoWriteWorker, @function
DxePciSegmentLibPciRootBridgeIoWriteWorker:
.LFB4:
	.loc 1 219 1
	.cfi_startproc
	addi	sp,sp,-64
	.cfi_def_cfa_offset 64
	sd	ra,56(sp)
	sd	s0,48(sp)
	sd	s1,40(sp)
	sd	s2,32(sp)
	.cfi_offset 1, -8
	.cfi_offset 8, -16
	.cfi_offset 9, -24
	.cfi_offset 18, -32
	addi	s0,sp,64
	.cfi_def_cfa 8, 0
	sd	a0,-56(s0)
	mv	a5,a1
	mv	a4,a2
	sw	a5,-60(s0)
	mv	a5,a4
	sw	a5,-64(s0)
	.loc 1 222 21
	ld	a0,-56(s0)
	call	PciSegmentLibSearchForRootBridge
	sd	a0,-40(s0)
	.loc 1 223 12
	call	DebugAssertEnabled
	mv	a5,a0
	.loc 1 223 11
	beq	a5,zero,.L28
	.loc 1 223 40 discriminator 1
	ld	a5,-40(s0)
	bne	a5,zero,.L28
	.loc 1 223 79 discriminator 2
	lla	a2,.LC5
	li	a1,223
	lla	a0,.LC2
	call	UnitTestDebugAssert
.L28:
	.loc 1 225 23
	ld	a5,-40(s0)
	ld	s2,64(a5)
	.loc 1 228 29
	ld	a5,-56(s0)
	sext.w	a5,a5
	.loc 1 228 47
	slliw	a5,a5,4
	sext.w	a5,a5
	.loc 1 228 53
	mv	a4,a5
	li	a5,-16777216
	and	a5,a4,a5
	sext.w	a4,a5
	.loc 1 228 71
	ld	a5,-56(s0)
	sext.w	a5,a5
	.loc 1 228 89
	srliw	a5,a5,4
	sext.w	a5,a5
	.loc 1 228 95
	andi	a5,a5,1792
	sext.w	a5,a5
	.loc 1 228 67
	or	a5,a4,a5
	sext.w	a4,a5
	.loc 1 228 113
	ld	a5,-56(s0)
	sext.w	a5,a5
	.loc 1 228 131
	slliw	a5,a5,1
	sext.w	a5,a5
	.loc 1 228 137
	mv	a3,a5
	li	a5,2031616
	and	a5,a3,a5
	sext.w	a5,a5
	.loc 1 228 109
	or	a5,a4,a5
	sext.w	a5,a5
	slli	s1,a5,32
	srli	s1,s1,32
	.loc 1 228 154
	ld	a4,-56(s0)
	li	a5,4096
	addi	a5,a5,-1
	and	a5,a4,a5
	li	a1,32
	mv	a0,a5
	call	LShiftU64
	mv	a5,a0
	.loc 1 225 3
	or	a2,s1,a5
	addi	a4,s0,-64
	lw	a5,-60(s0)
	li	a3,1
	mv	a1,a5
	ld	a0,-40(s0)
	jalr	s2
.LVL4:
	.loc 1 233 10
	lw	a5,-64(s0)
	.loc 1 234 1
	mv	a0,a5
	ld	ra,56(sp)
	.cfi_restore 1
	ld	s0,48(sp)
	.cfi_restore 8
	.cfi_def_cfa 2, 64
	ld	s1,40(sp)
	.cfi_restore 9
	ld	s2,32(sp)
	.cfi_restore 18
	addi	sp,sp,64
	.cfi_def_cfa_offset 0
	jr	ra
	.cfi_endproc
.LFE4:
	.size	DxePciSegmentLibPciRootBridgeIoWriteWorker, .-DxePciSegmentLibPciRootBridgeIoWriteWorker
	.section	.rodata
	.align	3
.LC6:
	.string	"((Address) & (0xffff0000f0000000ULL | (0))) == 0"
	.section	.text.PciSegmentRegisterForRuntimeAccess,"ax",@progbits
	.align	1
	.globl	PciSegmentRegisterForRuntimeAccess
	.type	PciSegmentRegisterForRuntimeAccess, @function
PciSegmentRegisterForRuntimeAccess:
.LFB5:
	.loc 1 259 1
	.cfi_startproc
	addi	sp,sp,-32
	.cfi_def_cfa_offset 32
	sd	ra,24(sp)
	sd	s0,16(sp)
	.cfi_offset 1, -8
	.cfi_offset 8, -16
	addi	s0,sp,32
	.cfi_def_cfa 8, 0
	sd	a0,-24(s0)
	.loc 1 260 12
	call	DebugAssertEnabled
	mv	a5,a0
	.loc 1 260 11
	beq	a5,zero,.L31
	.loc 1 260 54 discriminator 1
	ld	a4,-24(s0)
	li	a5,-1048576
	addi	a5,a5,15
	slli	a5,a5,28
	and	a5,a4,a5
	.loc 1 260 40 discriminator 1
	beq	a5,zero,.L31
	.loc 1 260 96 discriminator 2
	lla	a2,.LC6
	li	a1,260
	lla	a0,.LC2
	call	UnitTestDebugAssert
.L31:
	.loc 1 261 10
	li	a5,-1
	slli	a5,a5,63
	addi	a5,a5,3
	.loc 1 262 1
	mv	a0,a5
	ld	ra,24(sp)
	.cfi_restore 1
	ld	s0,16(sp)
	.cfi_restore 8
	.cfi_def_cfa 2, 32
	addi	sp,sp,32
	.cfi_def_cfa_offset 0
	jr	ra
	.cfi_endproc
.LFE5:
	.size	PciSegmentRegisterForRuntimeAccess, .-PciSegmentRegisterForRuntimeAccess
	.section	.text.PciSegmentRead8,"ax",@progbits
	.align	1
	.globl	PciSegmentRead8
	.type	PciSegmentRead8, @function
PciSegmentRead8:
.LFB6:
	.loc 1 282 1
	.cfi_startproc
	addi	sp,sp,-32
	.cfi_def_cfa_offset 32
	sd	ra,24(sp)
	sd	s0,16(sp)
	.cfi_offset 1, -8
	.cfi_offset 8, -16
	addi	s0,sp,32
	.cfi_def_cfa 8, 0
	sd	a0,-24(s0)
	.loc 1 283 12
	call	DebugAssertEnabled
	mv	a5,a0
	.loc 1 283 11
	beq	a5,zero,.L34
	.loc 1 283 54 discriminator 1
	ld	a4,-24(s0)
	li	a5,-1048576
	addi	a5,a5,15
	slli	a5,a5,28
	and	a5,a4,a5
	.loc 1 283 40 discriminator 1
	beq	a5,zero,.L34
	.loc 1 283 96 discriminator 2
	lla	a2,.LC6
	li	a1,283
	lla	a0,.LC2
	call	UnitTestDebugAssert
.L34:
	.loc 1 285 18
	li	a1,0
	ld	a0,-24(s0)
	call	DxePciSegmentLibPciRootBridgeIoReadWorker
	mv	a5,a0
	sext.w	a5,a5
	.loc 1 285 10
	andi	a5,a5,0xff
	.loc 1 286 1
	mv	a0,a5
	ld	ra,24(sp)
	.cfi_restore 1
	ld	s0,16(sp)
	.cfi_restore 8
	.cfi_def_cfa 2, 32
	addi	sp,sp,32
	.cfi_def_cfa_offset 0
	jr	ra
	.cfi_endproc
.LFE6:
	.size	PciSegmentRead8, .-PciSegmentRead8
	.section	.text.PciSegmentWrite8,"ax",@progbits
	.align	1
	.globl	PciSegmentWrite8
	.type	PciSegmentWrite8, @function
PciSegmentWrite8:
.LFB7:
	.loc 1 308 1
	.cfi_startproc
	addi	sp,sp,-32
	.cfi_def_cfa_offset 32
	sd	ra,24(sp)
	sd	s0,16(sp)
	.cfi_offset 1, -8
	.cfi_offset 8, -16
	addi	s0,sp,32
	.cfi_def_cfa 8, 0
	sd	a0,-24(s0)
	mv	a5,a1
	sb	a5,-25(s0)
	.loc 1 309 12
	call	DebugAssertEnabled
	mv	a5,a0
	.loc 1 309 11
	beq	a5,zero,.L37
	.loc 1 309 54 discriminator 1
	ld	a4,-24(s0)
	li	a5,-1048576
	addi	a5,a5,15
	slli	a5,a5,28
	and	a5,a4,a5
	.loc 1 309 40 discriminator 1
	beq	a5,zero,.L37
	.loc 1 309 96 discriminator 2
	lla	a2,.LC6
	li	a1,309
	lla	a0,.LC2
	call	UnitTestDebugAssert
.L37:
	.loc 1 311 18
	lbu	a5,-25(s0)
	sext.w	a5,a5
	mv	a2,a5
	li	a1,0
	ld	a0,-24(s0)
	call	DxePciSegmentLibPciRootBridgeIoWriteWorker
	mv	a5,a0
	sext.w	a5,a5
	.loc 1 311 10
	andi	a5,a5,0xff
	.loc 1 312 1
	mv	a0,a5
	ld	ra,24(sp)
	.cfi_restore 1
	ld	s0,16(sp)
	.cfi_restore 8
	.cfi_def_cfa 2, 32
	addi	sp,sp,32
	.cfi_def_cfa_offset 0
	jr	ra
	.cfi_endproc
.LFE7:
	.size	PciSegmentWrite8, .-PciSegmentWrite8
	.section	.text.PciSegmentOr8,"ax",@progbits
	.align	1
	.globl	PciSegmentOr8
	.type	PciSegmentOr8, @function
PciSegmentOr8:
.LFB8:
	.loc 1 337 1
	.cfi_startproc
	addi	sp,sp,-32
	.cfi_def_cfa_offset 32
	sd	ra,24(sp)
	sd	s0,16(sp)
	.cfi_offset 1, -8
	.cfi_offset 8, -16
	addi	s0,sp,32
	.cfi_def_cfa 8, 0
	sd	a0,-24(s0)
	mv	a5,a1
	sb	a5,-25(s0)
	.loc 1 338 46
	ld	a0,-24(s0)
	call	PciSegmentRead8
	mv	a5,a0
	mv	a4,a5
	.loc 1 338 10
	lbu	a5,-25(s0)
	or	a5,a4,a5
	andi	a5,a5,0xff
	mv	a1,a5
	ld	a0,-24(s0)
	call	PciSegmentWrite8
	mv	a5,a0
	.loc 1 339 1
	mv	a0,a5
	ld	ra,24(sp)
	.cfi_restore 1
	ld	s0,16(sp)
	.cfi_restore 8
	.cfi_def_cfa 2, 32
	addi	sp,sp,32
	.cfi_def_cfa_offset 0
	jr	ra
	.cfi_endproc
.LFE8:
	.size	PciSegmentOr8, .-PciSegmentOr8
	.section	.text.PciSegmentAnd8,"ax",@progbits
	.align	1
	.globl	PciSegmentAnd8
	.type	PciSegmentAnd8, @function
PciSegmentAnd8:
.LFB9:
	.loc 1 363 1
	.cfi_startproc
	addi	sp,sp,-32
	.cfi_def_cfa_offset 32
	sd	ra,24(sp)
	sd	s0,16(sp)
	.cfi_offset 1, -8
	.cfi_offset 8, -16
	addi	s0,sp,32
	.cfi_def_cfa 8, 0
	sd	a0,-24(s0)
	mv	a5,a1
	sb	a5,-25(s0)
	.loc 1 364 46
	ld	a0,-24(s0)
	call	PciSegmentRead8
	mv	a5,a0
	mv	a4,a5
	.loc 1 364 10
	lbu	a5,-25(s0)
	and	a5,a4,a5
	andi	a5,a5,0xff
	mv	a1,a5
	ld	a0,-24(s0)
	call	PciSegmentWrite8
	mv	a5,a0
	.loc 1 365 1
	mv	a0,a5
	ld	ra,24(sp)
	.cfi_restore 1
	ld	s0,16(sp)
	.cfi_restore 8
	.cfi_def_cfa 2, 32
	addi	sp,sp,32
	.cfi_def_cfa_offset 0
	jr	ra
	.cfi_endproc
.LFE9:
	.size	PciSegmentAnd8, .-PciSegmentAnd8
	.section	.text.PciSegmentAndThenOr8,"ax",@progbits
	.align	1
	.globl	PciSegmentAndThenOr8
	.type	PciSegmentAndThenOr8, @function
PciSegmentAndThenOr8:
.LFB10:
	.loc 1 394 1
	.cfi_startproc
	addi	sp,sp,-32
	.cfi_def_cfa_offset 32
	sd	ra,24(sp)
	sd	s0,16(sp)
	.cfi_offset 1, -8
	.cfi_offset 8, -16
	addi	s0,sp,32
	.cfi_def_cfa 8, 0
	sd	a0,-24(s0)
	mv	a5,a1
	mv	a4,a2
	sb	a5,-25(s0)
	mv	a5,a4
	sb	a5,-26(s0)
	.loc 1 395 47
	ld	a0,-24(s0)
	call	PciSegmentRead8
	mv	a5,a0
	mv	a4,a5
	.loc 1 395 10
	lbu	a5,-25(s0)
	and	a5,a4,a5
	andi	a4,a5,0xff
	lbu	a5,-26(s0)
	or	a5,a4,a5
	andi	a5,a5,0xff
	mv	a1,a5
	ld	a0,-24(s0)
	call	PciSegmentWrite8
	mv	a5,a0
	.loc 1 396 1
	mv	a0,a5
	ld	ra,24(sp)
	.cfi_restore 1
	ld	s0,16(sp)
	.cfi_restore 8
	.cfi_def_cfa 2, 32
	addi	sp,sp,32
	.cfi_def_cfa_offset 0
	jr	ra
	.cfi_endproc
.LFE10:
	.size	PciSegmentAndThenOr8, .-PciSegmentAndThenOr8
	.section	.text.PciSegmentBitFieldRead8,"ax",@progbits
	.align	1
	.globl	PciSegmentBitFieldRead8
	.type	PciSegmentBitFieldRead8, @function
PciSegmentBitFieldRead8:
.LFB11:
	.loc 1 426 1
	.cfi_startproc
	addi	sp,sp,-48
	.cfi_def_cfa_offset 48
	sd	ra,40(sp)
	sd	s0,32(sp)
	.cfi_offset 1, -8
	.cfi_offset 8, -16
	addi	s0,sp,48
	.cfi_def_cfa 8, 0
	sd	a0,-24(s0)
	sd	a1,-32(s0)
	sd	a2,-40(s0)
	.loc 1 427 10
	ld	a0,-24(s0)
	call	PciSegmentRead8
	mv	a5,a0
	ld	a2,-40(s0)
	ld	a1,-32(s0)
	mv	a0,a5
	call	BitFieldRead8
	mv	a5,a0
	.loc 1 428 1
	mv	a0,a5
	ld	ra,40(sp)
	.cfi_restore 1
	ld	s0,32(sp)
	.cfi_restore 8
	.cfi_def_cfa 2, 48
	addi	sp,sp,48
	.cfi_def_cfa_offset 0
	jr	ra
	.cfi_endproc
.LFE11:
	.size	PciSegmentBitFieldRead8, .-PciSegmentBitFieldRead8
	.section	.text.PciSegmentBitFieldWrite8,"ax",@progbits
	.align	1
	.globl	PciSegmentBitFieldWrite8
	.type	PciSegmentBitFieldWrite8, @function
PciSegmentBitFieldWrite8:
.LFB12:
	.loc 1 462 1
	.cfi_startproc
	addi	sp,sp,-48
	.cfi_def_cfa_offset 48
	sd	ra,40(sp)
	sd	s0,32(sp)
	.cfi_offset 1, -8
	.cfi_offset 8, -16
	addi	s0,sp,48
	.cfi_def_cfa 8, 0
	sd	a0,-24(s0)
	sd	a1,-32(s0)
	sd	a2,-40(s0)
	mv	a5,a3
	sb	a5,-41(s0)
	.loc 1 463 10
	ld	a0,-24(s0)
	call	PciSegmentRead8
	mv	a5,a0
	mv	a4,a5
	lbu	a5,-41(s0)
	mv	a3,a5
	ld	a2,-40(s0)
	ld	a1,-32(s0)
	mv	a0,a4
	call	BitFieldWrite8
	mv	a5,a0
	mv	a1,a5
	ld	a0,-24(s0)
	call	PciSegmentWrite8
	mv	a5,a0
	.loc 1 467 1
	mv	a0,a5
	ld	ra,40(sp)
	.cfi_restore 1
	ld	s0,32(sp)
	.cfi_restore 8
	.cfi_def_cfa 2, 48
	addi	sp,sp,48
	.cfi_def_cfa_offset 0
	jr	ra
	.cfi_endproc
.LFE12:
	.size	PciSegmentBitFieldWrite8, .-PciSegmentBitFieldWrite8
	.section	.text.PciSegmentBitFieldOr8,"ax",@progbits
	.align	1
	.globl	PciSegmentBitFieldOr8
	.type	PciSegmentBitFieldOr8, @function
PciSegmentBitFieldOr8:
.LFB13:
	.loc 1 504 1
	.cfi_startproc
	addi	sp,sp,-48
	.cfi_def_cfa_offset 48
	sd	ra,40(sp)
	sd	s0,32(sp)
	.cfi_offset 1, -8
	.cfi_offset 8, -16
	addi	s0,sp,48
	.cfi_def_cfa 8, 0
	sd	a0,-24(s0)
	sd	a1,-32(s0)
	sd	a2,-40(s0)
	mv	a5,a3
	sb	a5,-41(s0)
	.loc 1 505 10
	ld	a0,-24(s0)
	call	PciSegmentRead8
	mv	a5,a0
	mv	a4,a5
	lbu	a5,-41(s0)
	mv	a3,a5
	ld	a2,-40(s0)
	ld	a1,-32(s0)
	mv	a0,a4
	call	BitFieldOr8
	mv	a5,a0
	mv	a1,a5
	ld	a0,-24(s0)
	call	PciSegmentWrite8
	mv	a5,a0
	.loc 1 509 1
	mv	a0,a5
	ld	ra,40(sp)
	.cfi_restore 1
	ld	s0,32(sp)
	.cfi_restore 8
	.cfi_def_cfa 2, 48
	addi	sp,sp,48
	.cfi_def_cfa_offset 0
	jr	ra
	.cfi_endproc
.LFE13:
	.size	PciSegmentBitFieldOr8, .-PciSegmentBitFieldOr8
	.section	.text.PciSegmentBitFieldAnd8,"ax",@progbits
	.align	1
	.globl	PciSegmentBitFieldAnd8
	.type	PciSegmentBitFieldAnd8, @function
PciSegmentBitFieldAnd8:
.LFB14:
	.loc 1 546 1
	.cfi_startproc
	addi	sp,sp,-48
	.cfi_def_cfa_offset 48
	sd	ra,40(sp)
	sd	s0,32(sp)
	.cfi_offset 1, -8
	.cfi_offset 8, -16
	addi	s0,sp,48
	.cfi_def_cfa 8, 0
	sd	a0,-24(s0)
	sd	a1,-32(s0)
	sd	a2,-40(s0)
	mv	a5,a3
	sb	a5,-41(s0)
	.loc 1 547 10
	ld	a0,-24(s0)
	call	PciSegmentRead8
	mv	a5,a0
	mv	a4,a5
	lbu	a5,-41(s0)
	mv	a3,a5
	ld	a2,-40(s0)
	ld	a1,-32(s0)
	mv	a0,a4
	call	BitFieldAnd8
	mv	a5,a0
	mv	a1,a5
	ld	a0,-24(s0)
	call	PciSegmentWrite8
	mv	a5,a0
	.loc 1 551 1
	mv	a0,a5
	ld	ra,40(sp)
	.cfi_restore 1
	ld	s0,32(sp)
	.cfi_restore 8
	.cfi_def_cfa 2, 48
	addi	sp,sp,48
	.cfi_def_cfa_offset 0
	jr	ra
	.cfi_endproc
.LFE14:
	.size	PciSegmentBitFieldAnd8, .-PciSegmentBitFieldAnd8
	.section	.text.PciSegmentBitFieldAndThenOr8,"ax",@progbits
	.align	1
	.globl	PciSegmentBitFieldAndThenOr8
	.type	PciSegmentBitFieldAndThenOr8, @function
PciSegmentBitFieldAndThenOr8:
.LFB15:
	.loc 1 592 1
	.cfi_startproc
	addi	sp,sp,-48
	.cfi_def_cfa_offset 48
	sd	ra,40(sp)
	sd	s0,32(sp)
	.cfi_offset 1, -8
	.cfi_offset 8, -16
	addi	s0,sp,48
	.cfi_def_cfa 8, 0
	sd	a0,-24(s0)
	sd	a1,-32(s0)
	sd	a2,-40(s0)
	mv	a5,a3
	sb	a5,-41(s0)
	mv	a5,a4
	sb	a5,-42(s0)
	.loc 1 593 10
	ld	a0,-24(s0)
	call	PciSegmentRead8
	mv	a5,a0
	mv	a0,a5
	lbu	a4,-42(s0)
	lbu	a5,-41(s0)
	mv	a3,a5
	ld	a2,-40(s0)
	ld	a1,-32(s0)
	call	BitFieldAndThenOr8
	mv	a5,a0
	mv	a1,a5
	ld	a0,-24(s0)
	call	PciSegmentWrite8
	mv	a5,a0
	.loc 1 597 1
	mv	a0,a5
	ld	ra,40(sp)
	.cfi_restore 1
	ld	s0,32(sp)
	.cfi_restore 8
	.cfi_def_cfa 2, 48
	addi	sp,sp,48
	.cfi_def_cfa_offset 0
	jr	ra
	.cfi_endproc
.LFE15:
	.size	PciSegmentBitFieldAndThenOr8, .-PciSegmentBitFieldAndThenOr8
	.section	.rodata
	.align	3
.LC8:
	.string	"((Address) & (0xffff0000f0000000ULL | (1))) == 0"
	.section	.text.PciSegmentRead16,"ax",@progbits
	.align	1
	.globl	PciSegmentRead16
	.type	PciSegmentRead16, @function
PciSegmentRead16:
.LFB16:
	.loc 1 618 1
	.cfi_startproc
	addi	sp,sp,-32
	.cfi_def_cfa_offset 32
	sd	ra,24(sp)
	sd	s0,16(sp)
	.cfi_offset 1, -8
	.cfi_offset 8, -16
	addi	s0,sp,32
	.cfi_def_cfa 8, 0
	sd	a0,-24(s0)
	.loc 1 619 12
	call	DebugAssertEnabled
	mv	a5,a0
	.loc 1 619 11
	beq	a5,zero,.L56
	.loc 1 619 54 discriminator 1
	ld	a4,-24(s0)
	lla	a5,.LC7
	ld	a5,0(a5)
	and	a5,a4,a5
	.loc 1 619 40 discriminator 1
	beq	a5,zero,.L56
	.loc 1 619 96 discriminator 2
	lla	a2,.LC8
	li	a1,619
	lla	a0,.LC2
	call	UnitTestDebugAssert
.L56:
	.loc 1 621 19
	li	a1,1
	ld	a0,-24(s0)
	call	DxePciSegmentLibPciRootBridgeIoReadWorker
	mv	a5,a0
	sext.w	a5,a5
	.loc 1 621 10
	slli	a5,a5,48
	srli	a5,a5,48
	.loc 1 622 1
	mv	a0,a5
	ld	ra,24(sp)
	.cfi_restore 1
	ld	s0,16(sp)
	.cfi_restore 8
	.cfi_def_cfa 2, 32
	addi	sp,sp,32
	.cfi_def_cfa_offset 0
	jr	ra
	.cfi_endproc
.LFE16:
	.size	PciSegmentRead16, .-PciSegmentRead16
	.section	.text.PciSegmentWrite16,"ax",@progbits
	.align	1
	.globl	PciSegmentWrite16
	.type	PciSegmentWrite16, @function
PciSegmentWrite16:
.LFB17:
	.loc 1 645 1
	.cfi_startproc
	addi	sp,sp,-32
	.cfi_def_cfa_offset 32
	sd	ra,24(sp)
	sd	s0,16(sp)
	.cfi_offset 1, -8
	.cfi_offset 8, -16
	addi	s0,sp,32
	.cfi_def_cfa 8, 0
	sd	a0,-24(s0)
	mv	a5,a1
	sh	a5,-26(s0)
	.loc 1 646 12
	call	DebugAssertEnabled
	mv	a5,a0
	.loc 1 646 11
	beq	a5,zero,.L59
	.loc 1 646 54 discriminator 1
	ld	a4,-24(s0)
	lla	a5,.LC7
	ld	a5,0(a5)
	and	a5,a4,a5
	.loc 1 646 40 discriminator 1
	beq	a5,zero,.L59
	.loc 1 646 96 discriminator 2
	lla	a2,.LC8
	li	a1,646
	lla	a0,.LC2
	call	UnitTestDebugAssert
.L59:
	.loc 1 648 19
	lhu	a5,-26(s0)
	sext.w	a5,a5
	mv	a2,a5
	li	a1,1
	ld	a0,-24(s0)
	call	DxePciSegmentLibPciRootBridgeIoWriteWorker
	mv	a5,a0
	sext.w	a5,a5
	.loc 1 648 10
	slli	a5,a5,48
	srli	a5,a5,48
	.loc 1 649 1
	mv	a0,a5
	ld	ra,24(sp)
	.cfi_restore 1
	ld	s0,16(sp)
	.cfi_restore 8
	.cfi_def_cfa 2, 32
	addi	sp,sp,32
	.cfi_def_cfa_offset 0
	jr	ra
	.cfi_endproc
.LFE17:
	.size	PciSegmentWrite16, .-PciSegmentWrite16
	.section	.text.PciSegmentOr16,"ax",@progbits
	.align	1
	.globl	PciSegmentOr16
	.type	PciSegmentOr16, @function
PciSegmentOr16:
.LFB18:
	.loc 1 677 1
	.cfi_startproc
	addi	sp,sp,-32
	.cfi_def_cfa_offset 32
	sd	ra,24(sp)
	sd	s0,16(sp)
	.cfi_offset 1, -8
	.cfi_offset 8, -16
	addi	s0,sp,32
	.cfi_def_cfa 8, 0
	sd	a0,-24(s0)
	mv	a5,a1
	sh	a5,-26(s0)
	.loc 1 678 48
	ld	a0,-24(s0)
	call	PciSegmentRead16
	mv	a5,a0
	mv	a4,a5
	.loc 1 678 10
	lhu	a5,-26(s0)
	or	a5,a4,a5
	slli	a5,a5,48
	srli	a5,a5,48
	mv	a1,a5
	ld	a0,-24(s0)
	call	PciSegmentWrite16
	mv	a5,a0
	.loc 1 679 1
	mv	a0,a5
	ld	ra,24(sp)
	.cfi_restore 1
	ld	s0,16(sp)
	.cfi_restore 8
	.cfi_def_cfa 2, 32
	addi	sp,sp,32
	.cfi_def_cfa_offset 0
	jr	ra
	.cfi_endproc
.LFE18:
	.size	PciSegmentOr16, .-PciSegmentOr16
	.section	.text.PciSegmentAnd16,"ax",@progbits
	.align	1
	.globl	PciSegmentAnd16
	.type	PciSegmentAnd16, @function
PciSegmentAnd16:
.LFB19:
	.loc 1 705 1
	.cfi_startproc
	addi	sp,sp,-32
	.cfi_def_cfa_offset 32
	sd	ra,24(sp)
	sd	s0,16(sp)
	.cfi_offset 1, -8
	.cfi_offset 8, -16
	addi	s0,sp,32
	.cfi_def_cfa 8, 0
	sd	a0,-24(s0)
	mv	a5,a1
	sh	a5,-26(s0)
	.loc 1 706 48
	ld	a0,-24(s0)
	call	PciSegmentRead16
	mv	a5,a0
	mv	a4,a5
	.loc 1 706 10
	lhu	a5,-26(s0)
	and	a5,a4,a5
	slli	a5,a5,48
	srli	a5,a5,48
	mv	a1,a5
	ld	a0,-24(s0)
	call	PciSegmentWrite16
	mv	a5,a0
	.loc 1 707 1
	mv	a0,a5
	ld	ra,24(sp)
	.cfi_restore 1
	ld	s0,16(sp)
	.cfi_restore 8
	.cfi_def_cfa 2, 32
	addi	sp,sp,32
	.cfi_def_cfa_offset 0
	jr	ra
	.cfi_endproc
.LFE19:
	.size	PciSegmentAnd16, .-PciSegmentAnd16
	.section	.text.PciSegmentAndThenOr16,"ax",@progbits
	.align	1
	.globl	PciSegmentAndThenOr16
	.type	PciSegmentAndThenOr16, @function
PciSegmentAndThenOr16:
.LFB20:
	.loc 1 737 1
	.cfi_startproc
	addi	sp,sp,-32
	.cfi_def_cfa_offset 32
	sd	ra,24(sp)
	sd	s0,16(sp)
	.cfi_offset 1, -8
	.cfi_offset 8, -16
	addi	s0,sp,32
	.cfi_def_cfa 8, 0
	sd	a0,-24(s0)
	mv	a5,a1
	mv	a4,a2
	sh	a5,-26(s0)
	mv	a5,a4
	sh	a5,-28(s0)
	.loc 1 738 49
	ld	a0,-24(s0)
	call	PciSegmentRead16
	mv	a5,a0
	mv	a4,a5
	.loc 1 738 10
	lhu	a5,-26(s0)
	and	a5,a4,a5
	slli	a4,a5,48
	srli	a4,a4,48
	lhu	a5,-28(s0)
	or	a5,a4,a5
	slli	a5,a5,48
	srli	a5,a5,48
	mv	a1,a5
	ld	a0,-24(s0)
	call	PciSegmentWrite16
	mv	a5,a0
	.loc 1 739 1
	mv	a0,a5
	ld	ra,24(sp)
	.cfi_restore 1
	ld	s0,16(sp)
	.cfi_restore 8
	.cfi_def_cfa 2, 32
	addi	sp,sp,32
	.cfi_def_cfa_offset 0
	jr	ra
	.cfi_endproc
.LFE20:
	.size	PciSegmentAndThenOr16, .-PciSegmentAndThenOr16
	.section	.text.PciSegmentBitFieldRead16,"ax",@progbits
	.align	1
	.globl	PciSegmentBitFieldRead16
	.type	PciSegmentBitFieldRead16, @function
PciSegmentBitFieldRead16:
.LFB21:
	.loc 1 770 1
	.cfi_startproc
	addi	sp,sp,-48
	.cfi_def_cfa_offset 48
	sd	ra,40(sp)
	sd	s0,32(sp)
	.cfi_offset 1, -8
	.cfi_offset 8, -16
	addi	s0,sp,48
	.cfi_def_cfa 8, 0
	sd	a0,-24(s0)
	sd	a1,-32(s0)
	sd	a2,-40(s0)
	.loc 1 771 10
	ld	a0,-24(s0)
	call	PciSegmentRead16
	mv	a5,a0
	ld	a2,-40(s0)
	ld	a1,-32(s0)
	mv	a0,a5
	call	BitFieldRead16
	mv	a5,a0
	.loc 1 772 1
	mv	a0,a5
	ld	ra,40(sp)
	.cfi_restore 1
	ld	s0,32(sp)
	.cfi_restore 8
	.cfi_def_cfa 2, 48
	addi	sp,sp,48
	.cfi_def_cfa_offset 0
	jr	ra
	.cfi_endproc
.LFE21:
	.size	PciSegmentBitFieldRead16, .-PciSegmentBitFieldRead16
	.section	.text.PciSegmentBitFieldWrite16,"ax",@progbits
	.align	1
	.globl	PciSegmentBitFieldWrite16
	.type	PciSegmentBitFieldWrite16, @function
PciSegmentBitFieldWrite16:
.LFB22:
	.loc 1 807 1
	.cfi_startproc
	addi	sp,sp,-48
	.cfi_def_cfa_offset 48
	sd	ra,40(sp)
	sd	s0,32(sp)
	.cfi_offset 1, -8
	.cfi_offset 8, -16
	addi	s0,sp,48
	.cfi_def_cfa 8, 0
	sd	a0,-24(s0)
	sd	a1,-32(s0)
	sd	a2,-40(s0)
	mv	a5,a3
	sh	a5,-42(s0)
	.loc 1 808 10
	ld	a0,-24(s0)
	call	PciSegmentRead16
	mv	a5,a0
	mv	a4,a5
	lhu	a5,-42(s0)
	mv	a3,a5
	ld	a2,-40(s0)
	ld	a1,-32(s0)
	mv	a0,a4
	call	BitFieldWrite16
	mv	a5,a0
	mv	a1,a5
	ld	a0,-24(s0)
	call	PciSegmentWrite16
	mv	a5,a0
	.loc 1 812 1
	mv	a0,a5
	ld	ra,40(sp)
	.cfi_restore 1
	ld	s0,32(sp)
	.cfi_restore 8
	.cfi_def_cfa 2, 48
	addi	sp,sp,48
	.cfi_def_cfa_offset 0
	jr	ra
	.cfi_endproc
.LFE22:
	.size	PciSegmentBitFieldWrite16, .-PciSegmentBitFieldWrite16
	.section	.text.PciSegmentBitFieldOr16,"ax",@progbits
	.align	1
	.globl	PciSegmentBitFieldOr16
	.type	PciSegmentBitFieldOr16, @function
PciSegmentBitFieldOr16:
.LFB23:
	.loc 1 850 1
	.cfi_startproc
	addi	sp,sp,-48
	.cfi_def_cfa_offset 48
	sd	ra,40(sp)
	sd	s0,32(sp)
	.cfi_offset 1, -8
	.cfi_offset 8, -16
	addi	s0,sp,48
	.cfi_def_cfa 8, 0
	sd	a0,-24(s0)
	sd	a1,-32(s0)
	sd	a2,-40(s0)
	mv	a5,a3
	sh	a5,-42(s0)
	.loc 1 851 10
	ld	a0,-24(s0)
	call	PciSegmentRead16
	mv	a5,a0
	mv	a4,a5
	lhu	a5,-42(s0)
	mv	a3,a5
	ld	a2,-40(s0)
	ld	a1,-32(s0)
	mv	a0,a4
	call	BitFieldOr16
	mv	a5,a0
	mv	a1,a5
	ld	a0,-24(s0)
	call	PciSegmentWrite16
	mv	a5,a0
	.loc 1 855 1
	mv	a0,a5
	ld	ra,40(sp)
	.cfi_restore 1
	ld	s0,32(sp)
	.cfi_restore 8
	.cfi_def_cfa 2, 48
	addi	sp,sp,48
	.cfi_def_cfa_offset 0
	jr	ra
	.cfi_endproc
.LFE23:
	.size	PciSegmentBitFieldOr16, .-PciSegmentBitFieldOr16
	.section	.text.PciSegmentBitFieldAnd16,"ax",@progbits
	.align	1
	.globl	PciSegmentBitFieldAnd16
	.type	PciSegmentBitFieldAnd16, @function
PciSegmentBitFieldAnd16:
.LFB24:
	.loc 1 893 1
	.cfi_startproc
	addi	sp,sp,-48
	.cfi_def_cfa_offset 48
	sd	ra,40(sp)
	sd	s0,32(sp)
	.cfi_offset 1, -8
	.cfi_offset 8, -16
	addi	s0,sp,48
	.cfi_def_cfa 8, 0
	sd	a0,-24(s0)
	sd	a1,-32(s0)
	sd	a2,-40(s0)
	mv	a5,a3
	sh	a5,-42(s0)
	.loc 1 894 10
	ld	a0,-24(s0)
	call	PciSegmentRead16
	mv	a5,a0
	mv	a4,a5
	lhu	a5,-42(s0)
	mv	a3,a5
	ld	a2,-40(s0)
	ld	a1,-32(s0)
	mv	a0,a4
	call	BitFieldAnd16
	mv	a5,a0
	mv	a1,a5
	ld	a0,-24(s0)
	call	PciSegmentWrite16
	mv	a5,a0
	.loc 1 898 1
	mv	a0,a5
	ld	ra,40(sp)
	.cfi_restore 1
	ld	s0,32(sp)
	.cfi_restore 8
	.cfi_def_cfa 2, 48
	addi	sp,sp,48
	.cfi_def_cfa_offset 0
	jr	ra
	.cfi_endproc
.LFE24:
	.size	PciSegmentBitFieldAnd16, .-PciSegmentBitFieldAnd16
	.section	.text.PciSegmentBitFieldAndThenOr16,"ax",@progbits
	.align	1
	.globl	PciSegmentBitFieldAndThenOr16
	.type	PciSegmentBitFieldAndThenOr16, @function
PciSegmentBitFieldAndThenOr16:
.LFB25:
	.loc 1 940 1
	.cfi_startproc
	addi	sp,sp,-48
	.cfi_def_cfa_offset 48
	sd	ra,40(sp)
	sd	s0,32(sp)
	.cfi_offset 1, -8
	.cfi_offset 8, -16
	addi	s0,sp,48
	.cfi_def_cfa 8, 0
	sd	a0,-24(s0)
	sd	a1,-32(s0)
	sd	a2,-40(s0)
	mv	a5,a3
	sh	a5,-42(s0)
	mv	a5,a4
	sh	a5,-44(s0)
	.loc 1 941 10
	ld	a0,-24(s0)
	call	PciSegmentRead16
	mv	a5,a0
	mv	a0,a5
	lhu	a4,-44(s0)
	lhu	a5,-42(s0)
	mv	a3,a5
	ld	a2,-40(s0)
	ld	a1,-32(s0)
	call	BitFieldAndThenOr16
	mv	a5,a0
	mv	a1,a5
	ld	a0,-24(s0)
	call	PciSegmentWrite16
	mv	a5,a0
	.loc 1 945 1
	mv	a0,a5
	ld	ra,40(sp)
	.cfi_restore 1
	ld	s0,32(sp)
	.cfi_restore 8
	.cfi_def_cfa 2, 48
	addi	sp,sp,48
	.cfi_def_cfa_offset 0
	jr	ra
	.cfi_endproc
.LFE25:
	.size	PciSegmentBitFieldAndThenOr16, .-PciSegmentBitFieldAndThenOr16
	.section	.rodata
	.align	3
.LC10:
	.string	"((Address) & (0xffff0000f0000000ULL | (3))) == 0"
	.section	.text.PciSegmentRead32,"ax",@progbits
	.align	1
	.globl	PciSegmentRead32
	.type	PciSegmentRead32, @function
PciSegmentRead32:
.LFB26:
	.loc 1 966 1
	.cfi_startproc
	addi	sp,sp,-32
	.cfi_def_cfa_offset 32
	sd	ra,24(sp)
	sd	s0,16(sp)
	.cfi_offset 1, -8
	.cfi_offset 8, -16
	addi	s0,sp,32
	.cfi_def_cfa 8, 0
	sd	a0,-24(s0)
	.loc 1 967 12
	call	DebugAssertEnabled
	mv	a5,a0
	.loc 1 967 11
	beq	a5,zero,.L78
	.loc 1 967 54 discriminator 1
	ld	a4,-24(s0)
	lla	a5,.LC9
	ld	a5,0(a5)
	and	a5,a4,a5
	.loc 1 967 40 discriminator 1
	beq	a5,zero,.L78
	.loc 1 967 96 discriminator 2
	lla	a2,.LC10
	li	a1,967
	lla	a0,.LC2
	call	UnitTestDebugAssert
.L78:
	.loc 1 969 10
	li	a1,2
	ld	a0,-24(s0)
	call	DxePciSegmentLibPciRootBridgeIoReadWorker
	mv	a5,a0
	sext.w	a5,a5
	.loc 1 970 1
	mv	a0,a5
	ld	ra,24(sp)
	.cfi_restore 1
	ld	s0,16(sp)
	.cfi_restore 8
	.cfi_def_cfa 2, 32
	addi	sp,sp,32
	.cfi_def_cfa_offset 0
	jr	ra
	.cfi_endproc
.LFE26:
	.size	PciSegmentRead32, .-PciSegmentRead32
	.section	.text.PciSegmentWrite32,"ax",@progbits
	.align	1
	.globl	PciSegmentWrite32
	.type	PciSegmentWrite32, @function
PciSegmentWrite32:
.LFB27:
	.loc 1 993 1
	.cfi_startproc
	addi	sp,sp,-32
	.cfi_def_cfa_offset 32
	sd	ra,24(sp)
	sd	s0,16(sp)
	.cfi_offset 1, -8
	.cfi_offset 8, -16
	addi	s0,sp,32
	.cfi_def_cfa 8, 0
	sd	a0,-24(s0)
	mv	a5,a1
	sw	a5,-28(s0)
	.loc 1 994 12
	call	DebugAssertEnabled
	mv	a5,a0
	.loc 1 994 11
	beq	a5,zero,.L81
	.loc 1 994 54 discriminator 1
	ld	a4,-24(s0)
	lla	a5,.LC9
	ld	a5,0(a5)
	and	a5,a4,a5
	.loc 1 994 40 discriminator 1
	beq	a5,zero,.L81
	.loc 1 994 96 discriminator 2
	lla	a2,.LC10
	li	a1,994
	lla	a0,.LC2
	call	UnitTestDebugAssert
.L81:
	.loc 1 996 10
	lw	a5,-28(s0)
	mv	a2,a5
	li	a1,2
	ld	a0,-24(s0)
	call	DxePciSegmentLibPciRootBridgeIoWriteWorker
	mv	a5,a0
	sext.w	a5,a5
	.loc 1 997 1
	mv	a0,a5
	ld	ra,24(sp)
	.cfi_restore 1
	ld	s0,16(sp)
	.cfi_restore 8
	.cfi_def_cfa 2, 32
	addi	sp,sp,32
	.cfi_def_cfa_offset 0
	jr	ra
	.cfi_endproc
.LFE27:
	.size	PciSegmentWrite32, .-PciSegmentWrite32
	.section	.text.PciSegmentOr32,"ax",@progbits
	.align	1
	.globl	PciSegmentOr32
	.type	PciSegmentOr32, @function
PciSegmentOr32:
.LFB28:
	.loc 1 1023 1
	.cfi_startproc
	addi	sp,sp,-32
	.cfi_def_cfa_offset 32
	sd	ra,24(sp)
	sd	s0,16(sp)
	.cfi_offset 1, -8
	.cfi_offset 8, -16
	addi	s0,sp,32
	.cfi_def_cfa 8, 0
	sd	a0,-24(s0)
	mv	a5,a1
	sw	a5,-28(s0)
	.loc 1 1024 38
	ld	a0,-24(s0)
	call	PciSegmentRead32
	mv	a5,a0
	sext.w	a4,a5
	.loc 1 1024 10
	lw	a5,-28(s0)
	or	a5,a5,a4
	sext.w	a5,a5
	mv	a1,a5
	ld	a0,-24(s0)
	call	PciSegmentWrite32
	mv	a5,a0
	sext.w	a5,a5
	.loc 1 1025 1
	mv	a0,a5
	ld	ra,24(sp)
	.cfi_restore 1
	ld	s0,16(sp)
	.cfi_restore 8
	.cfi_def_cfa 2, 32
	addi	sp,sp,32
	.cfi_def_cfa_offset 0
	jr	ra
	.cfi_endproc
.LFE28:
	.size	PciSegmentOr32, .-PciSegmentOr32
	.section	.text.PciSegmentAnd32,"ax",@progbits
	.align	1
	.globl	PciSegmentAnd32
	.type	PciSegmentAnd32, @function
PciSegmentAnd32:
.LFB29:
	.loc 1 1051 1
	.cfi_startproc
	addi	sp,sp,-32
	.cfi_def_cfa_offset 32
	sd	ra,24(sp)
	sd	s0,16(sp)
	.cfi_offset 1, -8
	.cfi_offset 8, -16
	addi	s0,sp,32
	.cfi_def_cfa 8, 0
	sd	a0,-24(s0)
	mv	a5,a1
	sw	a5,-28(s0)
	.loc 1 1052 38
	ld	a0,-24(s0)
	call	PciSegmentRead32
	mv	a5,a0
	sext.w	a4,a5
	.loc 1 1052 10
	lw	a5,-28(s0)
	and	a5,a5,a4
	sext.w	a5,a5
	mv	a1,a5
	ld	a0,-24(s0)
	call	PciSegmentWrite32
	mv	a5,a0
	sext.w	a5,a5
	.loc 1 1053 1
	mv	a0,a5
	ld	ra,24(sp)
	.cfi_restore 1
	ld	s0,16(sp)
	.cfi_restore 8
	.cfi_def_cfa 2, 32
	addi	sp,sp,32
	.cfi_def_cfa_offset 0
	jr	ra
	.cfi_endproc
.LFE29:
	.size	PciSegmentAnd32, .-PciSegmentAnd32
	.section	.text.PciSegmentAndThenOr32,"ax",@progbits
	.align	1
	.globl	PciSegmentAndThenOr32
	.type	PciSegmentAndThenOr32, @function
PciSegmentAndThenOr32:
.LFB30:
	.loc 1 1083 1
	.cfi_startproc
	addi	sp,sp,-32
	.cfi_def_cfa_offset 32
	sd	ra,24(sp)
	sd	s0,16(sp)
	.cfi_offset 1, -8
	.cfi_offset 8, -16
	addi	s0,sp,32
	.cfi_def_cfa 8, 0
	sd	a0,-24(s0)
	mv	a5,a1
	mv	a4,a2
	sw	a5,-28(s0)
	mv	a5,a4
	sw	a5,-32(s0)
	.loc 1 1084 39
	ld	a0,-24(s0)
	call	PciSegmentRead32
	mv	a5,a0
	sext.w	a4,a5
	.loc 1 1084 66
	lw	a5,-28(s0)
	and	a5,a5,a4
	sext.w	a4,a5
	.loc 1 1084 10
	lw	a5,-32(s0)
	or	a5,a5,a4
	sext.w	a5,a5
	mv	a1,a5
	ld	a0,-24(s0)
	call	PciSegmentWrite32
	mv	a5,a0
	sext.w	a5,a5
	.loc 1 1085 1
	mv	a0,a5
	ld	ra,24(sp)
	.cfi_restore 1
	ld	s0,16(sp)
	.cfi_restore 8
	.cfi_def_cfa 2, 32
	addi	sp,sp,32
	.cfi_def_cfa_offset 0
	jr	ra
	.cfi_endproc
.LFE30:
	.size	PciSegmentAndThenOr32, .-PciSegmentAndThenOr32
	.section	.text.PciSegmentBitFieldRead32,"ax",@progbits
	.align	1
	.globl	PciSegmentBitFieldRead32
	.type	PciSegmentBitFieldRead32, @function
PciSegmentBitFieldRead32:
.LFB31:
	.loc 1 1116 1
	.cfi_startproc
	addi	sp,sp,-48
	.cfi_def_cfa_offset 48
	sd	ra,40(sp)
	sd	s0,32(sp)
	.cfi_offset 1, -8
	.cfi_offset 8, -16
	addi	s0,sp,48
	.cfi_def_cfa 8, 0
	sd	a0,-24(s0)
	sd	a1,-32(s0)
	sd	a2,-40(s0)
	.loc 1 1117 10
	ld	a0,-24(s0)
	call	PciSegmentRead32
	mv	a5,a0
	sext.w	a5,a5
	ld	a2,-40(s0)
	ld	a1,-32(s0)
	mv	a0,a5
	call	BitFieldRead32
	mv	a5,a0
	sext.w	a5,a5
	.loc 1 1118 1
	mv	a0,a5
	ld	ra,40(sp)
	.cfi_restore 1
	ld	s0,32(sp)
	.cfi_restore 8
	.cfi_def_cfa 2, 48
	addi	sp,sp,48
	.cfi_def_cfa_offset 0
	jr	ra
	.cfi_endproc
.LFE31:
	.size	PciSegmentBitFieldRead32, .-PciSegmentBitFieldRead32
	.section	.text.PciSegmentBitFieldWrite32,"ax",@progbits
	.align	1
	.globl	PciSegmentBitFieldWrite32
	.type	PciSegmentBitFieldWrite32, @function
PciSegmentBitFieldWrite32:
.LFB32:
	.loc 1 1153 1
	.cfi_startproc
	addi	sp,sp,-48
	.cfi_def_cfa_offset 48
	sd	ra,40(sp)
	sd	s0,32(sp)
	.cfi_offset 1, -8
	.cfi_offset 8, -16
	addi	s0,sp,48
	.cfi_def_cfa 8, 0
	sd	a0,-24(s0)
	sd	a1,-32(s0)
	sd	a2,-40(s0)
	mv	a5,a3
	sw	a5,-44(s0)
	.loc 1 1154 10
	ld	a0,-24(s0)
	call	PciSegmentRead32
	mv	a5,a0
	sext.w	a5,a5
	lw	a4,-44(s0)
	mv	a3,a4
	ld	a2,-40(s0)
	ld	a1,-32(s0)
	mv	a0,a5
	call	BitFieldWrite32
	mv	a5,a0
	sext.w	a5,a5
	mv	a1,a5
	ld	a0,-24(s0)
	call	PciSegmentWrite32
	mv	a5,a0
	sext.w	a5,a5
	.loc 1 1158 1
	mv	a0,a5
	ld	ra,40(sp)
	.cfi_restore 1
	ld	s0,32(sp)
	.cfi_restore 8
	.cfi_def_cfa 2, 48
	addi	sp,sp,48
	.cfi_def_cfa_offset 0
	jr	ra
	.cfi_endproc
.LFE32:
	.size	PciSegmentBitFieldWrite32, .-PciSegmentBitFieldWrite32
	.section	.text.PciSegmentBitFieldOr32,"ax",@progbits
	.align	1
	.globl	PciSegmentBitFieldOr32
	.type	PciSegmentBitFieldOr32, @function
PciSegmentBitFieldOr32:
.LFB33:
	.loc 1 1195 1
	.cfi_startproc
	addi	sp,sp,-48
	.cfi_def_cfa_offset 48
	sd	ra,40(sp)
	sd	s0,32(sp)
	.cfi_offset 1, -8
	.cfi_offset 8, -16
	addi	s0,sp,48
	.cfi_def_cfa 8, 0
	sd	a0,-24(s0)
	sd	a1,-32(s0)
	sd	a2,-40(s0)
	mv	a5,a3
	sw	a5,-44(s0)
	.loc 1 1196 10
	ld	a0,-24(s0)
	call	PciSegmentRead32
	mv	a5,a0
	sext.w	a5,a5
	lw	a4,-44(s0)
	mv	a3,a4
	ld	a2,-40(s0)
	ld	a1,-32(s0)
	mv	a0,a5
	call	BitFieldOr32
	mv	a5,a0
	sext.w	a5,a5
	mv	a1,a5
	ld	a0,-24(s0)
	call	PciSegmentWrite32
	mv	a5,a0
	sext.w	a5,a5
	.loc 1 1200 1
	mv	a0,a5
	ld	ra,40(sp)
	.cfi_restore 1
	ld	s0,32(sp)
	.cfi_restore 8
	.cfi_def_cfa 2, 48
	addi	sp,sp,48
	.cfi_def_cfa_offset 0
	jr	ra
	.cfi_endproc
.LFE33:
	.size	PciSegmentBitFieldOr32, .-PciSegmentBitFieldOr32
	.section	.text.PciSegmentBitFieldAnd32,"ax",@progbits
	.align	1
	.globl	PciSegmentBitFieldAnd32
	.type	PciSegmentBitFieldAnd32, @function
PciSegmentBitFieldAnd32:
.LFB34:
	.loc 1 1237 1
	.cfi_startproc
	addi	sp,sp,-48
	.cfi_def_cfa_offset 48
	sd	ra,40(sp)
	sd	s0,32(sp)
	.cfi_offset 1, -8
	.cfi_offset 8, -16
	addi	s0,sp,48
	.cfi_def_cfa 8, 0
	sd	a0,-24(s0)
	sd	a1,-32(s0)
	sd	a2,-40(s0)
	mv	a5,a3
	sw	a5,-44(s0)
	.loc 1 1238 10
	ld	a0,-24(s0)
	call	PciSegmentRead32
	mv	a5,a0
	sext.w	a5,a5
	lw	a4,-44(s0)
	mv	a3,a4
	ld	a2,-40(s0)
	ld	a1,-32(s0)
	mv	a0,a5
	call	BitFieldAnd32
	mv	a5,a0
	sext.w	a5,a5
	mv	a1,a5
	ld	a0,-24(s0)
	call	PciSegmentWrite32
	mv	a5,a0
	sext.w	a5,a5
	.loc 1 1242 1
	mv	a0,a5
	ld	ra,40(sp)
	.cfi_restore 1
	ld	s0,32(sp)
	.cfi_restore 8
	.cfi_def_cfa 2, 48
	addi	sp,sp,48
	.cfi_def_cfa_offset 0
	jr	ra
	.cfi_endproc
.LFE34:
	.size	PciSegmentBitFieldAnd32, .-PciSegmentBitFieldAnd32
	.section	.text.PciSegmentBitFieldAndThenOr32,"ax",@progbits
	.align	1
	.globl	PciSegmentBitFieldAndThenOr32
	.type	PciSegmentBitFieldAndThenOr32, @function
PciSegmentBitFieldAndThenOr32:
.LFB35:
	.loc 1 1284 1
	.cfi_startproc
	addi	sp,sp,-48
	.cfi_def_cfa_offset 48
	sd	ra,40(sp)
	sd	s0,32(sp)
	.cfi_offset 1, -8
	.cfi_offset 8, -16
	addi	s0,sp,48
	.cfi_def_cfa 8, 0
	sd	a0,-24(s0)
	sd	a1,-32(s0)
	sd	a2,-40(s0)
	mv	a5,a3
	sw	a5,-44(s0)
	mv	a5,a4
	sw	a5,-48(s0)
	.loc 1 1285 10
	ld	a0,-24(s0)
	call	PciSegmentRead32
	mv	a5,a0
	sext.w	a5,a5
	lw	a4,-48(s0)
	lw	a3,-44(s0)
	ld	a2,-40(s0)
	ld	a1,-32(s0)
	mv	a0,a5
	call	BitFieldAndThenOr32
	mv	a5,a0
	sext.w	a5,a5
	mv	a1,a5
	ld	a0,-24(s0)
	call	PciSegmentWrite32
	mv	a5,a0
	sext.w	a5,a5
	.loc 1 1289 1
	mv	a0,a5
	ld	ra,40(sp)
	.cfi_restore 1
	ld	s0,32(sp)
	.cfi_restore 8
	.cfi_def_cfa 2, 48
	addi	sp,sp,48
	.cfi_def_cfa_offset 0
	jr	ra
	.cfi_endproc
.LFE35:
	.size	PciSegmentBitFieldAndThenOr32, .-PciSegmentBitFieldAndThenOr32
	.section	.rodata
	.align	3
.LC11:
	.string	"((StartAddress) & (0xffff0000f0000000ULL | (0))) == 0"
	.align	3
.LC12:
	.string	"((StartAddress & 0xFFF) + Size) <= 0x1000"
	.align	3
.LC13:
	.string	"Buffer != ((void *) 0)"
	.section	.text.PciSegmentReadBuffer,"ax",@progbits
	.align	1
	.globl	PciSegmentReadBuffer
	.type	PciSegmentReadBuffer, @function
PciSegmentReadBuffer:
.LFB36:
	.loc 1 1321 1
	.cfi_startproc
	addi	sp,sp,-64
	.cfi_def_cfa_offset 64
	sd	ra,56(sp)
	sd	s0,48(sp)
	.cfi_offset 1, -8
	.cfi_offset 8, -16
	addi	s0,sp,64
	.cfi_def_cfa 8, 0
	sd	a0,-40(s0)
	sd	a1,-48(s0)
	sd	a2,-56(s0)
	.loc 1 1324 12
	call	DebugAssertEnabled
	mv	a5,a0
	.loc 1 1324 11
	beq	a5,zero,.L100
	.loc 1 1324 59 discriminator 1
	ld	a4,-40(s0)
	li	a5,-1048576
	addi	a5,a5,15
	slli	a5,a5,28
	and	a5,a4,a5
	.loc 1 1324 40 discriminator 1
	beq	a5,zero,.L100
	.loc 1 1324 101 discriminator 2
	lla	a2,.LC11
	li	a1,1324
	lla	a0,.LC2
	call	UnitTestDebugAssert
.L100:
	.loc 1 1325 12
	call	DebugAssertEnabled
	mv	a5,a0
	.loc 1 1325 11
	beq	a5,zero,.L101
	.loc 1 1325 58 discriminator 1
	ld	a4,-40(s0)
	li	a5,4096
	addi	a5,a5,-1
	and	a4,a4,a5
	.loc 1 1325 67 discriminator 1
	ld	a5,-48(s0)
	add	a4,a4,a5
	.loc 1 1325 40 discriminator 1
	li	a5,4096
	bleu	a4,a5,.L101
	.loc 1 1325 89 discriminator 2
	lla	a2,.LC12
	li	a1,1325
	lla	a0,.LC2
	call	UnitTestDebugAssert
.L101:
	.loc 1 1327 6
	ld	a5,-48(s0)
	bne	a5,zero,.L102
	.loc 1 1328 12
	ld	a5,-48(s0)
	j	.L103
.L102:
	.loc 1 1331 12
	call	DebugAssertEnabled
	mv	a5,a0
	.loc 1 1331 11
	beq	a5,zero,.L104
	.loc 1 1331 40 discriminator 1
	ld	a5,-56(s0)
	bne	a5,zero,.L104
	.loc 1 1331 70 discriminator 2
	lla	a2,.LC13
	li	a1,1331
	lla	a0,.LC2
	call	UnitTestDebugAssert
.L104:
	.loc 1 1336 15
	ld	a5,-48(s0)
	sd	a5,-24(s0)
	.loc 1 1338 21
	ld	a5,-40(s0)
	andi	a5,a5,1
	.loc 1 1338 6
	beq	a5,zero,.L105
	.loc 1 1342 33
	ld	a0,-40(s0)
	call	PciSegmentRead8
	mv	a5,a0
	mv	a4,a5
	.loc 1 1342 31
	ld	a5,-56(s0)
	sb	a4,0(a5)
	.loc 1 1343 18
	ld	a5,-40(s0)
	addi	a5,a5,1
	sd	a5,-40(s0)
	.loc 1 1344 10
	ld	a5,-48(s0)
	addi	a5,a5,-1
	sd	a5,-48(s0)
	.loc 1 1345 12
	ld	a5,-56(s0)
	addi	a5,a5,1
	sd	a5,-56(s0)
.L105:
	.loc 1 1348 6
	ld	a4,-48(s0)
	li	a5,1
	bleu	a4,a5,.L107
	.loc 1 1348 48 discriminator 1
	ld	a5,-40(s0)
	andi	a5,a5,2
	.loc 1 1348 31 discriminator 1
	beq	a5,zero,.L107
	.loc 1 1352 5
	ld	a0,-40(s0)
	call	PciSegmentRead16
	mv	a5,a0
	mv	a1,a5
	ld	a0,-56(s0)
	call	WriteUnaligned16
	.loc 1 1353 18
	ld	a5,-40(s0)
	addi	a5,a5,2
	sd	a5,-40(s0)
	.loc 1 1354 10
	ld	a5,-48(s0)
	addi	a5,a5,-2
	sd	a5,-48(s0)
	.loc 1 1355 12
	ld	a5,-56(s0)
	addi	a5,a5,2
	sd	a5,-56(s0)
	.loc 1 1358 9
	j	.L107
.L108:
	.loc 1 1362 5
	ld	a0,-40(s0)
	call	PciSegmentRead32
	mv	a5,a0
	sext.w	a5,a5
	mv	a1,a5
	ld	a0,-56(s0)
	call	WriteUnaligned32
	.loc 1 1363 18
	ld	a5,-40(s0)
	addi	a5,a5,4
	sd	a5,-40(s0)
	.loc 1 1364 10
	ld	a5,-48(s0)
	addi	a5,a5,-4
	sd	a5,-48(s0)
	.loc 1 1365 12
	ld	a5,-56(s0)
	addi	a5,a5,4
	sd	a5,-56(s0)
.L107:
	.loc 1 1358 9
	ld	a4,-48(s0)
	li	a5,3
	bgtu	a4,a5,.L108
	.loc 1 1368 6
	ld	a4,-48(s0)
	li	a5,1
	bleu	a4,a5,.L109
	.loc 1 1372 5
	ld	a0,-40(s0)
	call	PciSegmentRead16
	mv	a5,a0
	mv	a1,a5
	ld	a0,-56(s0)
	call	WriteUnaligned16
	.loc 1 1373 18
	ld	a5,-40(s0)
	addi	a5,a5,2
	sd	a5,-40(s0)
	.loc 1 1374 10
	ld	a5,-48(s0)
	addi	a5,a5,-2
	sd	a5,-48(s0)
	.loc 1 1375 12
	ld	a5,-56(s0)
	addi	a5,a5,2
	sd	a5,-56(s0)
.L109:
	.loc 1 1378 6
	ld	a5,-48(s0)
	beq	a5,zero,.L110
	.loc 1 1382 33
	ld	a0,-40(s0)
	call	PciSegmentRead8
	mv	a5,a0
	mv	a4,a5
	.loc 1 1382 31
	ld	a5,-56(s0)
	sb	a4,0(a5)
.L110:
	.loc 1 1385 10
	ld	a5,-24(s0)
.L103:
	.loc 1 1386 1
	mv	a0,a5
	ld	ra,56(sp)
	.cfi_restore 1
	ld	s0,48(sp)
	.cfi_restore 8
	.cfi_def_cfa 2, 64
	addi	sp,sp,64
	.cfi_def_cfa_offset 0
	jr	ra
	.cfi_endproc
.LFE36:
	.size	PciSegmentReadBuffer, .-PciSegmentReadBuffer
	.section	.text.PciSegmentWriteBuffer,"ax",@progbits
	.align	1
	.globl	PciSegmentWriteBuffer
	.type	PciSegmentWriteBuffer, @function
PciSegmentWriteBuffer:
.LFB37:
	.loc 1 1419 1
	.cfi_startproc
	addi	sp,sp,-64
	.cfi_def_cfa_offset 64
	sd	ra,56(sp)
	sd	s0,48(sp)
	.cfi_offset 1, -8
	.cfi_offset 8, -16
	addi	s0,sp,64
	.cfi_def_cfa 8, 0
	sd	a0,-40(s0)
	sd	a1,-48(s0)
	sd	a2,-56(s0)
	.loc 1 1422 12
	call	DebugAssertEnabled
	mv	a5,a0
	.loc 1 1422 11
	beq	a5,zero,.L112
	.loc 1 1422 59 discriminator 1
	ld	a4,-40(s0)
	li	a5,-1048576
	addi	a5,a5,15
	slli	a5,a5,28
	and	a5,a4,a5
	.loc 1 1422 40 discriminator 1
	beq	a5,zero,.L112
	.loc 1 1422 101 discriminator 2
	lla	a2,.LC11
	li	a1,1422
	lla	a0,.LC2
	call	UnitTestDebugAssert
.L112:
	.loc 1 1423 12
	call	DebugAssertEnabled
	mv	a5,a0
	.loc 1 1423 11
	beq	a5,zero,.L113
	.loc 1 1423 58 discriminator 1
	ld	a4,-40(s0)
	li	a5,4096
	addi	a5,a5,-1
	and	a4,a4,a5
	.loc 1 1423 67 discriminator 1
	ld	a5,-48(s0)
	add	a4,a4,a5
	.loc 1 1423 40 discriminator 1
	li	a5,4096
	bleu	a4,a5,.L113
	.loc 1 1423 89 discriminator 2
	lla	a2,.LC12
	li	a1,1423
	lla	a0,.LC2
	call	UnitTestDebugAssert
.L113:
	.loc 1 1425 6
	ld	a5,-48(s0)
	bne	a5,zero,.L114
	.loc 1 1426 12
	li	a5,0
	j	.L115
.L114:
	.loc 1 1429 12
	call	DebugAssertEnabled
	mv	a5,a0
	.loc 1 1429 11
	beq	a5,zero,.L116
	.loc 1 1429 40 discriminator 1
	ld	a5,-56(s0)
	bne	a5,zero,.L116
	.loc 1 1429 70 discriminator 2
	lla	a2,.LC13
	li	a1,1429
	lla	a0,.LC2
	call	UnitTestDebugAssert
.L116:
	.loc 1 1434 15
	ld	a5,-48(s0)
	sd	a5,-24(s0)
	.loc 1 1436 21
	ld	a5,-40(s0)
	andi	a5,a5,1
	.loc 1 1436 6
	beq	a5,zero,.L117
	.loc 1 1440 5
	ld	a5,-56(s0)
	lbu	a5,0(a5)
	mv	a1,a5
	ld	a0,-40(s0)
	call	PciSegmentWrite8
	.loc 1 1441 18
	ld	a5,-40(s0)
	addi	a5,a5,1
	sd	a5,-40(s0)
	.loc 1 1442 10
	ld	a5,-48(s0)
	addi	a5,a5,-1
	sd	a5,-48(s0)
	.loc 1 1443 12
	ld	a5,-56(s0)
	addi	a5,a5,1
	sd	a5,-56(s0)
.L117:
	.loc 1 1446 6
	ld	a4,-48(s0)
	li	a5,1
	bleu	a4,a5,.L119
	.loc 1 1446 48 discriminator 1
	ld	a5,-40(s0)
	andi	a5,a5,2
	.loc 1 1446 31 discriminator 1
	beq	a5,zero,.L119
	.loc 1 1450 5
	ld	a0,-56(s0)
	call	ReadUnaligned16
	mv	a5,a0
	mv	a1,a5
	ld	a0,-40(s0)
	call	PciSegmentWrite16
	.loc 1 1451 18
	ld	a5,-40(s0)
	addi	a5,a5,2
	sd	a5,-40(s0)
	.loc 1 1452 10
	ld	a5,-48(s0)
	addi	a5,a5,-2
	sd	a5,-48(s0)
	.loc 1 1453 12
	ld	a5,-56(s0)
	addi	a5,a5,2
	sd	a5,-56(s0)
	.loc 1 1456 9
	j	.L119
.L120:
	.loc 1 1460 5
	ld	a0,-56(s0)
	call	ReadUnaligned32
	mv	a5,a0
	sext.w	a5,a5
	mv	a1,a5
	ld	a0,-40(s0)
	call	PciSegmentWrite32
	.loc 1 1461 18
	ld	a5,-40(s0)
	addi	a5,a5,4
	sd	a5,-40(s0)
	.loc 1 1462 10
	ld	a5,-48(s0)
	addi	a5,a5,-4
	sd	a5,-48(s0)
	.loc 1 1463 12
	ld	a5,-56(s0)
	addi	a5,a5,4
	sd	a5,-56(s0)
.L119:
	.loc 1 1456 9
	ld	a4,-48(s0)
	li	a5,3
	bgtu	a4,a5,.L120
	.loc 1 1466 6
	ld	a4,-48(s0)
	li	a5,1
	bleu	a4,a5,.L121
	.loc 1 1470 5
	ld	a0,-56(s0)
	call	ReadUnaligned16
	mv	a5,a0
	mv	a1,a5
	ld	a0,-40(s0)
	call	PciSegmentWrite16
	.loc 1 1471 18
	ld	a5,-40(s0)
	addi	a5,a5,2
	sd	a5,-40(s0)
	.loc 1 1472 10
	ld	a5,-48(s0)
	addi	a5,a5,-2
	sd	a5,-48(s0)
	.loc 1 1473 12
	ld	a5,-56(s0)
	addi	a5,a5,2
	sd	a5,-56(s0)
.L121:
	.loc 1 1476 6
	ld	a5,-48(s0)
	beq	a5,zero,.L122
	.loc 1 1480 5
	ld	a5,-56(s0)
	lbu	a5,0(a5)
	mv	a1,a5
	ld	a0,-40(s0)
	call	PciSegmentWrite8
.L122:
	.loc 1 1483 10
	ld	a5,-24(s0)
.L115:
	.loc 1 1484 1
	mv	a0,a5
	ld	ra,56(sp)
	.cfi_restore 1
	ld	s0,48(sp)
	.cfi_restore 8
	.cfi_def_cfa 2, 64
	addi	sp,sp,64
	.cfi_def_cfa_offset 0
	jr	ra
	.cfi_endproc
.LFE37:
	.size	PciSegmentWriteBuffer, .-PciSegmentWriteBuffer
	.section	.rodata
	.align	3
.LC7:
	.dword	-281470950178815
	.align	3
.LC9:
	.dword	-281470950178813
	.text
.Letext0:
	.file 2 "/home/xephyr/Documents/edk2/MdePkg/Include/RiscV64/ProcessorBind.h"
	.file 3 "/home/xephyr/Documents/edk2/MdePkg/Include/Base.h"
	.file 4 "/home/xephyr/Documents/edk2/MdePkg/Include/Uefi/UefiBaseType.h"
	.file 5 "/home/xephyr/Documents/edk2/MdePkg/Include/Uefi/UefiMultiPhase.h"
	.file 6 "/home/xephyr/Documents/edk2/MdePkg/Include/Guid/WinCertificate.h"
	.file 7 "/home/xephyr/Documents/edk2/MdePkg/Include/Guid/PcAnsi.h"
	.file 8 "/home/xephyr/Documents/edk2/MdePkg/Include/IndustryStandard/Acpi10.h"
	.file 9 "/home/xephyr/Documents/edk2/MdePkg/Include/Protocol/DevicePath.h"
	.file 10 "/home/xephyr/Documents/edk2/MdePkg/Include/Protocol/SimpleTextIn.h"
	.file 11 "/home/xephyr/Documents/edk2/MdePkg/Include/Protocol/SimpleTextInEx.h"
	.file 12 "/home/xephyr/Documents/edk2/MdePkg/Include/Protocol/SimpleTextOut.h"
	.file 13 "/home/xephyr/Documents/edk2/MdePkg/Include/Uefi/UefiSpec.h"
	.file 14 "/home/xephyr/Documents/edk2/MdePkg/Include/Guid/HiiFormMapMethodGuid.h"
	.file 15 "/home/xephyr/Documents/edk2/Build/Mde/RELEASE_GCC5/RISCV64/MdePkg/Library/UefiPciSegmentLibPciRootBridgeIo/UefiPciSegmentLibPciRootBridgeIo/DEBUG/AutoGen.h"
	.file 16 "/home/xephyr/Documents/edk2/MdePkg/Include/Protocol/PciRootBridgeIo.h"
	.file 17 "/home/xephyr/Documents/edk2/MdePkg/Include/Library/UefiBootServicesTableLib.h"
	.file 18 "/home/xephyr/Documents/edk2/MdePkg/Library/UefiPciSegmentLibPciRootBridgeIo/PciSegmentLib.h"