	.file	"PeCoffExtraActionLib.c"
	.option nopic
	.option norelax
	.attribute arch, "rv64i2p0_m2p0_a2p0_f2p0_d2p0_c2p0"
	.attribute unaligned_access, 0
	.attribute stack_align, 16
	.text
.Ltext0:
	.cfi_sections	.debug_frame
	.section	.rodata
	.align	3
.LC0:
	.string	"ImageContext != ((void *) 0)"
	.align	3
.LC1:
	.string	"/home/xephyr/Documents/edk2/MdePkg/Library/BasePeCoffExtraActionLibNull/PeCoffExtraActionLib.c"
	.section	.text.PeCoffLoaderRelocateImageExtraAction,"ax",@progbits
	.align	1
	.globl	PeCoffLoaderRelocateImageExtraAction
	.type	PeCoffLoaderRelocateImageExtraAction, @function
PeCoffLoaderRelocateImageExtraAction:
.LFB0:
	.file 1 "/home/xephyr/Documents/edk2/MdePkg/Library/BasePeCoffExtraActionLibNull/PeCoffExtraActionLib.c"
	.loc 1 27 1
	.cfi_startproc
	addi	sp,sp,-32
	.cfi_def_cfa_offset 32
	sd	ra,24(sp)
	sd	s0,16(sp)
	.cfi_offset 1, -8
	.cfi_offset 8, -16
	addi	s0,sp,32
	.cfi_def_cfa 8, 0
	sd	a0,-24(s0)
	.loc 1 28 12
	call	DebugAssertEnabled
	mv	a5,a0
	.loc 1 28 11
	beq	a5,zero,.L3
	.loc 1 28 40 discriminator 1
	ld	a5,-24(s0)
	bne	a5,zero,.L3
	.loc 1 28 76 discriminator 2
	lla	a2,.LC0
	li	a1,28
	lla	a0,.LC1
	call	UnitTestDebugAssert
.L3:
	.loc 1 29 1
	nop
	ld	ra,24(sp)
	.cfi_restore 1
	ld	s0,16(sp)
	.cfi_restore 8
	.cfi_def_cfa 2, 32
	addi	sp,sp,32
	.cfi_def_cfa_offset 0
	jr	ra
	.cfi_endproc
.LFE0:
	.size	PeCoffLoaderRelocateImageExtraAction, .-PeCoffLoaderRelocateImageExtraAction
	.section	.text.PeCoffLoaderUnloadImageExtraAction,"ax",@progbits
	.align	1
	.globl	PeCoffLoaderUnloadImageExtraAction
	.type	PeCoffLoaderUnloadImageExtraAction, @function
PeCoffLoaderUnloadImageExtraAction:
.LFB1:
	.loc 1 46 1
	.cfi_startproc
	addi	sp,sp,-32
	.cfi_def_cfa_offset 32
	sd	ra,24(sp)
	sd	s0,16(sp)
	.cfi_offset 1, -8
	.cfi_offset 8, -16
	addi	s0,sp,32
	.cfi_def_cfa 8, 0
	sd	a0,-24(s0)
	.loc 1 47 12
	call	DebugAssertEnabled
	mv	a5,a0
	.loc 1 47 11
	beq	a5,zero,.L6
	.loc 1 47 40 discriminator 1
	ld	a5,-24(s0)
	bne	a5,zero,.L6
	.loc 1 47 76 discriminator 2
	lla	a2,.LC0
	li	a1,47
	lla	a0,.LC1
	call	UnitTestDebugAssert
.L6:
	.loc 1 48 1
	nop
	ld	ra,24(sp)
	.cfi_restore 1
	ld	s0,16(sp)
	.cfi_restore 8
	.cfi_def_cfa 2, 32
	addi	sp,sp,32
	.cfi_def_cfa_offset 0
	jr	ra
	.cfi_endproc
.LFE1:
	.size	PeCoffLoaderUnloadImageExtraAction, .-PeCoffLoaderUnloadImageExtraAction
	.text
.Letext0:
	.file 2 "/home/xephyr/Documents/edk2/MdePkg/Include/RiscV64/ProcessorBind.h"
	.file 3 "/home/xephyr/Documents/edk2/MdePkg/Include/Base.h"
	.file 4 "/home/xephyr/Documents/edk2/Build/Mde/RELEASE_GCC5/RISCV64/MdePkg/Library/BasePeCoffExtraActionLibNull/BasePeCoffExtraActionLibNull/DEBUG/AutoGen.h"
	.file 5 "/home/xephyr/Documents/edk2/MdePkg/Include/Library/PeCoffLib.h"