	.file	"IoHighLevel.c"
	.option nopic
	.option norelax
	.attribute arch, "rv64i2p0_m2p0_a2p0_f2p0_d2p0_c2p0"
	.attribute unaligned_access, 0
	.attribute stack_align, 16
	.text
.Ltext0:
	.cfi_sections	.debug_frame
	.section	.text.IoOr8,"ax",@progbits
	.align	1
	.globl	IoOr8
	.type	IoOr8, @function
IoOr8:
.LFB0:
	.file 1 "/home/xephyr/Documents/edk2/MdePkg/Library/DxeIoLibCpuIo2/IoHighLevel.c"
	.loc 1 39 1
	.cfi_startproc
	addi	sp,sp,-32
	.cfi_def_cfa_offset 32
	sd	ra,24(sp)
	sd	s0,16(sp)
	.cfi_offset 1, -8
	.cfi_offset 8, -16
	addi	s0,sp,32
	.cfi_def_cfa 8, 0
	sd	a0,-24(s0)
	mv	a5,a1
	sb	a5,-25(s0)
	.loc 1 40 35
	ld	a0,-24(s0)
	call	IoRead8
	mv	a5,a0
	mv	a4,a5
	.loc 1 40 10
	lbu	a5,-25(s0)
	or	a5,a4,a5
	andi	a5,a5,0xff
	mv	a1,a5
	ld	a0,-24(s0)
	call	IoWrite8
	mv	a5,a0
	.loc 1 41 1
	mv	a0,a5
	ld	ra,24(sp)
	.cfi_restore 1
	ld	s0,16(sp)
	.cfi_restore 8
	.cfi_def_cfa 2, 32
	addi	sp,sp,32
	.cfi_def_cfa_offset 0
	jr	ra
	.cfi_endproc
.LFE0:
	.size	IoOr8, .-IoOr8
	.section	.text.IoAnd8,"ax",@progbits
	.align	1
	.globl	IoAnd8
	.type	IoAnd8, @function
IoAnd8:
.LFB1:
	.loc 1 67 1
	.cfi_startproc
	addi	sp,sp,-32
	.cfi_def_cfa_offset 32
	sd	ra,24(sp)
	sd	s0,16(sp)
	.cfi_offset 1, -8
	.cfi_offset 8, -16
	addi	s0,sp,32
	.cfi_def_cfa 8, 0
	sd	a0,-24(s0)
	mv	a5,a1
	sb	a5,-25(s0)
	.loc 1 68 35
	ld	a0,-24(s0)
	call	IoRead8
	mv	a5,a0
	mv	a4,a5
	.loc 1 68 10
	lbu	a5,-25(s0)
	and	a5,a4,a5
	andi	a5,a5,0xff
	mv	a1,a5
	ld	a0,-24(s0)
	call	IoWrite8
	mv	a5,a0
	.loc 1 69 1
	mv	a0,a5
	ld	ra,24(sp)
	.cfi_restore 1
	ld	s0,16(sp)
	.cfi_restore 8
	.cfi_def_cfa 2, 32
	addi	sp,sp,32
	.cfi_def_cfa_offset 0
	jr	ra
	.cfi_endproc
.LFE1:
	.size	IoAnd8, .-IoAnd8
	.section	.text.IoAndThenOr8,"ax",@progbits
	.align	1
	.globl	IoAndThenOr8
	.type	IoAndThenOr8, @function
IoAndThenOr8:
.LFB2:
	.loc 1 98 1
	.cfi_startproc
	addi	sp,sp,-32
	.cfi_def_cfa_offset 32
	sd	ra,24(sp)
	sd	s0,16(sp)
	.cfi_offset 1, -8
	.cfi_offset 8, -16
	addi	s0,sp,32
	.cfi_def_cfa 8, 0
	sd	a0,-24(s0)
	mv	a5,a1
	mv	a4,a2
	sb	a5,-25(s0)
	mv	a5,a4
	sb	a5,-26(s0)
	.loc 1 99 36
	ld	a0,-24(s0)
	call	IoRead8
	mv	a5,a0
	mv	a4,a5
	.loc 1 99 10
	lbu	a5,-25(s0)
	and	a5,a4,a5
	andi	a4,a5,0xff
	lbu	a5,-26(s0)
	or	a5,a4,a5
	andi	a5,a5,0xff
	mv	a1,a5
	ld	a0,-24(s0)
	call	IoWrite8
	mv	a5,a0
	.loc 1 100 1
	mv	a0,a5
	ld	ra,24(sp)
	.cfi_restore 1
	ld	s0,16(sp)
	.cfi_restore 8
	.cfi_def_cfa 2, 32
	addi	sp,sp,32
	.cfi_def_cfa_offset 0
	jr	ra
	.cfi_endproc
.LFE2:
	.size	IoAndThenOr8, .-IoAndThenOr8
	.section	.text.IoBitFieldRead8,"ax",@progbits
	.align	1
	.globl	IoBitFieldRead8
	.type	IoBitFieldRead8, @function
IoBitFieldRead8:
.LFB3:
	.loc 1 129 1
	.cfi_startproc
	addi	sp,sp,-48
	.cfi_def_cfa_offset 48
	sd	ra,40(sp)
	sd	s0,32(sp)
	.cfi_offset 1, -8
	.cfi_offset 8, -16
	addi	s0,sp,48
	.cfi_def_cfa 8, 0
	sd	a0,-24(s0)
	sd	a1,-32(s0)
	sd	a2,-40(s0)
	.loc 1 130 10
	ld	a0,-24(s0)
	call	IoRead8
	mv	a5,a0
	ld	a2,-40(s0)
	ld	a1,-32(s0)
	mv	a0,a5
	call	BitFieldRead8
	mv	a5,a0
	.loc 1 131 1
	mv	a0,a5
	ld	ra,40(sp)
	.cfi_restore 1
	ld	s0,32(sp)
	.cfi_restore 8
	.cfi_def_cfa 2, 48
	addi	sp,sp,48
	.cfi_def_cfa_offset 0
	jr	ra
	.cfi_endproc
.LFE3:
	.size	IoBitFieldRead8, .-IoBitFieldRead8
	.section	.text.IoBitFieldWrite8,"ax",@progbits
	.align	1
	.globl	IoBitFieldWrite8
	.type	IoBitFieldWrite8, @function
IoBitFieldWrite8:
.LFB4:
	.loc 1 165 1
	.cfi_startproc
	addi	sp,sp,-48
	.cfi_def_cfa_offset 48
	sd	ra,40(sp)
	sd	s0,32(sp)
	.cfi_offset 1, -8
	.cfi_offset 8, -16
	addi	s0,sp,48
	.cfi_def_cfa 8, 0
	sd	a0,-24(s0)
	sd	a1,-32(s0)
	sd	a2,-40(s0)
	mv	a5,a3
	sb	a5,-41(s0)
	.loc 1 166 10
	ld	a0,-24(s0)
	call	IoRead8
	mv	a5,a0
	mv	a4,a5
	lbu	a5,-41(s0)
	mv	a3,a5
	ld	a2,-40(s0)
	ld	a1,-32(s0)
	mv	a0,a4
	call	BitFieldWrite8
	mv	a5,a0
	mv	a1,a5
	ld	a0,-24(s0)
	call	IoWrite8
	mv	a5,a0
	.loc 1 170 1
	mv	a0,a5
	ld	ra,40(sp)
	.cfi_restore 1
	ld	s0,32(sp)
	.cfi_restore 8
	.cfi_def_cfa 2, 48
	addi	sp,sp,48
	.cfi_def_cfa_offset 0
	jr	ra
	.cfi_endproc
.LFE4:
	.size	IoBitFieldWrite8, .-IoBitFieldWrite8
	.section	.text.IoBitFieldOr8,"ax",@progbits
	.align	1
	.globl	IoBitFieldOr8
	.type	IoBitFieldOr8, @function
IoBitFieldOr8:
.LFB5:
	.loc 1 206 1
	.cfi_startproc
	addi	sp,sp,-48
	.cfi_def_cfa_offset 48
	sd	ra,40(sp)
	sd	s0,32(sp)
	.cfi_offset 1, -8
	.cfi_offset 8, -16
	addi	s0,sp,48
	.cfi_def_cfa 8, 0
	sd	a0,-24(s0)
	sd	a1,-32(s0)
	sd	a2,-40(s0)
	mv	a5,a3
	sb	a5,-41(s0)
	.loc 1 207 10
	ld	a0,-24(s0)
	call	IoRead8
	mv	a5,a0
	mv	a4,a5
	lbu	a5,-41(s0)
	mv	a3,a5
	ld	a2,-40(s0)
	ld	a1,-32(s0)
	mv	a0,a4
	call	BitFieldOr8
	mv	a5,a0
	mv	a1,a5
	ld	a0,-24(s0)
	call	IoWrite8
	mv	a5,a0
	.loc 1 211 1
	mv	a0,a5
	ld	ra,40(sp)
	.cfi_restore 1
	ld	s0,32(sp)
	.cfi_restore 8
	.cfi_def_cfa 2, 48
	addi	sp,sp,48
	.cfi_def_cfa_offset 0
	jr	ra
	.cfi_endproc
.LFE5:
	.size	IoBitFieldOr8, .-IoBitFieldOr8
	.section	.text.IoBitFieldAnd8,"ax",@progbits
	.align	1
	.globl	IoBitFieldAnd8
	.type	IoBitFieldAnd8, @function
IoBitFieldAnd8:
.LFB6:
	.loc 1 247 1
	.cfi_startproc
	addi	sp,sp,-48
	.cfi_def_cfa_offset 48
	sd	ra,40(sp)
	sd	s0,32(sp)
	.cfi_offset 1, -8
	.cfi_offset 8, -16
	addi	s0,sp,48
	.cfi_def_cfa 8, 0
	sd	a0,-24(s0)
	sd	a1,-32(s0)
	sd	a2,-40(s0)
	mv	a5,a3
	sb	a5,-41(s0)
	.loc 1 248 10
	ld	a0,-24(s0)
	call	IoRead8
	mv	a5,a0
	mv	a4,a5
	lbu	a5,-41(s0)
	mv	a3,a5
	ld	a2,-40(s0)
	ld	a1,-32(s0)
	mv	a0,a4
	call	BitFieldAnd8
	mv	a5,a0
	mv	a1,a5
	ld	a0,-24(s0)
	call	IoWrite8
	mv	a5,a0
	.loc 1 252 1
	mv	a0,a5
	ld	ra,40(sp)
	.cfi_restore 1
	ld	s0,32(sp)
	.cfi_restore 8
	.cfi_def_cfa 2, 48
	addi	sp,sp,48
	.cfi_def_cfa_offset 0
	jr	ra
	.cfi_endproc
.LFE6:
	.size	IoBitFieldAnd8, .-IoBitFieldAnd8
	.section	.text.IoBitFieldAndThenOr8,"ax",@progbits
	.align	1
	.globl	IoBitFieldAndThenOr8
	.type	IoBitFieldAndThenOr8, @function
IoBitFieldAndThenOr8:
.LFB7:
	.loc 1 293 1
	.cfi_startproc
	addi	sp,sp,-48
	.cfi_def_cfa_offset 48
	sd	ra,40(sp)
	sd	s0,32(sp)
	.cfi_offset 1, -8
	.cfi_offset 8, -16
	addi	s0,sp,48
	.cfi_def_cfa 8, 0
	sd	a0,-24(s0)
	sd	a1,-32(s0)
	sd	a2,-40(s0)
	mv	a5,a3
	sb	a5,-41(s0)
	mv	a5,a4
	sb	a5,-42(s0)
	.loc 1 294 10
	ld	a0,-24(s0)
	call	IoRead8
	mv	a5,a0
	mv	a0,a5
	lbu	a4,-42(s0)
	lbu	a5,-41(s0)
	mv	a3,a5
	ld	a2,-40(s0)
	ld	a1,-32(s0)
	call	BitFieldAndThenOr8
	mv	a5,a0
	mv	a1,a5
	ld	a0,-24(s0)
	call	IoWrite8
	mv	a5,a0
	.loc 1 298 1
	mv	a0,a5
	ld	ra,40(sp)
	.cfi_restore 1
	ld	s0,32(sp)
	.cfi_restore 8
	.cfi_def_cfa 2, 48
	addi	sp,sp,48
	.cfi_def_cfa_offset 0
	jr	ra
	.cfi_endproc
.LFE7:
	.size	IoBitFieldAndThenOr8, .-IoBitFieldAndThenOr8
	.section	.text.IoOr16,"ax",@progbits
	.align	1
	.globl	IoOr16
	.type	IoOr16, @function
IoOr16:
.LFB8:
	.loc 1 324 1
	.cfi_startproc
	addi	sp,sp,-32
	.cfi_def_cfa_offset 32
	sd	ra,24(sp)
	sd	s0,16(sp)
	.cfi_offset 1, -8
	.cfi_offset 8, -16
	addi	s0,sp,32
	.cfi_def_cfa 8, 0
	sd	a0,-24(s0)
	mv	a5,a1
	sh	a5,-26(s0)
	.loc 1 325 37
	ld	a0,-24(s0)
	call	IoRead16
	mv	a5,a0
	mv	a4,a5
	.loc 1 325 10
	lhu	a5,-26(s0)
	or	a5,a4,a5
	slli	a5,a5,48
	srli	a5,a5,48
	mv	a1,a5
	ld	a0,-24(s0)
	call	IoWrite16
	mv	a5,a0
	.loc 1 326 1
	mv	a0,a5
	ld	ra,24(sp)
	.cfi_restore 1
	ld	s0,16(sp)
	.cfi_restore 8
	.cfi_def_cfa 2, 32
	addi	sp,sp,32
	.cfi_def_cfa_offset 0
	jr	ra
	.cfi_endproc
.LFE8:
	.size	IoOr16, .-IoOr16
	.section	.text.IoAnd16,"ax",@progbits
	.align	1
	.globl	IoAnd16
	.type	IoAnd16, @function
IoAnd16:
.LFB9:
	.loc 1 352 1
	.cfi_startproc
	addi	sp,sp,-32
	.cfi_def_cfa_offset 32
	sd	ra,24(sp)
	sd	s0,16(sp)
	.cfi_offset 1, -8
	.cfi_offset 8, -16
	addi	s0,sp,32
	.cfi_def_cfa 8, 0
	sd	a0,-24(s0)
	mv	a5,a1
	sh	a5,-26(s0)
	.loc 1 353 37
	ld	a0,-24(s0)
	call	IoRead16
	mv	a5,a0
	mv	a4,a5
	.loc 1 353 10
	lhu	a5,-26(s0)
	and	a5,a4,a5
	slli	a5,a5,48
	srli	a5,a5,48
	mv	a1,a5
	ld	a0,-24(s0)
	call	IoWrite16
	mv	a5,a0
	.loc 1 354 1
	mv	a0,a5
	ld	ra,24(sp)
	.cfi_restore 1
	ld	s0,16(sp)
	.cfi_restore 8
	.cfi_def_cfa 2, 32
	addi	sp,sp,32
	.cfi_def_cfa_offset 0
	jr	ra
	.cfi_endproc
.LFE9:
	.size	IoAnd16, .-IoAnd16
	.section	.text.IoAndThenOr16,"ax",@progbits
	.align	1
	.globl	IoAndThenOr16
	.type	IoAndThenOr16, @function
IoAndThenOr16:
.LFB10:
	.loc 1 383 1
	.cfi_startproc
	addi	sp,sp,-32
	.cfi_def_cfa_offset 32
	sd	ra,24(sp)
	sd	s0,16(sp)
	.cfi_offset 1, -8
	.cfi_offset 8, -16
	addi	s0,sp,32
	.cfi_def_cfa 8, 0
	sd	a0,-24(s0)
	mv	a5,a1
	mv	a4,a2
	sh	a5,-26(s0)
	mv	a5,a4
	sh	a5,-28(s0)
	.loc 1 384 38
	ld	a0,-24(s0)
	call	IoRead16
	mv	a5,a0
	mv	a4,a5
	.loc 1 384 10
	lhu	a5,-26(s0)
	and	a5,a4,a5
	slli	a4,a5,48
	srli	a4,a4,48
	lhu	a5,-28(s0)
	or	a5,a4,a5
	slli	a5,a5,48
	srli	a5,a5,48
	mv	a1,a5
	ld	a0,-24(s0)
	call	IoWrite16
	mv	a5,a0
	.loc 1 385 1
	mv	a0,a5
	ld	ra,24(sp)
	.cfi_restore 1
	ld	s0,16(sp)
	.cfi_restore 8
	.cfi_def_cfa 2, 32
	addi	sp,sp,32
	.cfi_def_cfa_offset 0
	jr	ra
	.cfi_endproc
.LFE10:
	.size	IoAndThenOr16, .-IoAndThenOr16
	.section	.text.IoBitFieldRead16,"ax",@progbits
	.align	1
	.globl	IoBitFieldRead16
	.type	IoBitFieldRead16, @function
IoBitFieldRead16:
.LFB11:
	.loc 1 414 1
	.cfi_startproc
	addi	sp,sp,-48
	.cfi_def_cfa_offset 48
	sd	ra,40(sp)
	sd	s0,32(sp)
	.cfi_offset 1, -8
	.cfi_offset 8, -16
	addi	s0,sp,48
	.cfi_def_cfa 8, 0
	sd	a0,-24(s0)
	sd	a1,-32(s0)
	sd	a2,-40(s0)
	.loc 1 415 10
	ld	a0,-24(s0)
	call	IoRead16
	mv	a5,a0
	ld	a2,-40(s0)
	ld	a1,-32(s0)
	mv	a0,a5
	call	BitFieldRead16
	mv	a5,a0
	.loc 1 416 1
	mv	a0,a5
	ld	ra,40(sp)
	.cfi_restore 1
	ld	s0,32(sp)
	.cfi_restore 8
	.cfi_def_cfa 2, 48
	addi	sp,sp,48
	.cfi_def_cfa_offset 0
	jr	ra
	.cfi_endproc
.LFE11:
	.size	IoBitFieldRead16, .-IoBitFieldRead16
	.section	.text.IoBitFieldWrite16,"ax",@progbits
	.align	1
	.globl	IoBitFieldWrite16
	.type	IoBitFieldWrite16, @function
IoBitFieldWrite16:
.LFB12:
	.loc 1 450 1
	.cfi_startproc
	addi	sp,sp,-48
	.cfi_def_cfa_offset 48
	sd	ra,40(sp)
	sd	s0,32(sp)
	.cfi_offset 1, -8
	.cfi_offset 8, -16
	addi	s0,sp,48
	.cfi_def_cfa 8, 0
	sd	a0,-24(s0)
	sd	a1,-32(s0)
	sd	a2,-40(s0)
	mv	a5,a3
	sh	a5,-42(s0)
	.loc 1 451 10
	ld	a0,-24(s0)
	call	IoRead16
	mv	a5,a0
	mv	a4,a5
	lhu	a5,-42(s0)
	mv	a3,a5
	ld	a2,-40(s0)
	ld	a1,-32(s0)
	mv	a0,a4
	call	BitFieldWrite16
	mv	a5,a0
	mv	a1,a5
	ld	a0,-24(s0)
	call	IoWrite16
	mv	a5,a0
	.loc 1 455 1
	mv	a0,a5
	ld	ra,40(sp)
	.cfi_restore 1
	ld	s0,32(sp)
	.cfi_restore 8
	.cfi_def_cfa 2, 48
	addi	sp,sp,48
	.cfi_def_cfa_offset 0
	jr	ra
	.cfi_endproc
.LFE12:
	.size	IoBitFieldWrite16, .-IoBitFieldWrite16
	.section	.text.IoBitFieldOr16,"ax",@progbits
	.align	1
	.globl	IoBitFieldOr16
	.type	IoBitFieldOr16, @function
IoBitFieldOr16:
.LFB13:
	.loc 1 491 1
	.cfi_startproc
	addi	sp,sp,-48
	.cfi_def_cfa_offset 48
	sd	ra,40(sp)
	sd	s0,32(sp)
	.cfi_offset 1, -8
	.cfi_offset 8, -16
	addi	s0,sp,48
	.cfi_def_cfa 8, 0
	sd	a0,-24(s0)
	sd	a1,-32(s0)
	sd	a2,-40(s0)
	mv	a5,a3
	sh	a5,-42(s0)
	.loc 1 492 10
	ld	a0,-24(s0)
	call	IoRead16
	mv	a5,a0
	mv	a4,a5
	lhu	a5,-42(s0)
	mv	a3,a5
	ld	a2,-40(s0)
	ld	a1,-32(s0)
	mv	a0,a4
	call	BitFieldOr16
	mv	a5,a0
	mv	a1,a5
	ld	a0,-24(s0)
	call	IoWrite16
	mv	a5,a0
	.loc 1 496 1
	mv	a0,a5
	ld	ra,40(sp)
	.cfi_restore 1
	ld	s0,32(sp)
	.cfi_restore 8
	.cfi_def_cfa 2, 48
	addi	sp,sp,48
	.cfi_def_cfa_offset 0
	jr	ra
	.cfi_endproc
.LFE13:
	.size	IoBitFieldOr16, .-IoBitFieldOr16
	.section	.text.IoBitFieldAnd16,"ax",@progbits
	.align	1
	.globl	IoBitFieldAnd16
	.type	IoBitFieldAnd16, @function
IoBitFieldAnd16:
.LFB14:
	.loc 1 532 1
	.cfi_startproc
	addi	sp,sp,-48
	.cfi_def_cfa_offset 48
	sd	ra,40(sp)
	sd	s0,32(sp)
	.cfi_offset 1, -8
	.cfi_offset 8, -16
	addi	s0,sp,48
	.cfi_def_cfa 8, 0
	sd	a0,-24(s0)
	sd	a1,-32(s0)
	sd	a2,-40(s0)
	mv	a5,a3
	sh	a5,-42(s0)
	.loc 1 533 10
	ld	a0,-24(s0)
	call	IoRead16
	mv	a5,a0
	mv	a4,a5
	lhu	a5,-42(s0)
	mv	a3,a5
	ld	a2,-40(s0)
	ld	a1,-32(s0)
	mv	a0,a4
	call	BitFieldAnd16
	mv	a5,a0
	mv	a1,a5
	ld	a0,-24(s0)
	call	IoWrite16
	mv	a5,a0
	.loc 1 537 1
	mv	a0,a5
	ld	ra,40(sp)
	.cfi_restore 1
	ld	s0,32(sp)
	.cfi_restore 8
	.cfi_def_cfa 2, 48
	addi	sp,sp,48
	.cfi_def_cfa_offset 0
	jr	ra
	.cfi_endproc
.LFE14:
	.size	IoBitFieldAnd16, .-IoBitFieldAnd16
	.section	.text.IoBitFieldAndThenOr16,"ax",@progbits
	.align	1
	.globl	IoBitFieldAndThenOr16
	.type	IoBitFieldAndThenOr16, @function
IoBitFieldAndThenOr16:
.LFB15:
	.loc 1 578 1
	.cfi_startproc
	addi	sp,sp,-48
	.cfi_def_cfa_offset 48
	sd	ra,40(sp)
	sd	s0,32(sp)
	.cfi_offset 1, -8
	.cfi_offset 8, -16
	addi	s0,sp,48
	.cfi_def_cfa 8, 0
	sd	a0,-24(s0)
	sd	a1,-32(s0)
	sd	a2,-40(s0)
	mv	a5,a3
	sh	a5,-42(s0)
	mv	a5,a4
	sh	a5,-44(s0)
	.loc 1 579 10
	ld	a0,-24(s0)
	call	IoRead16
	mv	a5,a0
	mv	a0,a5
	lhu	a4,-44(s0)
	lhu	a5,-42(s0)
	mv	a3,a5
	ld	a2,-40(s0)
	ld	a1,-32(s0)
	call	BitFieldAndThenOr16
	mv	a5,a0
	mv	a1,a5
	ld	a0,-24(s0)
	call	IoWrite16
	mv	a5,a0
	.loc 1 583 1
	mv	a0,a5
	ld	ra,40(sp)
	.cfi_restore 1
	ld	s0,32(sp)
	.cfi_restore 8
	.cfi_def_cfa 2, 48
	addi	sp,sp,48
	.cfi_def_cfa_offset 0
	jr	ra
	.cfi_endproc
.LFE15:
	.size	IoBitFieldAndThenOr16, .-IoBitFieldAndThenOr16
	.section	.text.IoOr32,"ax",@progbits
	.align	1
	.globl	IoOr32
	.type	IoOr32, @function
IoOr32:
.LFB16:
	.loc 1 609 1
	.cfi_startproc
	addi	sp,sp,-32
	.cfi_def_cfa_offset 32
	sd	ra,24(sp)
	sd	s0,16(sp)
	.cfi_offset 1, -8
	.cfi_offset 8, -16
	addi	s0,sp,32
	.cfi_def_cfa 8, 0
	sd	a0,-24(s0)
	mv	a5,a1
	sw	a5,-28(s0)
	.loc 1 610 27
	ld	a0,-24(s0)
	call	IoRead32
	mv	a5,a0
	sext.w	a4,a5
	.loc 1 610 10
	lw	a5,-28(s0)
	or	a5,a5,a4
	sext.w	a5,a5
	mv	a1,a5
	ld	a0,-24(s0)
	call	IoWrite32
	mv	a5,a0
	sext.w	a5,a5
	.loc 1 611 1
	mv	a0,a5
	ld	ra,24(sp)
	.cfi_restore 1
	ld	s0,16(sp)
	.cfi_restore 8
	.cfi_def_cfa 2, 32
	addi	sp,sp,32
	.cfi_def_cfa_offset 0
	jr	ra
	.cfi_endproc
.LFE16:
	.size	IoOr32, .-IoOr32
	.section	.text.IoAnd32,"ax",@progbits
	.align	1
	.globl	IoAnd32
	.type	IoAnd32, @function
IoAnd32:
.LFB17:
	.loc 1 637 1
	.cfi_startproc
	addi	sp,sp,-32
	.cfi_def_cfa_offset 32
	sd	ra,24(sp)
	sd	s0,16(sp)
	.cfi_offset 1, -8
	.cfi_offset 8, -16
	addi	s0,sp,32
	.cfi_def_cfa 8, 0
	sd	a0,-24(s0)
	mv	a5,a1
	sw	a5,-28(s0)
	.loc 1 638 27
	ld	a0,-24(s0)
	call	IoRead32
	mv	a5,a0
	sext.w	a4,a5
	.loc 1 638 10
	lw	a5,-28(s0)
	and	a5,a5,a4
	sext.w	a5,a5
	mv	a1,a5
	ld	a0,-24(s0)
	call	IoWrite32
	mv	a5,a0
	sext.w	a5,a5
	.loc 1 639 1
	mv	a0,a5
	ld	ra,24(sp)
	.cfi_restore 1
	ld	s0,16(sp)
	.cfi_restore 8
	.cfi_def_cfa 2, 32
	addi	sp,sp,32
	.cfi_def_cfa_offset 0
	jr	ra
	.cfi_endproc
.LFE17:
	.size	IoAnd32, .-IoAnd32
	.section	.text.IoAndThenOr32,"ax",@progbits
	.align	1
	.globl	IoAndThenOr32
	.type	IoAndThenOr32, @function
IoAndThenOr32:
.LFB18:
	.loc 1 668 1
	.cfi_startproc
	addi	sp,sp,-32
	.cfi_def_cfa_offset 32
	sd	ra,24(sp)
	sd	s0,16(sp)
	.cfi_offset 1, -8
	.cfi_offset 8, -16
	addi	s0,sp,32
	.cfi_def_cfa 8, 0
	sd	a0,-24(s0)
	mv	a5,a1
	mv	a4,a2
	sw	a5,-28(s0)
	mv	a5,a4
	sw	a5,-32(s0)
	.loc 1 669 28
	ld	a0,-24(s0)
	call	IoRead32
	mv	a5,a0
	sext.w	a4,a5
	.loc 1 669 44
	lw	a5,-28(s0)
	and	a5,a5,a4
	sext.w	a4,a5
	.loc 1 669 10
	lw	a5,-32(s0)
	or	a5,a5,a4
	sext.w	a5,a5
	mv	a1,a5
	ld	a0,-24(s0)
	call	IoWrite32
	mv	a5,a0
	sext.w	a5,a5
	.loc 1 670 1
	mv	a0,a5
	ld	ra,24(sp)
	.cfi_restore 1
	ld	s0,16(sp)
	.cfi_restore 8
	.cfi_def_cfa 2, 32
	addi	sp,sp,32
	.cfi_def_cfa_offset 0
	jr	ra
	.cfi_endproc
.LFE18:
	.size	IoAndThenOr32, .-IoAndThenOr32
	.section	.text.IoBitFieldRead32,"ax",@progbits
	.align	1
	.globl	IoBitFieldRead32
	.type	IoBitFieldRead32, @function
IoBitFieldRead32:
.LFB19:
	.loc 1 699 1
	.cfi_startproc
	addi	sp,sp,-48
	.cfi_def_cfa_offset 48
	sd	ra,40(sp)
	sd	s0,32(sp)
	.cfi_offset 1, -8
	.cfi_offset 8, -16
	addi	s0,sp,48
	.cfi_def_cfa 8, 0
	sd	a0,-24(s0)
	sd	a1,-32(s0)
	sd	a2,-40(s0)
	.loc 1 700 10
	ld	a0,-24(s0)
	call	IoRead32
	mv	a5,a0
	sext.w	a5,a5
	ld	a2,-40(s0)
	ld	a1,-32(s0)
	mv	a0,a5
	call	BitFieldRead32
	mv	a5,a0
	sext.w	a5,a5
	.loc 1 701 1
	mv	a0,a5
	ld	ra,40(sp)
	.cfi_restore 1
	ld	s0,32(sp)
	.cfi_restore 8
	.cfi_def_cfa 2, 48
	addi	sp,sp,48
	.cfi_def_cfa_offset 0
	jr	ra
	.cfi_endproc
.LFE19:
	.size	IoBitFieldRead32, .-IoBitFieldRead32
	.section	.text.IoBitFieldWrite32,"ax",@progbits
	.align	1
	.globl	IoBitFieldWrite32
	.type	IoBitFieldWrite32, @function
IoBitFieldWrite32:
.LFB20:
	.loc 1 735 1
	.cfi_startproc
	addi	sp,sp,-48
	.cfi_def_cfa_offset 48
	sd	ra,40(sp)
	sd	s0,32(sp)
	.cfi_offset 1, -8
	.cfi_offset 8, -16
	addi	s0,sp,48
	.cfi_def_cfa 8, 0
	sd	a0,-24(s0)
	sd	a1,-32(s0)
	sd	a2,-40(s0)
	mv	a5,a3
	sw	a5,-44(s0)
	.loc 1 736 10
	ld	a0,-24(s0)
	call	IoRead32
	mv	a5,a0
	sext.w	a5,a5
	lw	a4,-44(s0)
	mv	a3,a4
	ld	a2,-40(s0)
	ld	a1,-32(s0)
	mv	a0,a5
	call	BitFieldWrite32
	mv	a5,a0
	sext.w	a5,a5
	mv	a1,a5
	ld	a0,-24(s0)
	call	IoWrite32
	mv	a5,a0
	sext.w	a5,a5
	.loc 1 740 1
	mv	a0,a5
	ld	ra,40(sp)
	.cfi_restore 1
	ld	s0,32(sp)
	.cfi_restore 8
	.cfi_def_cfa 2, 48
	addi	sp,sp,48
	.cfi_def_cfa_offset 0
	jr	ra
	.cfi_endproc
.LFE20:
	.size	IoBitFieldWrite32, .-IoBitFieldWrite32
	.section	.text.IoBitFieldOr32,"ax",@progbits
	.align	1
	.globl	IoBitFieldOr32
	.type	IoBitFieldOr32, @function
IoBitFieldOr32:
.LFB21:
	.loc 1 776 1
	.cfi_startproc
	addi	sp,sp,-48
	.cfi_def_cfa_offset 48
	sd	ra,40(sp)
	sd	s0,32(sp)
	.cfi_offset 1, -8
	.cfi_offset 8, -16
	addi	s0,sp,48
	.cfi_def_cfa 8, 0
	sd	a0,-24(s0)
	sd	a1,-32(s0)
	sd	a2,-40(s0)
	mv	a5,a3
	sw	a5,-44(s0)
	.loc 1 777 10
	ld	a0,-24(s0)
	call	IoRead32
	mv	a5,a0
	sext.w	a5,a5
	lw	a4,-44(s0)
	mv	a3,a4
	ld	a2,-40(s0)
	ld	a1,-32(s0)
	mv	a0,a5
	call	BitFieldOr32
	mv	a5,a0
	sext.w	a5,a5
	mv	a1,a5
	ld	a0,-24(s0)
	call	IoWrite32
	mv	a5,a0
	sext.w	a5,a5
	.loc 1 781 1
	mv	a0,a5
	ld	ra,40(sp)
	.cfi_restore 1
	ld	s0,32(sp)
	.cfi_restore 8
	.cfi_def_cfa 2, 48
	addi	sp,sp,48
	.cfi_def_cfa_offset 0
	jr	ra
	.cfi_endproc
.LFE21:
	.size	IoBitFieldOr32, .-IoBitFieldOr32
	.section	.text.IoBitFieldAnd32,"ax",@progbits
	.align	1
	.globl	IoBitFieldAnd32
	.type	IoBitFieldAnd32, @function
IoBitFieldAnd32:
.LFB22:
	.loc 1 817 1
	.cfi_startproc
	addi	sp,sp,-48
	.cfi_def_cfa_offset 48
	sd	ra,40(sp)
	sd	s0,32(sp)
	.cfi_offset 1, -8
	.cfi_offset 8, -16
	addi	s0,sp,48
	.cfi_def_cfa 8, 0
	sd	a0,-24(s0)
	sd	a1,-32(s0)
	sd	a2,-40(s0)
	mv	a5,a3
	sw	a5,-44(s0)
	.loc 1 818 10
	ld	a0,-24(s0)
	call	IoRead32
	mv	a5,a0
	sext.w	a5,a5
	lw	a4,-44(s0)
	mv	a3,a4
	ld	a2,-40(s0)
	ld	a1,-32(s0)
	mv	a0,a5
	call	BitFieldAnd32
	mv	a5,a0
	sext.w	a5,a5
	mv	a1,a5
	ld	a0,-24(s0)
	call	IoWrite32
	mv	a5,a0
	sext.w	a5,a5
	.loc 1 822 1
	mv	a0,a5
	ld	ra,40(sp)
	.cfi_restore 1
	ld	s0,32(sp)
	.cfi_restore 8
	.cfi_def_cfa 2, 48
	addi	sp,sp,48
	.cfi_def_cfa_offset 0
	jr	ra
	.cfi_endproc
.LFE22:
	.size	IoBitFieldAnd32, .-IoBitFieldAnd32
	.section	.text.IoBitFieldAndThenOr32,"ax",@progbits
	.align	1
	.globl	IoBitFieldAndThenOr32
	.type	IoBitFieldAndThenOr32, @function
IoBitFieldAndThenOr32:
.LFB23:
	.loc 1 863 1
	.cfi_startproc
	addi	sp,sp,-48
	.cfi_def_cfa_offset 48
	sd	ra,40(sp)
	sd	s0,32(sp)
	.cfi_offset 1, -8
	.cfi_offset 8, -16
	addi	s0,sp,48
	.cfi_def_cfa 8, 0
	sd	a0,-24(s0)
	sd	a1,-32(s0)
	sd	a2,-40(s0)
	mv	a5,a3
	sw	a5,-44(s0)
	mv	a5,a4
	sw	a5,-48(s0)
	.loc 1 864 10
	ld	a0,-24(s0)
	call	IoRead32
	mv	a5,a0
	sext.w	a5,a5
	lw	a4,-48(s0)
	lw	a3,-44(s0)
	ld	a2,-40(s0)
	ld	a1,-32(s0)
	mv	a0,a5
	call	BitFieldAndThenOr32
	mv	a5,a0
	sext.w	a5,a5
	mv	a1,a5
	ld	a0,-24(s0)
	call	IoWrite32
	mv	a5,a0
	sext.w	a5,a5
	.loc 1 868 1
	mv	a0,a5
	ld	ra,40(sp)
	.cfi_restore 1
	ld	s0,32(sp)
	.cfi_restore 8
	.cfi_def_cfa 2, 48
	addi	sp,sp,48
	.cfi_def_cfa_offset 0
	jr	ra
	.cfi_endproc
.LFE23:
	.size	IoBitFieldAndThenOr32, .-IoBitFieldAndThenOr32
	.section	.text.IoOr64,"ax",@progbits
	.align	1
	.globl	IoOr64
	.type	IoOr64, @function
IoOr64:
.LFB24:
	.loc 1 894 1
	.cfi_startproc
	addi	sp,sp,-32
	.cfi_def_cfa_offset 32
	sd	ra,24(sp)
	sd	s0,16(sp)
	.cfi_offset 1, -8
	.cfi_offset 8, -16
	addi	s0,sp,32
	.cfi_def_cfa 8, 0
	sd	a0,-24(s0)
	sd	a1,-32(s0)
	.loc 1 895 27
	ld	a0,-24(s0)
	call	IoRead64
	mv	a4,a0
	.loc 1 895 10
	ld	a5,-32(s0)
	or	a5,a4,a5
	mv	a1,a5
	ld	a0,-24(s0)
	call	IoWrite64
	mv	a5,a0
	.loc 1 896 1
	mv	a0,a5
	ld	ra,24(sp)
	.cfi_restore 1
	ld	s0,16(sp)
	.cfi_restore 8
	.cfi_def_cfa 2, 32
	addi	sp,sp,32
	.cfi_def_cfa_offset 0
	jr	ra
	.cfi_endproc
.LFE24:
	.size	IoOr64, .-IoOr64
	.section	.text.IoAnd64,"ax",@progbits
	.align	1
	.globl	IoAnd64
	.type	IoAnd64, @function
IoAnd64:
.LFB25:
	.loc 1 922 1
	.cfi_startproc
	addi	sp,sp,-32
	.cfi_def_cfa_offset 32
	sd	ra,24(sp)
	sd	s0,16(sp)
	.cfi_offset 1, -8
	.cfi_offset 8, -16
	addi	s0,sp,32
	.cfi_def_cfa 8, 0
	sd	a0,-24(s0)
	sd	a1,-32(s0)
	.loc 1 923 27
	ld	a0,-24(s0)
	call	IoRead64
	mv	a4,a0
	.loc 1 923 10
	ld	a5,-32(s0)
	and	a5,a4,a5
	mv	a1,a5
	ld	a0,-24(s0)
	call	IoWrite64
	mv	a5,a0
	.loc 1 924 1
	mv	a0,a5
	ld	ra,24(sp)
	.cfi_restore 1
	ld	s0,16(sp)
	.cfi_restore 8
	.cfi_def_cfa 2, 32
	addi	sp,sp,32
	.cfi_def_cfa_offset 0
	jr	ra
	.cfi_endproc
.LFE25:
	.size	IoAnd64, .-IoAnd64
	.section	.text.IoAndThenOr64,"ax",@progbits
	.align	1
	.globl	IoAndThenOr64
	.type	IoAndThenOr64, @function
IoAndThenOr64:
.LFB26:
	.loc 1 953 1
	.cfi_startproc
	addi	sp,sp,-48
	.cfi_def_cfa_offset 48
	sd	ra,40(sp)
	sd	s0,32(sp)
	.cfi_offset 1, -8
	.cfi_offset 8, -16
	addi	s0,sp,48
	.cfi_def_cfa 8, 0
	sd	a0,-24(s0)
	sd	a1,-32(s0)
	sd	a2,-40(s0)
	.loc 1 954 28
	ld	a0,-24(s0)
	call	IoRead64
	mv	a4,a0
	.loc 1 954 44
	ld	a5,-32(s0)
	and	a4,a4,a5
	.loc 1 954 10
	ld	a5,-40(s0)
	or	a5,a4,a5
	mv	a1,a5
	ld	a0,-24(s0)
	call	IoWrite64
	mv	a5,a0
	.loc 1 955 1
	mv	a0,a5
	ld	ra,40(sp)
	.cfi_restore 1
	ld	s0,32(sp)
	.cfi_restore 8
	.cfi_def_cfa 2, 48
	addi	sp,sp,48
	.cfi_def_cfa_offset 0
	jr	ra
	.cfi_endproc
.LFE26:
	.size	IoAndThenOr64, .-IoAndThenOr64
	.section	.text.IoBitFieldRead64,"ax",@progbits
	.align	1
	.globl	IoBitFieldRead64
	.type	IoBitFieldRead64, @function
IoBitFieldRead64:
.LFB27:
	.loc 1 984 1
	.cfi_startproc
	addi	sp,sp,-48
	.cfi_def_cfa_offset 48
	sd	ra,40(sp)
	sd	s0,32(sp)
	.cfi_offset 1, -8
	.cfi_offset 8, -16
	addi	s0,sp,48
	.cfi_def_cfa 8, 0
	sd	a0,-24(s0)
	sd	a1,-32(s0)
	sd	a2,-40(s0)
	.loc 1 985 10
	ld	a0,-24(s0)
	call	IoRead64
	mv	a5,a0
	ld	a2,-40(s0)
	ld	a1,-32(s0)
	mv	a0,a5
	call	BitFieldRead64
	mv	a5,a0
	.loc 1 986 1
	mv	a0,a5
	ld	ra,40(sp)
	.cfi_restore 1
	ld	s0,32(sp)
	.cfi_restore 8
	.cfi_def_cfa 2, 48
	addi	sp,sp,48
	.cfi_def_cfa_offset 0
	jr	ra
	.cfi_endproc
.LFE27:
	.size	IoBitFieldRead64, .-IoBitFieldRead64
	.section	.text.IoBitFieldWrite64,"ax",@progbits
	.align	1
	.globl	IoBitFieldWrite64
	.type	IoBitFieldWrite64, @function
IoBitFieldWrite64:
.LFB28:
	.loc 1 1020 1
	.cfi_startproc
	addi	sp,sp,-48
	.cfi_def_cfa_offset 48
	sd	ra,40(sp)
	sd	s0,32(sp)
	.cfi_offset 1, -8
	.cfi_offset 8, -16
	addi	s0,sp,48
	.cfi_def_cfa 8, 0
	sd	a0,-24(s0)
	sd	a1,-32(s0)
	sd	a2,-40(s0)
	sd	a3,-48(s0)
	.loc 1 1021 10
	ld	a0,-24(s0)
	call	IoRead64
	mv	a5,a0
	ld	a3,-48(s0)
	ld	a2,-40(s0)
	ld	a1,-32(s0)
	mv	a0,a5
	call	BitFieldWrite64
	mv	a5,a0
	mv	a1,a5
	ld	a0,-24(s0)
	call	IoWrite64
	mv	a5,a0
	.loc 1 1025 1
	mv	a0,a5
	ld	ra,40(sp)
	.cfi_restore 1
	ld	s0,32(sp)
	.cfi_restore 8
	.cfi_def_cfa 2, 48
	addi	sp,sp,48
	.cfi_def_cfa_offset 0
	jr	ra
	.cfi_endproc
.LFE28:
	.size	IoBitFieldWrite64, .-IoBitFieldWrite64
	.section	.text.IoBitFieldOr64,"ax",@progbits
	.align	1
	.globl	IoBitFieldOr64
	.type	IoBitFieldOr64, @function
IoBitFieldOr64:
.LFB29:
	.loc 1 1061 1
	.cfi_startproc
	addi	sp,sp,-48
	.cfi_def_cfa_offset 48
	sd	ra,40(sp)
	sd	s0,32(sp)
	.cfi_offset 1, -8
	.cfi_offset 8, -16
	addi	s0,sp,48
	.cfi_def_cfa 8, 0
	sd	a0,-24(s0)
	sd	a1,-32(s0)
	sd	a2,-40(s0)
	sd	a3,-48(s0)
	.loc 1 1062 10
	ld	a0,-24(s0)
	call	IoRead64
	mv	a5,a0
	ld	a3,-48(s0)
	ld	a2,-40(s0)
	ld	a1,-32(s0)
	mv	a0,a5
	call	BitFieldOr64
	mv	a5,a0
	mv	a1,a5
	ld	a0,-24(s0)
	call	IoWrite64
	mv	a5,a0
	.loc 1 1066 1
	mv	a0,a5
	ld	ra,40(sp)
	.cfi_restore 1
	ld	s0,32(sp)
	.cfi_restore 8
	.cfi_def_cfa 2, 48
	addi	sp,sp,48
	.cfi_def_cfa_offset 0
	jr	ra
	.cfi_endproc
.LFE29:
	.size	IoBitFieldOr64, .-IoBitFieldOr64
	.section	.text.IoBitFieldAnd64,"ax",@progbits
	.align	1
	.globl	IoBitFieldAnd64
	.type	IoBitFieldAnd64, @function
IoBitFieldAnd64:
.LFB30:
	.loc 1 1102 1
	.cfi_startproc
	addi	sp,sp,-48
	.cfi_def_cfa_offset 48
	sd	ra,40(sp)
	sd	s0,32(sp)
	.cfi_offset 1, -8
	.cfi_offset 8, -16
	addi	s0,sp,48
	.cfi_def_cfa 8, 0
	sd	a0,-24(s0)
	sd	a1,-32(s0)
	sd	a2,-40(s0)
	sd	a3,-48(s0)
	.loc 1 1103 10
	ld	a0,-24(s0)
	call	IoRead64
	mv	a5,a0
	ld	a3,-48(s0)
	ld	a2,-40(s0)
	ld	a1,-32(s0)
	mv	a0,a5
	call	BitFieldAnd64
	mv	a5,a0
	mv	a1,a5
	ld	a0,-24(s0)
	call	IoWrite64
	mv	a5,a0
	.loc 1 1107 1
	mv	a0,a5
	ld	ra,40(sp)
	.cfi_restore 1
	ld	s0,32(sp)
	.cfi_restore 8
	.cfi_def_cfa 2, 48
	addi	sp,sp,48
	.cfi_def_cfa_offset 0
	jr	ra
	.cfi_endproc
.LFE30:
	.size	IoBitFieldAnd64, .-IoBitFieldAnd64
	.section	.text.IoBitFieldAndThenOr64,"ax",@progbits
	.align	1
	.globl	IoBitFieldAndThenOr64
	.type	IoBitFieldAndThenOr64, @function
IoBitFieldAndThenOr64:
.LFB31:
	.loc 1 1148 1
	.cfi_startproc
	addi	sp,sp,-64
	.cfi_def_cfa_offset 64
	sd	ra,56(sp)
	sd	s0,48(sp)
	.cfi_offset 1, -8
	.cfi_offset 8, -16
	addi	s0,sp,64
	.cfi_def_cfa 8, 0
	sd	a0,-24(s0)
	sd	a1,-32(s0)
	sd	a2,-40(s0)
	sd	a3,-48(s0)
	sd	a4,-56(s0)
	.loc 1 1149 10
	ld	a0,-24(s0)
	call	IoRead64
	mv	a5,a0
	ld	a4,-56(s0)
	ld	a3,-48(s0)
	ld	a2,-40(s0)
	ld	a1,-32(s0)
	mv	a0,a5
	call	BitFieldAndThenOr64
	mv	a5,a0
	mv	a1,a5
	ld	a0,-24(s0)
	call	IoWrite64
	mv	a5,a0
	.loc 1 1153 1
	mv	a0,a5
	ld	ra,56(sp)
	.cfi_restore 1
	ld	s0,48(sp)
	.cfi_restore 8
	.cfi_def_cfa 2, 64
	addi	sp,sp,64
	.cfi_def_cfa_offset 0
	jr	ra
	.cfi_endproc
.LFE31:
	.size	IoBitFieldAndThenOr64, .-IoBitFieldAndThenOr64
	.section	.text.MmioOr8,"ax",@progbits
	.align	1
	.globl	MmioOr8
	.type	MmioOr8, @function
MmioOr8:
.LFB32:
	.loc 1 1179 1
	.cfi_startproc
	addi	sp,sp,-32
	.cfi_def_cfa_offset 32
	sd	ra,24(sp)
	sd	s0,16(sp)
	.cfi_offset 1, -8
	.cfi_offset 8, -16
	addi	s0,sp,32
	.cfi_def_cfa 8, 0
	sd	a0,-24(s0)
	mv	a5,a1
	sb	a5,-25(s0)
	.loc 1 1180 40
	ld	a0,-24(s0)
	call	MmioRead8
	mv	a5,a0
	mv	a4,a5
	.loc 1 1180 10
	lbu	a5,-25(s0)
	or	a5,a4,a5
	andi	a5,a5,0xff
	mv	a1,a5
	ld	a0,-24(s0)
	call	MmioWrite8
	mv	a5,a0
	.loc 1 1181 1
	mv	a0,a5
	ld	ra,24(sp)
	.cfi_restore 1
	ld	s0,16(sp)
	.cfi_restore 8
	.cfi_def_cfa 2, 32
	addi	sp,sp,32
	.cfi_def_cfa_offset 0
	jr	ra
	.cfi_endproc
.LFE32:
	.size	MmioOr8, .-MmioOr8
	.section	.text.MmioAnd8,"ax",@progbits
	.align	1
	.globl	MmioAnd8
	.type	MmioAnd8, @function
MmioAnd8:
.LFB33:
	.loc 1 1207 1
	.cfi_startproc
	addi	sp,sp,-32
	.cfi_def_cfa_offset 32
	sd	ra,24(sp)
	sd	s0,16(sp)
	.cfi_offset 1, -8
	.cfi_offset 8, -16
	addi	s0,sp,32
	.cfi_def_cfa 8, 0
	sd	a0,-24(s0)
	mv	a5,a1
	sb	a5,-25(s0)
	.loc 1 1208 40
	ld	a0,-24(s0)
	call	MmioRead8
	mv	a5,a0
	mv	a4,a5
	.loc 1 1208 10
	lbu	a5,-25(s0)
	and	a5,a4,a5
	andi	a5,a5,0xff
	mv	a1,a5
	ld	a0,-24(s0)
	call	MmioWrite8
	mv	a5,a0
	.loc 1 1209 1
	mv	a0,a5
	ld	ra,24(sp)
	.cfi_restore 1
	ld	s0,16(sp)
	.cfi_restore 8
	.cfi_def_cfa 2, 32
	addi	sp,sp,32
	.cfi_def_cfa_offset 0
	jr	ra
	.cfi_endproc
.LFE33:
	.size	MmioAnd8, .-MmioAnd8
	.section	.text.MmioAndThenOr8,"ax",@progbits
	.align	1
	.globl	MmioAndThenOr8
	.type	MmioAndThenOr8, @function
MmioAndThenOr8:
.LFB34:
	.loc 1 1239 1
	.cfi_startproc
	addi	sp,sp,-32
	.cfi_def_cfa_offset 32
	sd	ra,24(sp)
	sd	s0,16(sp)
	.cfi_offset 1, -8
	.cfi_offset 8, -16
	addi	s0,sp,32
	.cfi_def_cfa 8, 0
	sd	a0,-24(s0)
	mv	a5,a1
	mv	a4,a2
	sb	a5,-25(s0)
	mv	a5,a4
	sb	a5,-26(s0)
	.loc 1 1240 41
	ld	a0,-24(s0)
	call	MmioRead8
	mv	a5,a0
	mv	a4,a5
	.loc 1 1240 10
	lbu	a5,-25(s0)
	and	a5,a4,a5
	andi	a4,a5,0xff
	lbu	a5,-26(s0)
	or	a5,a4,a5
	andi	a5,a5,0xff
	mv	a1,a5
	ld	a0,-24(s0)
	call	MmioWrite8
	mv	a5,a0
	.loc 1 1241 1
	mv	a0,a5
	ld	ra,24(sp)
	.cfi_restore 1
	ld	s0,16(sp)
	.cfi_restore 8
	.cfi_def_cfa 2, 32
	addi	sp,sp,32
	.cfi_def_cfa_offset 0
	jr	ra
	.cfi_endproc
.LFE34:
	.size	MmioAndThenOr8, .-MmioAndThenOr8
	.section	.text.MmioBitFieldRead8,"ax",@progbits
	.align	1
	.globl	MmioBitFieldRead8
	.type	MmioBitFieldRead8, @function
MmioBitFieldRead8:
.LFB35:
	.loc 1 1270 1
	.cfi_startproc
	addi	sp,sp,-48
	.cfi_def_cfa_offset 48
	sd	ra,40(sp)
	sd	s0,32(sp)
	.cfi_offset 1, -8
	.cfi_offset 8, -16
	addi	s0,sp,48
	.cfi_def_cfa 8, 0
	sd	a0,-24(s0)
	sd	a1,-32(s0)
	sd	a2,-40(s0)
	.loc 1 1271 10
	ld	a0,-24(s0)
	call	MmioRead8
	mv	a5,a0
	ld	a2,-40(s0)
	ld	a1,-32(s0)
	mv	a0,a5
	call	BitFieldRead8
	mv	a5,a0
	.loc 1 1272 1
	mv	a0,a5
	ld	ra,40(sp)
	.cfi_restore 1
	ld	s0,32(sp)
	.cfi_restore 8
	.cfi_def_cfa 2, 48
	addi	sp,sp,48
	.cfi_def_cfa_offset 0
	jr	ra
	.cfi_endproc
.LFE35:
	.size	MmioBitFieldRead8, .-MmioBitFieldRead8
	.section	.text.MmioBitFieldWrite8,"ax",@progbits
	.align	1
	.globl	MmioBitFieldWrite8
	.type	MmioBitFieldWrite8, @function
MmioBitFieldWrite8:
.LFB36:
	.loc 1 1305 1
	.cfi_startproc
	addi	sp,sp,-48
	.cfi_def_cfa_offset 48
	sd	ra,40(sp)
	sd	s0,32(sp)
	.cfi_offset 1, -8
	.cfi_offset 8, -16
	addi	s0,sp,48
	.cfi_def_cfa 8, 0
	sd	a0,-24(s0)
	sd	a1,-32(s0)
	sd	a2,-40(s0)
	mv	a5,a3
	sb	a5,-41(s0)
	.loc 1 1306 10
	ld	a0,-24(s0)
	call	MmioRead8
	mv	a5,a0
	mv	a4,a5
	lbu	a5,-41(s0)
	mv	a3,a5
	ld	a2,-40(s0)
	ld	a1,-32(s0)
	mv	a0,a4
	call	BitFieldWrite8
	mv	a5,a0
	mv	a1,a5
	ld	a0,-24(s0)
	call	MmioWrite8
	mv	a5,a0
	.loc 1 1310 1
	mv	a0,a5
	ld	ra,40(sp)
	.cfi_restore 1
	ld	s0,32(sp)
	.cfi_restore 8
	.cfi_def_cfa 2, 48
	addi	sp,sp,48
	.cfi_def_cfa_offset 0
	jr	ra
	.cfi_endproc
.LFE36:
	.size	MmioBitFieldWrite8, .-MmioBitFieldWrite8
	.section	.text.MmioBitFieldOr8,"ax",@progbits
	.align	1
	.globl	MmioBitFieldOr8
	.type	MmioBitFieldOr8, @function
MmioBitFieldOr8:
.LFB37:
	.loc 1 1347 1
	.cfi_startproc
	addi	sp,sp,-48
	.cfi_def_cfa_offset 48
	sd	ra,40(sp)
	sd	s0,32(sp)
	.cfi_offset 1, -8
	.cfi_offset 8, -16
	addi	s0,sp,48
	.cfi_def_cfa 8, 0
	sd	a0,-24(s0)
	sd	a1,-32(s0)
	sd	a2,-40(s0)
	mv	a5,a3
	sb	a5,-41(s0)
	.loc 1 1348 10
	ld	a0,-24(s0)
	call	MmioRead8
	mv	a5,a0
	mv	a4,a5
	lbu	a5,-41(s0)
	mv	a3,a5
	ld	a2,-40(s0)
	ld	a1,-32(s0)
	mv	a0,a4
	call	BitFieldOr8
	mv	a5,a0
	mv	a1,a5
	ld	a0,-24(s0)
	call	MmioWrite8
	mv	a5,a0
	.loc 1 1352 1
	mv	a0,a5
	ld	ra,40(sp)
	.cfi_restore 1
	ld	s0,32(sp)
	.cfi_restore 8
	.cfi_def_cfa 2, 48
	addi	sp,sp,48
	.cfi_def_cfa_offset 0
	jr	ra
	.cfi_endproc
.LFE37:
	.size	MmioBitFieldOr8, .-MmioBitFieldOr8
	.section	.text.MmioBitFieldAnd8,"ax",@progbits
	.align	1
	.globl	MmioBitFieldAnd8
	.type	MmioBitFieldAnd8, @function
MmioBitFieldAnd8:
.LFB38:
	.loc 1 1389 1
	.cfi_startproc
	addi	sp,sp,-48
	.cfi_def_cfa_offset 48
	sd	ra,40(sp)
	sd	s0,32(sp)
	.cfi_offset 1, -8
	.cfi_offset 8, -16
	addi	s0,sp,48
	.cfi_def_cfa 8, 0
	sd	a0,-24(s0)
	sd	a1,-32(s0)
	sd	a2,-40(s0)
	mv	a5,a3
	sb	a5,-41(s0)
	.loc 1 1390 10
	ld	a0,-24(s0)
	call	MmioRead8
	mv	a5,a0
	mv	a4,a5
	lbu	a5,-41(s0)
	mv	a3,a5
	ld	a2,-40(s0)
	ld	a1,-32(s0)
	mv	a0,a4
	call	BitFieldAnd8
	mv	a5,a0
	mv	a1,a5
	ld	a0,-24(s0)
	call	MmioWrite8
	mv	a5,a0
	.loc 1 1394 1
	mv	a0,a5
	ld	ra,40(sp)
	.cfi_restore 1
	ld	s0,32(sp)
	.cfi_restore 8
	.cfi_def_cfa 2, 48
	addi	sp,sp,48
	.cfi_def_cfa_offset 0
	jr	ra
	.cfi_endproc
.LFE38:
	.size	MmioBitFieldAnd8, .-MmioBitFieldAnd8
	.section	.text.MmioBitFieldAndThenOr8,"ax",@progbits
	.align	1
	.globl	MmioBitFieldAndThenOr8
	.type	MmioBitFieldAndThenOr8, @function
MmioBitFieldAndThenOr8:
.LFB39:
	.loc 1 1435 1
	.cfi_startproc
	addi	sp,sp,-48
	.cfi_def_cfa_offset 48
	sd	ra,40(sp)
	sd	s0,32(sp)
	.cfi_offset 1, -8
	.cfi_offset 8, -16
	addi	s0,sp,48
	.cfi_def_cfa 8, 0
	sd	a0,-24(s0)
	sd	a1,-32(s0)
	sd	a2,-40(s0)
	mv	a5,a3
	sb	a5,-41(s0)
	mv	a5,a4
	sb	a5,-42(s0)
	.loc 1 1436 10
	ld	a0,-24(s0)
	call	MmioRead8
	mv	a5,a0
	mv	a0,a5
	lbu	a4,-42(s0)
	lbu	a5,-41(s0)
	mv	a3,a5
	ld	a2,-40(s0)
	ld	a1,-32(s0)
	call	BitFieldAndThenOr8
	mv	a5,a0
	mv	a1,a5
	ld	a0,-24(s0)
	call	MmioWrite8
	mv	a5,a0
	.loc 1 1440 1
	mv	a0,a5
	ld	ra,40(sp)
	.cfi_restore 1
	ld	s0,32(sp)
	.cfi_restore 8
	.cfi_def_cfa 2, 48
	addi	sp,sp,48
	.cfi_def_cfa_offset 0
	jr	ra
	.cfi_endproc
.LFE39:
	.size	MmioBitFieldAndThenOr8, .-MmioBitFieldAndThenOr8
	.section	.text.MmioOr16,"ax",@progbits
	.align	1
	.globl	MmioOr16
	.type	MmioOr16, @function
MmioOr16:
.LFB40:
	.loc 1 1466 1
	.cfi_startproc
	addi	sp,sp,-32
	.cfi_def_cfa_offset 32
	sd	ra,24(sp)
	sd	s0,16(sp)
	.cfi_offset 1, -8
	.cfi_offset 8, -16
	addi	s0,sp,32
	.cfi_def_cfa 8, 0
	sd	a0,-24(s0)
	mv	a5,a1
	sh	a5,-26(s0)
	.loc 1 1467 42
	ld	a0,-24(s0)
	call	MmioRead16
	mv	a5,a0
	mv	a4,a5
	.loc 1 1467 10
	lhu	a5,-26(s0)
	or	a5,a4,a5
	slli	a5,a5,48
	srli	a5,a5,48
	mv	a1,a5
	ld	a0,-24(s0)
	call	MmioWrite16
	mv	a5,a0
	.loc 1 1468 1
	mv	a0,a5
	ld	ra,24(sp)
	.cfi_restore 1
	ld	s0,16(sp)
	.cfi_restore 8
	.cfi_def_cfa 2, 32
	addi	sp,sp,32
	.cfi_def_cfa_offset 0
	jr	ra
	.cfi_endproc
.LFE40:
	.size	MmioOr16, .-MmioOr16
	.section	.text.MmioAnd16,"ax",@progbits
	.align	1
	.globl	MmioAnd16
	.type	MmioAnd16, @function
MmioAnd16:
.LFB41:
	.loc 1 1494 1
	.cfi_startproc
	addi	sp,sp,-32
	.cfi_def_cfa_offset 32
	sd	ra,24(sp)
	sd	s0,16(sp)
	.cfi_offset 1, -8
	.cfi_offset 8, -16
	addi	s0,sp,32
	.cfi_def_cfa 8, 0
	sd	a0,-24(s0)
	mv	a5,a1
	sh	a5,-26(s0)
	.loc 1 1495 42
	ld	a0,-24(s0)
	call	MmioRead16
	mv	a5,a0
	mv	a4,a5
	.loc 1 1495 10
	lhu	a5,-26(s0)
	and	a5,a4,a5
	slli	a5,a5,48
	srli	a5,a5,48
	mv	a1,a5
	ld	a0,-24(s0)
	call	MmioWrite16
	mv	a5,a0
	.loc 1 1496 1
	mv	a0,a5
	ld	ra,24(sp)
	.cfi_restore 1
	ld	s0,16(sp)
	.cfi_restore 8
	.cfi_def_cfa 2, 32
	addi	sp,sp,32
	.cfi_def_cfa_offset 0
	jr	ra
	.cfi_endproc
.LFE41:
	.size	MmioAnd16, .-MmioAnd16
	.section	.text.MmioAndThenOr16,"ax",@progbits
	.align	1
	.globl	MmioAndThenOr16
	.type	MmioAndThenOr16, @function
MmioAndThenOr16:
.LFB42:
	.loc 1 1526 1
	.cfi_startproc
	addi	sp,sp,-32
	.cfi_def_cfa_offset 32
	sd	ra,24(sp)
	sd	s0,16(sp)
	.cfi_offset 1, -8
	.cfi_offset 8, -16
	addi	s0,sp,32
	.cfi_def_cfa 8, 0
	sd	a0,-24(s0)
	mv	a5,a1
	mv	a4,a2
	sh	a5,-26(s0)
	mv	a5,a4
	sh	a5,-28(s0)
	.loc 1 1527 43
	ld	a0,-24(s0)
	call	MmioRead16
	mv	a5,a0
	mv	a4,a5
	.loc 1 1527 10
	lhu	a5,-26(s0)
	and	a5,a4,a5
	slli	a4,a5,48
	srli	a4,a4,48
	lhu	a5,-28(s0)
	or	a5,a4,a5
	slli	a5,a5,48
	srli	a5,a5,48
	mv	a1,a5
	ld	a0,-24(s0)
	call	MmioWrite16
	mv	a5,a0
	.loc 1 1528 1
	mv	a0,a5
	ld	ra,24(sp)
	.cfi_restore 1
	ld	s0,16(sp)
	.cfi_restore 8
	.cfi_def_cfa 2, 32
	addi	sp,sp,32
	.cfi_def_cfa_offset 0
	jr	ra
	.cfi_endproc
.LFE42:
	.size	MmioAndThenOr16, .-MmioAndThenOr16
	.section	.text.MmioBitFieldRead16,"ax",@progbits
	.align	1
	.globl	MmioBitFieldRead16
	.type	MmioBitFieldRead16, @function
MmioBitFieldRead16:
.LFB43:
	.loc 1 1557 1
	.cfi_startproc
	addi	sp,sp,-48
	.cfi_def_cfa_offset 48
	sd	ra,40(sp)
	sd	s0,32(sp)
	.cfi_offset 1, -8
	.cfi_offset 8, -16
	addi	s0,sp,48
	.cfi_def_cfa 8, 0
	sd	a0,-24(s0)
	sd	a1,-32(s0)
	sd	a2,-40(s0)
	.loc 1 1558 10
	ld	a0,-24(s0)
	call	MmioRead16
	mv	a5,a0
	ld	a2,-40(s0)
	ld	a1,-32(s0)
	mv	a0,a5
	call	BitFieldRead16
	mv	a5,a0
	.loc 1 1559 1
	mv	a0,a5
	ld	ra,40(sp)
	.cfi_restore 1
	ld	s0,32(sp)
	.cfi_restore 8
	.cfi_def_cfa 2, 48
	addi	sp,sp,48
	.cfi_def_cfa_offset 0
	jr	ra
	.cfi_endproc
.LFE43:
	.size	MmioBitFieldRead16, .-MmioBitFieldRead16
	.section	.text.MmioBitFieldWrite16,"ax",@progbits
	.align	1
	.globl	MmioBitFieldWrite16
	.type	MmioBitFieldWrite16, @function
MmioBitFieldWrite16:
.LFB44:
	.loc 1 1592 1
	.cfi_startproc
	addi	sp,sp,-48
	.cfi_def_cfa_offset 48
	sd	ra,40(sp)
	sd	s0,32(sp)
	.cfi_offset 1, -8
	.cfi_offset 8, -16
	addi	s0,sp,48
	.cfi_def_cfa 8, 0
	sd	a0,-24(s0)
	sd	a1,-32(s0)
	sd	a2,-40(s0)
	mv	a5,a3
	sh	a5,-42(s0)
	.loc 1 1593 10
	ld	a0,-24(s0)
	call	MmioRead16
	mv	a5,a0
	mv	a4,a5
	lhu	a5,-42(s0)
	mv	a3,a5
	ld	a2,-40(s0)
	ld	a1,-32(s0)
	mv	a0,a4
	call	BitFieldWrite16
	mv	a5,a0
	mv	a1,a5
	ld	a0,-24(s0)
	call	MmioWrite16
	mv	a5,a0
	.loc 1 1597 1
	mv	a0,a5
	ld	ra,40(sp)
	.cfi_restore 1
	ld	s0,32(sp)
	.cfi_restore 8
	.cfi_def_cfa 2, 48
	addi	sp,sp,48
	.cfi_def_cfa_offset 0
	jr	ra
	.cfi_endproc
.LFE44:
	.size	MmioBitFieldWrite16, .-MmioBitFieldWrite16
	.section	.text.MmioBitFieldOr16,"ax",@progbits
	.align	1
	.globl	MmioBitFieldOr16
	.type	MmioBitFieldOr16, @function
MmioBitFieldOr16:
.LFB45:
	.loc 1 1634 1
	.cfi_startproc
	addi	sp,sp,-48
	.cfi_def_cfa_offset 48
	sd	ra,40(sp)
	sd	s0,32(sp)
	.cfi_offset 1, -8
	.cfi_offset 8, -16
	addi	s0,sp,48
	.cfi_def_cfa 8, 0
	sd	a0,-24(s0)
	sd	a1,-32(s0)
	sd	a2,-40(s0)
	mv	a5,a3
	sh	a5,-42(s0)
	.loc 1 1635 10
	ld	a0,-24(s0)
	call	MmioRead16
	mv	a5,a0
	mv	a4,a5
	lhu	a5,-42(s0)
	mv	a3,a5
	ld	a2,-40(s0)
	ld	a1,-32(s0)
	mv	a0,a4
	call	BitFieldOr16
	mv	a5,a0
	mv	a1,a5
	ld	a0,-24(s0)
	call	MmioWrite16
	mv	a5,a0
	.loc 1 1639 1
	mv	a0,a5
	ld	ra,40(sp)
	.cfi_restore 1
	ld	s0,32(sp)
	.cfi_restore 8
	.cfi_def_cfa 2, 48
	addi	sp,sp,48
	.cfi_def_cfa_offset 0
	jr	ra
	.cfi_endproc
.LFE45:
	.size	MmioBitFieldOr16, .-MmioBitFieldOr16
	.section	.text.MmioBitFieldAnd16,"ax",@progbits
	.align	1
	.globl	MmioBitFieldAnd16
	.type	MmioBitFieldAnd16, @function
MmioBitFieldAnd16:
.LFB46:
	.loc 1 1676 1
	.cfi_startproc
	addi	sp,sp,-48
	.cfi_def_cfa_offset 48
	sd	ra,40(sp)
	sd	s0,32(sp)
	.cfi_offset 1, -8
	.cfi_offset 8, -16
	addi	s0,sp,48
	.cfi_def_cfa 8, 0
	sd	a0,-24(s0)
	sd	a1,-32(s0)
	sd	a2,-40(s0)
	mv	a5,a3
	sh	a5,-42(s0)
	.loc 1 1677 10
	ld	a0,-24(s0)
	call	MmioRead16
	mv	a5,a0
	mv	a4,a5
	lhu	a5,-42(s0)
	mv	a3,a5
	ld	a2,-40(s0)
	ld	a1,-32(s0)
	mv	a0,a4
	call	BitFieldAnd16
	mv	a5,a0
	mv	a1,a5
	ld	a0,-24(s0)
	call	MmioWrite16
	mv	a5,a0
	.loc 1 1681 1
	mv	a0,a5
	ld	ra,40(sp)
	.cfi_restore 1
	ld	s0,32(sp)
	.cfi_restore 8
	.cfi_def_cfa 2, 48
	addi	sp,sp,48
	.cfi_def_cfa_offset 0
	jr	ra
	.cfi_endproc
.LFE46:
	.size	MmioBitFieldAnd16, .-MmioBitFieldAnd16
	.section	.text.MmioBitFieldAndThenOr16,"ax",@progbits
	.align	1
	.globl	MmioBitFieldAndThenOr16
	.type	MmioBitFieldAndThenOr16, @function
MmioBitFieldAndThenOr16:
.LFB47:
	.loc 1 1722 1
	.cfi_startproc
	addi	sp,sp,-48
	.cfi_def_cfa_offset 48
	sd	ra,40(sp)
	sd	s0,32(sp)
	.cfi_offset 1, -8
	.cfi_offset 8, -16
	addi	s0,sp,48
	.cfi_def_cfa 8, 0
	sd	a0,-24(s0)
	sd	a1,-32(s0)
	sd	a2,-40(s0)
	mv	a5,a3
	sh	a5,-42(s0)
	mv	a5,a4
	sh	a5,-44(s0)
	.loc 1 1723 10
	ld	a0,-24(s0)
	call	MmioRead16
	mv	a5,a0
	mv	a0,a5
	lhu	a4,-44(s0)
	lhu	a5,-42(s0)
	mv	a3,a5
	ld	a2,-40(s0)
	ld	a1,-32(s0)
	call	BitFieldAndThenOr16
	mv	a5,a0
	mv	a1,a5
	ld	a0,-24(s0)
	call	MmioWrite16
	mv	a5,a0
	.loc 1 1727 1
	mv	a0,a5
	ld	ra,40(sp)
	.cfi_restore 1
	ld	s0,32(sp)
	.cfi_restore 8
	.cfi_def_cfa 2, 48
	addi	sp,sp,48
	.cfi_def_cfa_offset 0
	jr	ra
	.cfi_endproc
.LFE47:
	.size	MmioBitFieldAndThenOr16, .-MmioBitFieldAndThenOr16
	.section	.text.MmioOr32,"ax",@progbits
	.align	1
	.globl	MmioOr32
	.type	MmioOr32, @function
MmioOr32:
.LFB48:
	.loc 1 1753 1
	.cfi_startproc
	addi	sp,sp,-32
	.cfi_def_cfa_offset 32
	sd	ra,24(sp)
	sd	s0,16(sp)
	.cfi_offset 1, -8
	.cfi_offset 8, -16
	addi	s0,sp,32
	.cfi_def_cfa 8, 0
	sd	a0,-24(s0)
	mv	a5,a1
	sw	a5,-28(s0)
	.loc 1 1754 32
	ld	a0,-24(s0)
	call	MmioRead32
	mv	a5,a0
	sext.w	a4,a5
	.loc 1 1754 10
	lw	a5,-28(s0)
	or	a5,a5,a4
	sext.w	a5,a5
	mv	a1,a5
	ld	a0,-24(s0)
	call	MmioWrite32
	mv	a5,a0
	sext.w	a5,a5
	.loc 1 1755 1
	mv	a0,a5
	ld	ra,24(sp)
	.cfi_restore 1
	ld	s0,16(sp)
	.cfi_restore 8
	.cfi_def_cfa 2, 32
	addi	sp,sp,32
	.cfi_def_cfa_offset 0
	jr	ra
	.cfi_endproc
.LFE48:
	.size	MmioOr32, .-MmioOr32
	.section	.text.MmioAnd32,"ax",@progbits
	.align	1
	.globl	MmioAnd32
	.type	MmioAnd32, @function
MmioAnd32:
.LFB49:
	.loc 1 1781 1
	.cfi_startproc
	addi	sp,sp,-32
	.cfi_def_cfa_offset 32
	sd	ra,24(sp)
	sd	s0,16(sp)
	.cfi_offset 1, -8
	.cfi_offset 8, -16
	addi	s0,sp,32
	.cfi_def_cfa 8, 0
	sd	a0,-24(s0)
	mv	a5,a1
	sw	a5,-28(s0)
	.loc 1 1782 32
	ld	a0,-24(s0)
	call	MmioRead32
	mv	a5,a0
	sext.w	a4,a5
	.loc 1 1782 10
	lw	a5,-28(s0)
	and	a5,a5,a4
	sext.w	a5,a5
	mv	a1,a5
	ld	a0,-24(s0)
	call	MmioWrite32
	mv	a5,a0
	sext.w	a5,a5
	.loc 1 1783 1
	mv	a0,a5
	ld	ra,24(sp)
	.cfi_restore 1
	ld	s0,16(sp)
	.cfi_restore 8
	.cfi_def_cfa 2, 32
	addi	sp,sp,32
	.cfi_def_cfa_offset 0
	jr	ra
	.cfi_endproc
.LFE49:
	.size	MmioAnd32, .-MmioAnd32
	.section	.text.MmioAndThenOr32,"ax",@progbits
	.align	1
	.globl	MmioAndThenOr32
	.type	MmioAndThenOr32, @function
MmioAndThenOr32:
.LFB50:
	.loc 1 1813 1
	.cfi_startproc
	addi	sp,sp,-32
	.cfi_def_cfa_offset 32
	sd	ra,24(sp)
	sd	s0,16(sp)
	.cfi_offset 1, -8
	.cfi_offset 8, -16
	addi	s0,sp,32
	.cfi_def_cfa 8, 0
	sd	a0,-24(s0)
	mv	a5,a1
	mv	a4,a2
	sw	a5,-28(s0)
	mv	a5,a4
	sw	a5,-32(s0)
	.loc 1 1814 33
	ld	a0,-24(s0)
	call	MmioRead32
	mv	a5,a0
	sext.w	a4,a5
	.loc 1 1814 54
	lw	a5,-28(s0)
	and	a5,a5,a4
	sext.w	a4,a5
	.loc 1 1814 10
	lw	a5,-32(s0)
	or	a5,a5,a4
	sext.w	a5,a5
	mv	a1,a5
	ld	a0,-24(s0)
	call	MmioWrite32
	mv	a5,a0
	sext.w	a5,a5
	.loc 1 1815 1
	mv	a0,a5
	ld	ra,24(sp)
	.cfi_restore 1
	ld	s0,16(sp)
	.cfi_restore 8
	.cfi_def_cfa 2, 32
	addi	sp,sp,32
	.cfi_def_cfa_offset 0
	jr	ra
	.cfi_endproc
.LFE50:
	.size	MmioAndThenOr32, .-MmioAndThenOr32
	.section	.text.MmioBitFieldRead32,"ax",@progbits
	.align	1
	.globl	MmioBitFieldRead32
	.type	MmioBitFieldRead32, @function
MmioBitFieldRead32:
.LFB51:
	.loc 1 1844 1
	.cfi_startproc
	addi	sp,sp,-48
	.cfi_def_cfa_offset 48
	sd	ra,40(sp)
	sd	s0,32(sp)
	.cfi_offset 1, -8
	.cfi_offset 8, -16
	addi	s0,sp,48
	.cfi_def_cfa 8, 0
	sd	a0,-24(s0)
	sd	a1,-32(s0)
	sd	a2,-40(s0)
	.loc 1 1845 10
	ld	a0,-24(s0)
	call	MmioRead32
	mv	a5,a0
	sext.w	a5,a5
	ld	a2,-40(s0)
	ld	a1,-32(s0)
	mv	a0,a5
	call	BitFieldRead32
	mv	a5,a0
	sext.w	a5,a5
	.loc 1 1846 1
	mv	a0,a5
	ld	ra,40(sp)
	.cfi_restore 1
	ld	s0,32(sp)
	.cfi_restore 8
	.cfi_def_cfa 2, 48
	addi	sp,sp,48
	.cfi_def_cfa_offset 0
	jr	ra
	.cfi_endproc
.LFE51:
	.size	MmioBitFieldRead32, .-MmioBitFieldRead32
	.section	.text.MmioBitFieldWrite32,"ax",@progbits
	.align	1
	.globl	MmioBitFieldWrite32
	.type	MmioBitFieldWrite32, @function
MmioBitFieldWrite32:
.LFB52:
	.loc 1 1879 1
	.cfi_startproc
	addi	sp,sp,-48
	.cfi_def_cfa_offset 48
	sd	ra,40(sp)
	sd	s0,32(sp)
	.cfi_offset 1, -8
	.cfi_offset 8, -16
	addi	s0,sp,48
	.cfi_def_cfa 8, 0
	sd	a0,-24(s0)
	sd	a1,-32(s0)
	sd	a2,-40(s0)
	mv	a5,a3
	sw	a5,-44(s0)
	.loc 1 1880 10
	ld	a0,-24(s0)
	call	MmioRead32
	mv	a5,a0
	sext.w	a5,a5
	lw	a4,-44(s0)
	mv	a3,a4
	ld	a2,-40(s0)
	ld	a1,-32(s0)
	mv	a0,a5
	call	BitFieldWrite32
	mv	a5,a0
	sext.w	a5,a5
	mv	a1,a5
	ld	a0,-24(s0)
	call	MmioWrite32
	mv	a5,a0
	sext.w	a5,a5
	.loc 1 1884 1
	mv	a0,a5
	ld	ra,40(sp)
	.cfi_restore 1
	ld	s0,32(sp)
	.cfi_restore 8
	.cfi_def_cfa 2, 48
	addi	sp,sp,48
	.cfi_def_cfa_offset 0
	jr	ra
	.cfi_endproc
.LFE52:
	.size	MmioBitFieldWrite32, .-MmioBitFieldWrite32
	.section	.text.MmioBitFieldOr32,"ax",@progbits
	.align	1
	.globl	MmioBitFieldOr32
	.type	MmioBitFieldOr32, @function
MmioBitFieldOr32:
.LFB53:
	.loc 1 1921 1
	.cfi_startproc
	addi	sp,sp,-48
	.cfi_def_cfa_offset 48
	sd	ra,40(sp)
	sd	s0,32(sp)
	.cfi_offset 1, -8
	.cfi_offset 8, -16
	addi	s0,sp,48
	.cfi_def_cfa 8, 0
	sd	a0,-24(s0)
	sd	a1,-32(s0)
	sd	a2,-40(s0)
	mv	a5,a3
	sw	a5,-44(s0)
	.loc 1 1922 10
	ld	a0,-24(s0)
	call	MmioRead32
	mv	a5,a0
	sext.w	a5,a5
	lw	a4,-44(s0)
	mv	a3,a4
	ld	a2,-40(s0)
	ld	a1,-32(s0)
	mv	a0,a5
	call	BitFieldOr32
	mv	a5,a0
	sext.w	a5,a5
	mv	a1,a5
	ld	a0,-24(s0)
	call	MmioWrite32
	mv	a5,a0
	sext.w	a5,a5
	.loc 1 1926 1
	mv	a0,a5
	ld	ra,40(sp)
	.cfi_restore 1
	ld	s0,32(sp)
	.cfi_restore 8
	.cfi_def_cfa 2, 48
	addi	sp,sp,48
	.cfi_def_cfa_offset 0
	jr	ra
	.cfi_endproc
.LFE53:
	.size	MmioBitFieldOr32, .-MmioBitFieldOr32
	.section	.text.MmioBitFieldAnd32,"ax",@progbits
	.align	1
	.globl	MmioBitFieldAnd32
	.type	MmioBitFieldAnd32, @function
MmioBitFieldAnd32:
.LFB54:
	.loc 1 1963 1
	.cfi_startproc
	addi	sp,sp,-48
	.cfi_def_cfa_offset 48
	sd	ra,40(sp)
	sd	s0,32(sp)
	.cfi_offset 1, -8
	.cfi_offset 8, -16
	addi	s0,sp,48
	.cfi_def_cfa 8, 0
	sd	a0,-24(s0)
	sd	a1,-32(s0)
	sd	a2,-40(s0)
	mv	a5,a3
	sw	a5,-44(s0)
	.loc 1 1964 10
	ld	a0,-24(s0)
	call	MmioRead32
	mv	a5,a0
	sext.w	a5,a5
	lw	a4,-44(s0)
	mv	a3,a4
	ld	a2,-40(s0)
	ld	a1,-32(s0)
	mv	a0,a5
	call	BitFieldAnd32
	mv	a5,a0
	sext.w	a5,a5
	mv	a1,a5
	ld	a0,-24(s0)
	call	MmioWrite32
	mv	a5,a0
	sext.w	a5,a5
	.loc 1 1968 1
	mv	a0,a5
	ld	ra,40(sp)
	.cfi_restore 1
	ld	s0,32(sp)
	.cfi_restore 8
	.cfi_def_cfa 2, 48
	addi	sp,sp,48
	.cfi_def_cfa_offset 0
	jr	ra
	.cfi_endproc
.LFE54:
	.size	MmioBitFieldAnd32, .-MmioBitFieldAnd32
	.section	.text.MmioBitFieldAndThenOr32,"ax",@progbits
	.align	1
	.globl	MmioBitFieldAndThenOr32
	.type	MmioBitFieldAndThenOr32, @function
MmioBitFieldAndThenOr32:
.LFB55:
	.loc 1 2009 1
	.cfi_startproc
	addi	sp,sp,-48
	.cfi_def_cfa_offset 48
	sd	ra,40(sp)
	sd	s0,32(sp)
	.cfi_offset 1, -8
	.cfi_offset 8, -16
	addi	s0,sp,48
	.cfi_def_cfa 8, 0
	sd	a0,-24(s0)
	sd	a1,-32(s0)
	sd	a2,-40(s0)
	mv	a5,a3
	sw	a5,-44(s0)
	mv	a5,a4
	sw	a5,-48(s0)
	.loc 1 2010 10
	ld	a0,-24(s0)
	call	MmioRead32
	mv	a5,a0
	sext.w	a5,a5
	lw	a4,-48(s0)
	lw	a3,-44(s0)
	ld	a2,-40(s0)
	ld	a1,-32(s0)
	mv	a0,a5
	call	BitFieldAndThenOr32
	mv	a5,a0
	sext.w	a5,a5
	mv	a1,a5
	ld	a0,-24(s0)
	call	MmioWrite32
	mv	a5,a0
	sext.w	a5,a5
	.loc 1 2014 1
	mv	a0,a5
	ld	ra,40(sp)
	.cfi_restore 1
	ld	s0,32(sp)
	.cfi_restore 8
	.cfi_def_cfa 2, 48
	addi	sp,sp,48
	.cfi_def_cfa_offset 0
	jr	ra
	.cfi_endproc
.LFE55:
	.size	MmioBitFieldAndThenOr32, .-MmioBitFieldAndThenOr32
	.section	.text.MmioOr64,"ax",@progbits
	.align	1
	.globl	MmioOr64
	.type	MmioOr64, @function
MmioOr64:
.LFB56:
	.loc 1 2040 1
	.cfi_startproc
	addi	sp,sp,-32
	.cfi_def_cfa_offset 32
	sd	ra,24(sp)
	sd	s0,16(sp)
	.cfi_offset 1, -8
	.cfi_offset 8, -16
	addi	s0,sp,32
	.cfi_def_cfa 8, 0
	sd	a0,-24(s0)
	sd	a1,-32(s0)
	.loc 1 2041 32
	ld	a0,-24(s0)
	call	MmioRead64
	mv	a4,a0
	.loc 1 2041 10
	ld	a5,-32(s0)
	or	a5,a4,a5
	mv	a1,a5
	ld	a0,-24(s0)
	call	MmioWrite64
	mv	a5,a0
	.loc 1 2042 1
	mv	a0,a5
	ld	ra,24(sp)
	.cfi_restore 1
	ld	s0,16(sp)
	.cfi_restore 8
	.cfi_def_cfa 2, 32
	addi	sp,sp,32
	.cfi_def_cfa_offset 0
	jr	ra
	.cfi_endproc
.LFE56:
	.size	MmioOr64, .-MmioOr64
	.section	.text.MmioAnd64,"ax",@progbits
	.align	1
	.globl	MmioAnd64
	.type	MmioAnd64, @function
MmioAnd64:
.LFB57:
	.loc 1 2068 1
	.cfi_startproc
	addi	sp,sp,-32
	.cfi_def_cfa_offset 32
	sd	ra,24(sp)
	sd	s0,16(sp)
	.cfi_offset 1, -8
	.cfi_offset 8, -16
	addi	s0,sp,32
	.cfi_def_cfa 8, 0
	sd	a0,-24(s0)
	sd	a1,-32(s0)
	.loc 1 2069 32
	ld	a0,-24(s0)
	call	MmioRead64
	mv	a4,a0
	.loc 1 2069 10
	ld	a5,-32(s0)
	and	a5,a4,a5
	mv	a1,a5
	ld	a0,-24(s0)
	call	MmioWrite64
	mv	a5,a0
	.loc 1 2070 1
	mv	a0,a5
	ld	ra,24(sp)
	.cfi_restore 1
	ld	s0,16(sp)
	.cfi_restore 8
	.cfi_def_cfa 2, 32
	addi	sp,sp,32
	.cfi_def_cfa_offset 0
	jr	ra
	.cfi_endproc
.LFE57:
	.size	MmioAnd64, .-MmioAnd64
	.section	.text.MmioAndThenOr64,"ax",@progbits
	.align	1
	.globl	MmioAndThenOr64
	.type	MmioAndThenOr64, @function
MmioAndThenOr64:
.LFB58:
	.loc 1 2100 1
	.cfi_startproc
	addi	sp,sp,-48
	.cfi_def_cfa_offset 48
	sd	ra,40(sp)
	sd	s0,32(sp)
	.cfi_offset 1, -8
	.cfi_offset 8, -16
	addi	s0,sp,48
	.cfi_def_cfa 8, 0
	sd	a0,-24(s0)
	sd	a1,-32(s0)
	sd	a2,-40(s0)
	.loc 1 2101 33
	ld	a0,-24(s0)
	call	MmioRead64
	mv	a4,a0
	.loc 1 2101 54
	ld	a5,-32(s0)
	and	a4,a4,a5
	.loc 1 2101 10
	ld	a5,-40(s0)
	or	a5,a4,a5
	mv	a1,a5
	ld	a0,-24(s0)
	call	MmioWrite64
	mv	a5,a0
	.loc 1 2102 1
	mv	a0,a5
	ld	ra,40(sp)
	.cfi_restore 1
	ld	s0,32(sp)
	.cfi_restore 8
	.cfi_def_cfa 2, 48
	addi	sp,sp,48
	.cfi_def_cfa_offset 0
	jr	ra
	.cfi_endproc
.LFE58:
	.size	MmioAndThenOr64, .-MmioAndThenOr64
	.section	.text.MmioBitFieldRead64,"ax",@progbits
	.align	1
	.globl	MmioBitFieldRead64
	.type	MmioBitFieldRead64, @function
MmioBitFieldRead64:
.LFB59:
	.loc 1 2131 1
	.cfi_startproc
	addi	sp,sp,-48
	.cfi_def_cfa_offset 48
	sd	ra,40(sp)
	sd	s0,32(sp)
	.cfi_offset 1, -8
	.cfi_offset 8, -16
	addi	s0,sp,48
	.cfi_def_cfa 8, 0
	sd	a0,-24(s0)
	sd	a1,-32(s0)
	sd	a2,-40(s0)
	.loc 1 2132 10
	ld	a0,-24(s0)
	call	MmioRead64
	mv	a5,a0
	ld	a2,-40(s0)
	ld	a1,-32(s0)
	mv	a0,a5
	call	BitFieldRead64
	mv	a5,a0
	.loc 1 2133 1
	mv	a0,a5
	ld	ra,40(sp)
	.cfi_restore 1
	ld	s0,32(sp)
	.cfi_restore 8
	.cfi_def_cfa 2, 48
	addi	sp,sp,48
	.cfi_def_cfa_offset 0
	jr	ra
	.cfi_endproc
.LFE59:
	.size	MmioBitFieldRead64, .-MmioBitFieldRead64
	.section	.text.MmioBitFieldWrite64,"ax",@progbits
	.align	1
	.globl	MmioBitFieldWrite64
	.type	MmioBitFieldWrite64, @function
MmioBitFieldWrite64:
.LFB60:
	.loc 1 2166 1
	.cfi_startproc
	addi	sp,sp,-48
	.cfi_def_cfa_offset 48
	sd	ra,40(sp)
	sd	s0,32(sp)
	.cfi_offset 1, -8
	.cfi_offset 8, -16
	addi	s0,sp,48
	.cfi_def_cfa 8, 0
	sd	a0,-24(s0)
	sd	a1,-32(s0)
	sd	a2,-40(s0)
	sd	a3,-48(s0)
	.loc 1 2167 10
	ld	a0,-24(s0)
	call	MmioRead64
	mv	a5,a0
	ld	a3,-48(s0)
	ld	a2,-40(s0)
	ld	a1,-32(s0)
	mv	a0,a5
	call	BitFieldWrite64
	mv	a5,a0
	mv	a1,a5
	ld	a0,-24(s0)
	call	MmioWrite64
	mv	a5,a0
	.loc 1 2171 1
	mv	a0,a5
	ld	ra,40(sp)
	.cfi_restore 1
	ld	s0,32(sp)
	.cfi_restore 8
	.cfi_def_cfa 2, 48
	addi	sp,sp,48
	.cfi_def_cfa_offset 0
	jr	ra
	.cfi_endproc
.LFE60:
	.size	MmioBitFieldWrite64, .-MmioBitFieldWrite64
	.section	.text.MmioBitFieldOr64,"ax",@progbits
	.align	1
	.globl	MmioBitFieldOr64
	.type	MmioBitFieldOr64, @function
MmioBitFieldOr64:
.LFB61:
	.loc 1 2208 1
	.cfi_startproc
	addi	sp,sp,-48
	.cfi_def_cfa_offset 48
	sd	ra,40(sp)
	sd	s0,32(sp)
	.cfi_offset 1, -8
	.cfi_offset 8, -16
	addi	s0,sp,48
	.cfi_def_cfa 8, 0
	sd	a0,-24(s0)
	sd	a1,-32(s0)
	sd	a2,-40(s0)
	sd	a3,-48(s0)
	.loc 1 2209 10
	ld	a0,-24(s0)
	call	MmioRead64
	mv	a5,a0
	ld	a3,-48(s0)
	ld	a2,-40(s0)
	ld	a1,-32(s0)
	mv	a0,a5
	call	BitFieldOr64
	mv	a5,a0
	mv	a1,a5
	ld	a0,-24(s0)
	call	MmioWrite64
	mv	a5,a0
	.loc 1 2213 1
	mv	a0,a5
	ld	ra,40(sp)
	.cfi_restore 1
	ld	s0,32(sp)
	.cfi_restore 8
	.cfi_def_cfa 2, 48
	addi	sp,sp,48
	.cfi_def_cfa_offset 0
	jr	ra
	.cfi_endproc
.LFE61:
	.size	MmioBitFieldOr64, .-MmioBitFieldOr64
	.section	.text.MmioBitFieldAnd64,"ax",@progbits
	.align	1
	.globl	MmioBitFieldAnd64
	.type	MmioBitFieldAnd64, @function
MmioBitFieldAnd64:
.LFB62:
	.loc 1 2250 1
	.cfi_startproc
	addi	sp,sp,-48
	.cfi_def_cfa_offset 48
	sd	ra,40(sp)
	sd	s0,32(sp)
	.cfi_offset 1, -8
	.cfi_offset 8, -16
	addi	s0,sp,48
	.cfi_def_cfa 8, 0
	sd	a0,-24(s0)
	sd	a1,-32(s0)
	sd	a2,-40(s0)
	sd	a3,-48(s0)
	.loc 1 2251 10
	ld	a0,-24(s0)
	call	MmioRead64
	mv	a5,a0
	ld	a3,-48(s0)
	ld	a2,-40(s0)
	ld	a1,-32(s0)
	mv	a0,a5
	call	BitFieldAnd64
	mv	a5,a0
	mv	a1,a5
	ld	a0,-24(s0)
	call	MmioWrite64
	mv	a5,a0
	.loc 1 2255 1
	mv	a0,a5
	ld	ra,40(sp)
	.cfi_restore 1
	ld	s0,32(sp)
	.cfi_restore 8
	.cfi_def_cfa 2, 48
	addi	sp,sp,48
	.cfi_def_cfa_offset 0
	jr	ra
	.cfi_endproc
.LFE62:
	.size	MmioBitFieldAnd64, .-MmioBitFieldAnd64
	.section	.text.MmioBitFieldAndThenOr64,"ax",@progbits
	.align	1
	.globl	MmioBitFieldAndThenOr64
	.type	MmioBitFieldAndThenOr64, @function
MmioBitFieldAndThenOr64:
.LFB63:
	.loc 1 2296 1
	.cfi_startproc
	addi	sp,sp,-64
	.cfi_def_cfa_offset 64
	sd	ra,56(sp)
	sd	s0,48(sp)
	.cfi_offset 1, -8
	.cfi_offset 8, -16
	addi	s0,sp,64
	.cfi_def_cfa 8, 0
	sd	a0,-24(s0)
	sd	a1,-32(s0)
	sd	a2,-40(s0)
	sd	a3,-48(s0)
	sd	a4,-56(s0)
	.loc 1 2297 10
	ld	a0,-24(s0)
	call	MmioRead64
	mv	a5,a0
	ld	a4,-56(s0)
	ld	a3,-48(s0)
	ld	a2,-40(s0)
	ld	a1,-32(s0)
	mv	a0,a5
	call	BitFieldAndThenOr64
	mv	a5,a0
	mv	a1,a5
	ld	a0,-24(s0)
	call	MmioWrite64
	mv	a5,a0
	.loc 1 2301 1
	mv	a0,a5
	ld	ra,56(sp)
	.cfi_restore 1
	ld	s0,48(sp)
	.cfi_restore 8
	.cfi_def_cfa 2, 64
	addi	sp,sp,64
	.cfi_def_cfa_offset 0
	jr	ra
	.cfi_endproc
.LFE63:
	.size	MmioBitFieldAndThenOr64, .-MmioBitFieldAndThenOr64
	.text
.Letext0:
	.file 2 "/home/xephyr/Documents/edk2/MdePkg/Include/RiscV64/ProcessorBind.h"
	.file 3 "/home/xephyr/Documents/edk2/MdePkg/Include/Base.h"
	.file 4 "/home/xephyr/Documents/edk2/MdePkg/Include/Uefi/UefiBaseType.h"
	.file 5 "/home/xephyr/Documents/edk2/MdePkg/Include/Uefi/UefiMultiPhase.h"
	.file 6 "/home/xephyr/Documents/edk2/MdePkg/Include/Guid/WinCertificate.h"
	.file 7 "/home/xephyr/Documents/edk2/MdePkg/Include/Guid/PcAnsi.h"
	.file 8 "/home/xephyr/Documents/edk2/MdePkg/Include/Protocol/DevicePath.h"
	.file 9 "/home/xephyr/Documents/edk2/MdePkg/Include/Protocol/SimpleTextIn.h"
	.file 10 "/home/xephyr/Documents/edk2/MdePkg/Include/Protocol/SimpleTextInEx.h"
	.file 11 "/home/xephyr/Documents/edk2/MdePkg/Include/Protocol/SimpleTextOut.h"
	.file 12 "/home/xephyr/Documents/edk2/MdePkg/Include/Uefi/UefiSpec.h"
	.file 13 "/home/xephyr/Documents/edk2/MdePkg/Include/Guid/HiiFormMapMethodGuid.h"
	.file 14 "/home/xephyr/Documents/edk2/MdePkg/Include/Protocol/DebugSupport.h"
	.file 15 "/home/xephyr/Documents/edk2/Build/Mde/RELEASE_GCC5/RISCV64/MdePkg/Library/DxeIoLibCpuIo2/DxeIoLibCpuIo2/DEBUG/AutoGen.h"
	.file 16 "/home/xephyr/Documents/edk2/MdePkg/Include/Library/UefiBootServicesTableLib.h"