	.file	"BaseSerialPortLibNull.c"
	.option nopic
	.option norelax
	.attribute arch, "rv64i2p0_m2p0_a2p0_f2p0_d2p0_c2p0"
	.attribute unaligned_access, 0
	.attribute stack_align, 16
	.text
.Ltext0:
	.cfi_sections	.debug_frame
	.section	.text.SerialPortInitialize,"ax",@progbits
	.align	1
	.globl	SerialPortInitialize
	.type	SerialPortInitialize, @function
SerialPortInitialize:
.LFB0:
	.file 1 "/home/xephyr/Documents/edk2/MdePkg/Library/BaseSerialPortLibNull/BaseSerialPortLibNull.c"
	.loc 1 29 1
	.cfi_startproc
	addi	sp,sp,-16
	.cfi_def_cfa_offset 16
	sd	s0,8(sp)
	.cfi_offset 8, -8
	addi	s0,sp,16
	.cfi_def_cfa 8, 0
	.loc 1 30 10
	li	a5,0
	.loc 1 31 1
	mv	a0,a5
	ld	s0,8(sp)
	.cfi_restore 8
	.cfi_def_cfa 2, 16
	addi	sp,sp,16
	.cfi_def_cfa_offset 0
	jr	ra
	.cfi_endproc
.LFE0:
	.size	SerialPortInitialize, .-SerialPortInitialize
	.section	.text.SerialPortWrite,"ax",@progbits
	.align	1
	.globl	SerialPortWrite
	.type	SerialPortWrite, @function
SerialPortWrite:
.LFB1:
	.loc 1 56 1
	.cfi_startproc
	addi	sp,sp,-32
	.cfi_def_cfa_offset 32
	sd	s0,24(sp)
	.cfi_offset 8, -8
	addi	s0,sp,32
	.cfi_def_cfa 8, 0
	sd	a0,-24(s0)
	sd	a1,-32(s0)
	.loc 1 57 10
	li	a5,0
	.loc 1 58 1
	mv	a0,a5
	ld	s0,24(sp)
	.cfi_restore 8
	.cfi_def_cfa 2, 32
	addi	sp,sp,32
	.cfi_def_cfa_offset 0
	jr	ra
	.cfi_endproc
.LFE1:
	.size	SerialPortWrite, .-SerialPortWrite
	.section	.text.SerialPortRead,"ax",@progbits
	.align	1
	.globl	SerialPortRead
	.type	SerialPortRead, @function
SerialPortRead:
.LFB2:
	.loc 1 83 1
	.cfi_startproc
	addi	sp,sp,-32
	.cfi_def_cfa_offset 32
	sd	s0,24(sp)
	.cfi_offset 8, -8
	addi	s0,sp,32
	.cfi_def_cfa 8, 0
	sd	a0,-24(s0)
	sd	a1,-32(s0)
	.loc 1 84 10
	li	a5,0
	.loc 1 85 1
	mv	a0,a5
	ld	s0,24(sp)
	.cfi_restore 8
	.cfi_def_cfa 2, 32
	addi	sp,sp,32
	.cfi_def_cfa_offset 0
	jr	ra
	.cfi_endproc
.LFE2:
	.size	SerialPortRead, .-SerialPortRead
	.section	.text.SerialPortPoll,"ax",@progbits
	.align	1
	.globl	SerialPortPoll
	.type	SerialPortPoll, @function
SerialPortPoll:
.LFB3:
	.loc 1 103 1
	.cfi_startproc
	addi	sp,sp,-16
	.cfi_def_cfa_offset 16
	sd	s0,8(sp)
	.cfi_offset 8, -8
	addi	s0,sp,16
	.cfi_def_cfa 8, 0
	.loc 1 104 10
	li	a5,0
	.loc 1 105 1
	mv	a0,a5
	ld	s0,8(sp)
	.cfi_restore 8
	.cfi_def_cfa 2, 16
	addi	sp,sp,16
	.cfi_def_cfa_offset 0
	jr	ra
	.cfi_endproc
.LFE3:
	.size	SerialPortPoll, .-SerialPortPoll
	.section	.text.SerialPortSetControl,"ax",@progbits
	.align	1
	.globl	SerialPortSetControl
	.type	SerialPortSetControl, @function
SerialPortSetControl:
.LFB4:
	.loc 1 122 1
	.cfi_startproc
	addi	sp,sp,-32
	.cfi_def_cfa_offset 32
	sd	s0,24(sp)
	.cfi_offset 8, -8
	addi	s0,sp,32
	.cfi_def_cfa 8, 0
	mv	a5,a0
	sw	a5,-20(s0)
	.loc 1 123 10
	li	a5,-1
	slli	a5,a5,63
	addi	a5,a5,3
	.loc 1 124 1
	mv	a0,a5
	ld	s0,24(sp)
	.cfi_restore 8
	.cfi_def_cfa 2, 32
	addi	sp,sp,32
	.cfi_def_cfa_offset 0
	jr	ra
	.cfi_endproc
.LFE4:
	.size	SerialPortSetControl, .-SerialPortSetControl
	.section	.text.SerialPortGetControl,"ax",@progbits
	.align	1
	.globl	SerialPortGetControl
	.type	SerialPortGetControl, @function
SerialPortGetControl:
.LFB5:
	.loc 1 141 1
	.cfi_startproc
	addi	sp,sp,-32
	.cfi_def_cfa_offset 32
	sd	s0,24(sp)
	.cfi_offset 8, -8
	addi	s0,sp,32
	.cfi_def_cfa 8, 0
	sd	a0,-24(s0)
	.loc 1 142 10
	li	a5,-1
	slli	a5,a5,63
	addi	a5,a5,3
	.loc 1 143 1
	mv	a0,a5
	ld	s0,24(sp)
	.cfi_restore 8
	.cfi_def_cfa 2, 32
	addi	sp,sp,32
	.cfi_def_cfa_offset 0
	jr	ra
	.cfi_endproc
.LFE5:
	.size	SerialPortGetControl, .-SerialPortGetControl
	.section	.text.SerialPortSetAttributes,"ax",@progbits
	.align	1
	.globl	SerialPortSetAttributes
	.type	SerialPortSetAttributes, @function
SerialPortSetAttributes:
.LFB6:
	.loc 1 188 1
	.cfi_startproc
	addi	sp,sp,-64
	.cfi_def_cfa_offset 64
	sd	s0,56(sp)
	.cfi_offset 8, -8
	addi	s0,sp,64
	.cfi_def_cfa 8, 0
	sd	a0,-24(s0)
	sd	a1,-32(s0)
	sd	a2,-40(s0)
	sd	a3,-48(s0)
	sd	a4,-56(s0)
	sd	a5,-64(s0)
	.loc 1 189 10
	li	a5,-1
	slli	a5,a5,63
	addi	a5,a5,3
	.loc 1 190 1
	mv	a0,a5
	ld	s0,56(sp)
	.cfi_restore 8
	.cfi_def_cfa 2, 64
	addi	sp,sp,64
	.cfi_def_cfa_offset 0
	jr	ra
	.cfi_endproc
.LFE6:
	.size	SerialPortSetAttributes, .-SerialPortSetAttributes
	.text
.Letext0:
	.file 2 "/home/xephyr/Documents/edk2/MdePkg/Include/RiscV64/ProcessorBind.h"
	.file 3 "/home/xephyr/Documents/edk2/MdePkg/Include/Base.h"
	.file 4 "/home/xephyr/Documents/edk2/Build/Mde/DEBUG_GCC5/RISCV64/MdePkg/Library/BaseSerialPortLibNull/BaseSerialPortLibNull/DEBUG/AutoGen.h"
	.file 5 "/home/xephyr/Documents/edk2/MdePkg/Include/Uefi/UefiBaseType.h"
	.file 6 "/home/xephyr/Documents/edk2/MdePkg/Include/Protocol/SerialIo.h"