	.file	"DevicePathFromText.c"
	.option nopic
	.option norelax
	.attribute arch, "rv64i2p0_m2p0_a2p0_f2p0_d2p0_c2p0"
	.attribute unaligned_access, 0
	.attribute stack_align, 16
	.text
.Ltext0:
	.cfi_sections	.debug_frame
	.section	.text.UefiDevicePathLibStrDuplicate,"ax",@progbits
	.align	1
	.globl	UefiDevicePathLibStrDuplicate
	.type	UefiDevicePathLibStrDuplicate, @function
UefiDevicePathLibStrDuplicate:
.LFB0:
	.file 1 "/home/xephyr/Documents/edk2/MdePkg/Library/UefiDevicePathLib/DevicePathFromText.c"
	.loc 1 24 1
	.cfi_startproc
	addi	sp,sp,-32
	.cfi_def_cfa_offset 32
	sd	ra,24(sp)
	sd	s0,16(sp)
	.cfi_offset 1, -8
	.cfi_offset 8, -16
	addi	s0,sp,32
	.cfi_def_cfa 8, 0
	sd	a0,-24(s0)
	.loc 1 25 10
	ld	a0,-24(s0)
	call	StrSize
	mv	a5,a0
	ld	a1,-24(s0)
	mv	a0,a5
	call	AllocateCopyPool
	mv	a5,a0
	.loc 1 26 1
	mv	a0,a5
	ld	ra,24(sp)
	.cfi_restore 1
	ld	s0,16(sp)
	.cfi_restore 8
	.cfi_def_cfa 2, 32
	addi	sp,sp,32
	.cfi_def_cfa_offset 0
	jr	ra
	.cfi_endproc
.LFE0:
	.size	UefiDevicePathLibStrDuplicate, .-UefiDevicePathLibStrDuplicate
	.section	.text.GetParamByNodeName,"ax",@progbits
	.align	1
	.globl	GetParamByNodeName
	.type	GetParamByNodeName, @function
GetParamByNodeName:
.LFB1:
	.loc 1 44 1
	.cfi_startproc
	addi	sp,sp,-64
	.cfi_def_cfa_offset 64
	sd	ra,56(sp)
	sd	s0,48(sp)
	.cfi_offset 1, -8
	.cfi_offset 8, -16
	addi	s0,sp,64
	.cfi_def_cfa 8, 0
	sd	a0,-56(s0)
	sd	a1,-64(s0)
	.loc 1 53 20
	ld	a0,-64(s0)
	call	StrLen
	sd	a0,-40(s0)
	.loc 1 54 7
	ld	a2,-40(s0)
	ld	a1,-64(s0)
	ld	a0,-56(s0)
	call	StrnCmp
	mv	a5,a0
	.loc 1 54 6
	beq	a5,zero,.L4
	.loc 1 55 12
	li	a5,0
	j	.L5
.L4:
	.loc 1 58 18
	ld	a5,-40(s0)
	slli	a5,a5,1
	.loc 1 58 12
	ld	a4,-56(s0)
	add	a5,a4,a5
	sd	a5,-48(s0)
	.loc 1 59 10
	ld	a5,-48(s0)
	lhu	a5,0(a5)
	.loc 1 59 6
	sext.w	a4,a5
	li	a5,40
	beq	a4,a5,.L6
	.loc 1 60 12
	li	a5,0
	j	.L5
.L6:
	.loc 1 66 11
	ld	a5,-48(s0)
	addi	a5,a5,2
	sd	a5,-48(s0)
	.loc 1 67 19
	sd	zero,-32(s0)
	.loc 1 68 14
	ld	a5,-48(s0)
	sd	a5,-24(s0)
	.loc 1 69 9
	j	.L7
.L10:
	.loc 1 70 11
	ld	a5,-24(s0)
	lhu	a5,0(a5)
	.loc 1 70 8
	sext.w	a4,a5
	li	a5,41
	beq	a4,a5,.L13
	.loc 1 73 15
	ld	a5,-24(s0)
	addi	a5,a5,2
	sd	a5,-24(s0)
	.loc 1 74 20
	ld	a5,-32(s0)
	addi	a5,a5,1
	sd	a5,-32(s0)
.L7:
	.loc 1 69 13
	ld	a5,-24(s0)
	lhu	a5,0(a5)
	.loc 1 69 9
	bne	a5,zero,.L10
	j	.L9
.L13:
	.loc 1 71 7
	nop
.L9:
	.loc 1 76 9
	ld	a5,-24(s0)
	lhu	a5,0(a5)
	.loc 1 76 6
	bne	a5,zero,.L11
	.loc 1 80 12
	li	a5,0
	j	.L5
.L11:
	.loc 1 83 49
	ld	a5,-32(s0)
	addi	a5,a5,1
	.loc 1 83 14
	slli	a5,a5,1
	ld	a1,-48(s0)
	mv	a0,a5
	call	AllocateCopyPool
	sd	a0,-48(s0)
	.loc 1 84 6
	ld	a5,-48(s0)
	bne	a5,zero,.L12
	.loc 1 85 12
	li	a5,0
	j	.L5
.L12:
	.loc 1 90 11
	ld	a5,-32(s0)
	slli	a5,a5,1
	ld	a4,-48(s0)
	add	a5,a4,a5
	.loc 1 90 29
	sh	zero,0(a5)
	.loc 1 92 10
	ld	a5,-48(s0)
.L5:
	.loc 1 93 1
	mv	a0,a5
	ld	ra,56(sp)
	.cfi_restore 1
	ld	s0,48(sp)
	.cfi_restore 8
	.cfi_def_cfa 2, 64
	addi	sp,sp,64
	.cfi_def_cfa_offset 0
	jr	ra
	.cfi_endproc
.LFE1:
	.size	GetParamByNodeName, .-GetParamByNodeName
	.section	.text.SplitStr,"ax",@progbits
	.align	1
	.globl	SplitStr
	.type	SplitStr, @function
SplitStr:
.LFB2:
	.loc 1 112 1
	.cfi_startproc
	addi	sp,sp,-48
	.cfi_def_cfa_offset 48
	sd	s0,40(sp)
	.cfi_offset 8, -8
	addi	s0,sp,48
	.cfi_def_cfa 8, 0
	sd	a0,-40(s0)
	mv	a5,a1
	sh	a5,-42(s0)
	.loc 1 116 7
	ld	a5,-40(s0)
	ld	a5,0(a5)
	sd	a5,-24(s0)
	.loc 1 117 13
	ld	a5,-24(s0)
	sd	a5,-32(s0)
	.loc 1 119 9
	ld	a5,-24(s0)
	lhu	a5,0(a5)
	.loc 1 119 6
	bne	a5,zero,.L17
	.loc 1 120 12
	ld	a5,-32(s0)
	j	.L16
.L20:
	.loc 1 127 9
	ld	a5,-24(s0)
	lhu	a5,0(a5)
	.loc 1 127 8
	lhu	a4,-42(s0)
	sext.w	a4,a4
	sext.w	a5,a5
	beq	a4,a5,.L22
	.loc 1 130 8
	ld	a5,-24(s0)
	addi	a5,a5,2
	sd	a5,-24(s0)
.L17:
	.loc 1 126 13
	ld	a5,-24(s0)
	lhu	a5,0(a5)
	.loc 1 126 9
	bne	a5,zero,.L20
	j	.L19
.L22:
	.loc 1 128 7
	nop
.L19:
	.loc 1 133 7
	ld	a5,-24(s0)
	lhu	a5,0(a5)
	.loc 1 133 6
	lhu	a4,-42(s0)
	sext.w	a4,a4
	sext.w	a5,a5
	bne	a4,a5,.L21
	.loc 1 137 10
	ld	a5,-24(s0)
	sh	zero,0(a5)
	.loc 1 138 8
	ld	a5,-24(s0)
	addi	a5,a5,2
	sd	a5,-24(s0)
.L21:
	.loc 1 144 9
	ld	a5,-40(s0)
	ld	a4,-24(s0)
	sd	a4,0(a5)
	.loc 1 146 10
	ld	a5,-32(s0)
.L16:
	.loc 1 147 1
	mv	a0,a5
	ld	s0,40(sp)
	.cfi_restore 8
	.cfi_def_cfa 2, 48
	addi	sp,sp,48
	.cfi_def_cfa_offset 0
	jr	ra
	.cfi_endproc
.LFE2:
	.size	SplitStr, .-SplitStr
	.section	.text.GetNextParamStr,"ax",@progbits
	.align	1
	.globl	GetNextParamStr
	.type	GetNextParamStr, @function
GetNextParamStr:
.LFB3:
	.loc 1 161 1
	.cfi_startproc
	addi	sp,sp,-32
	.cfi_def_cfa_offset 32
	sd	ra,24(sp)
	sd	s0,16(sp)
	.cfi_offset 1, -8
	.cfi_offset 8, -16
	addi	s0,sp,32
	.cfi_def_cfa 8, 0
	sd	a0,-24(s0)
	.loc 1 165 10
	li	a1,44
	ld	a0,-24(s0)
	call	SplitStr
	mv	a5,a0
	.loc 1 166 1
	mv	a0,a5
	ld	ra,24(sp)
	.cfi_restore 1
	ld	s0,16(sp)
	.cfi_restore 8
	.cfi_def_cfa 2, 32
	addi	sp,sp,32
	.cfi_def_cfa_offset 0
	jr	ra
	.cfi_endproc
.LFE3:
	.size	GetNextParamStr, .-GetNextParamStr
	.section	.text.GetNextDeviceNodeStr,"ax",@progbits
	.align	1
	.globl	GetNextDeviceNodeStr
	.type	GetNextDeviceNodeStr, @function
GetNextDeviceNodeStr:
.LFB4:
	.loc 1 182 1
	.cfi_startproc
	addi	sp,sp,-64
	.cfi_def_cfa_offset 64
	sd	s0,56(sp)
	.cfi_offset 8, -8
	addi	s0,sp,64
	.cfi_def_cfa 8, 0
	sd	a0,-56(s0)
	sd	a1,-64(s0)
	.loc 1 187 7
	ld	a5,-56(s0)
	ld	a5,0(a5)
	sd	a5,-24(s0)
	.loc 1 188 9
	ld	a5,-24(s0)
	lhu	a5,0(a5)
	.loc 1 188 6
	bne	a5,zero,.L28
	.loc 1 189 12
	li	a5,0
	j	.L27
.L31:
	.loc 1 196 12
	ld	a5,-24(s0)
	lhu	a5,0(a5)
	.loc 1 196 8
	sext.w	a4,a5
	li	a5,47
	beq	a4,a5,.L29
	.loc 1 197 12 discriminator 1
	ld	a5,-24(s0)
	lhu	a5,0(a5)
	.loc 1 196 27 discriminator 1
	sext.w	a4,a5
	li	a5,44
	beq	a4,a5,.L29
	.loc 1 198 12
	ld	a5,-24(s0)
	lhu	a5,0(a5)
	.loc 1 197 27
	sext.w	a4,a5
	li	a5,40
	beq	a4,a5,.L29
	.loc 1 199 12
	ld	a5,-24(s0)
	lhu	a5,0(a5)
	.loc 1 198 27
	sext.w	a4,a5
	li	a5,41
	bne	a4,a5,.L42
.L29:
	.loc 1 202 8
	ld	a5,-24(s0)
	addi	a5,a5,2
	sd	a5,-24(s0)
.L28:
	.loc 1 195 13
	ld	a5,-24(s0)
	lhu	a5,0(a5)
	.loc 1 195 9
	bne	a5,zero,.L31
	j	.L30
.L42:
	.loc 1 200 7
	nop
.L30:
	.loc 1 205 13
	ld	a5,-24(s0)
	sd	a5,-40(s0)
	.loc 1 210 20
	sd	zero,-32(s0)
	.loc 1 211 9
	j	.L32
.L38:
	.loc 1 212 12
	ld	a5,-24(s0)
	lhu	a5,0(a5)
	.loc 1 212 8
	sext.w	a4,a5
	li	a5,44
	beq	a4,a5,.L33
	.loc 1 212 32 discriminator 2
	ld	a5,-24(s0)
	lhu	a5,0(a5)
	.loc 1 212 27 discriminator 2
	sext.w	a4,a5
	li	a5,47
	bne	a4,a5,.L34
.L33:
	.loc 1 212 48 discriminator 3
	ld	a5,-32(s0)
	beq	a5,zero,.L43
.L34:
	.loc 1 216 11
	ld	a5,-24(s0)
	lhu	a5,0(a5)
	.loc 1 216 8
	sext.w	a4,a5
	li	a5,40
	bne	a4,a5,.L36
	.loc 1 217 23
	ld	a5,-32(s0)
	addi	a5,a5,1
	sd	a5,-32(s0)
	j	.L37
.L36:
	.loc 1 218 18
	ld	a5,-24(s0)
	lhu	a5,0(a5)
	.loc 1 218 15
	sext.w	a4,a5
	li	a5,41
	bne	a4,a5,.L37
	.loc 1 219 23
	ld	a5,-32(s0)
	addi	a5,a5,-1
	sd	a5,-32(s0)
.L37:
	.loc 1 222 8
	ld	a5,-24(s0)
	addi	a5,a5,2
	sd	a5,-24(s0)
.L32:
	.loc 1 211 13
	ld	a5,-24(s0)
	lhu	a5,0(a5)
	.loc 1 211 9
	bne	a5,zero,.L38
	j	.L35
.L43:
	.loc 1 213 7
	nop
.L35:
	.loc 1 225 6
	ld	a5,-32(s0)
	beq	a5,zero,.L39
	.loc 1 229 12
	li	a5,0
	j	.L27
.L39:
	.loc 1 232 9
	ld	a5,-24(s0)
	lhu	a5,0(a5)
	.loc 1 232 6
	sext.w	a4,a5
	li	a5,44
	bne	a4,a5,.L40
	.loc 1 233 20
	ld	a5,-64(s0)
	li	a4,1
	sb	a4,0(a5)
	.loc 1 234 10
	ld	a5,-24(s0)
	sh	zero,0(a5)
	.loc 1 235 8
	ld	a5,-24(s0)
	addi	a5,a5,2
	sd	a5,-24(s0)
	j	.L41
.L40:
	.loc 1 237 20
	ld	a5,-64(s0)
	sb	zero,0(a5)
	.loc 1 238 12
	ld	a5,-24(s0)
	lhu	a5,0(a5)
	.loc 1 238 8
	beq	a5,zero,.L41
	.loc 1 239 12
	ld	a5,-24(s0)
	sh	zero,0(a5)
	.loc 1 240 10
	ld	a5,-24(s0)
	addi	a5,a5,2
	sd	a5,-24(s0)
.L41:
	.loc 1 244 15
	ld	a5,-56(s0)
	ld	a4,-24(s0)
	sd	a4,0(a5)
	.loc 1 246 10
	ld	a5,-40(s0)
.L27:
	.loc 1 247 1
	mv	a0,a5
	ld	s0,56(sp)
	.cfi_restore 8
	.cfi_def_cfa 2, 64
	addi	sp,sp,64
	.cfi_def_cfa_offset 0
	jr	ra
	.cfi_endproc
.LFE4:
	.size	GetNextDeviceNodeStr, .-GetNextDeviceNodeStr
	.section	.text.IsHexStr,"ax",@progbits
	.align	1
	.globl	IsHexStr
	.type	IsHexStr, @function
IsHexStr:
.LFB5:
	.loc 1 263 1
	.cfi_startproc
	addi	sp,sp,-32
	.cfi_def_cfa_offset 32
	sd	s0,24(sp)
	.cfi_offset 8, -8
	addi	s0,sp,32
	.cfi_def_cfa 8, 0
	sd	a0,-24(s0)
	.loc 1 267 9
	j	.L45
.L47:
	.loc 1 268 9
	ld	a5,-24(s0)
	addi	a5,a5,2
	sd	a5,-24(s0)
.L45:
	.loc 1 267 11
	ld	a5,-24(s0)
	lhu	a5,0(a5)
	.loc 1 267 9
	beq	a5,zero,.L48
	.loc 1 267 25 discriminator 1
	ld	a5,-24(s0)
	lhu	a5,0(a5)
	.loc 1 267 22 discriminator 1
	sext.w	a4,a5
	li	a5,32
	beq	a4,a5,.L47
	.loc 1 273 9
	j	.L48
.L50:
	.loc 1 274 9
	ld	a5,-24(s0)
	addi	a5,a5,2
	sd	a5,-24(s0)
.L48:
	.loc 1 273 11
	ld	a5,-24(s0)
	lhu	a5,0(a5)
	.loc 1 273 9
	beq	a5,zero,.L49
	.loc 1 273 25 discriminator 1
	ld	a5,-24(s0)
	lhu	a5,0(a5)
	.loc 1 273 22 discriminator 1
	sext.w	a4,a5
	li	a5,48
	beq	a4,a5,.L50
.L49:
	.loc 1 277 21
	ld	a5,-24(s0)
	lhu	a5,0(a5)
	.loc 1 277 34
	sext.w	a4,a5
	li	a5,120
	beq	a4,a5,.L51
	.loc 1 277 37 discriminator 2
	ld	a5,-24(s0)
	lhu	a5,0(a5)
	.loc 1 277 34 discriminator 2
	sext.w	a4,a5
	li	a5,88
	bne	a4,a5,.L52
.L51:
	.loc 1 277 34 is_stmt 0 discriminator 3
	li	a5,1
	j	.L53
.L52:
	.loc 1 277 34 discriminator 4
	li	a5,0
.L53:
	.loc 1 277 10 is_stmt 1 discriminator 6
	andi	a5,a5,0xff
	.loc 1 278 1 discriminator 6
	mv	a0,a5
	ld	s0,24(sp)
	.cfi_restore 8
	.cfi_def_cfa 2, 32
	addi	sp,sp,32
	.cfi_def_cfa_offset 0
	jr	ra
	.cfi_endproc
.LFE5:
	.size	IsHexStr, .-IsHexStr
	.section	.text.Strtoi,"ax",@progbits
	.align	1
	.globl	Strtoi
	.type	Strtoi, @function
Strtoi:
.LFB6:
	.loc 1 293 1
	.cfi_startproc
	addi	sp,sp,-32
	.cfi_def_cfa_offset 32
	sd	ra,24(sp)
	sd	s0,16(sp)
	.cfi_offset 1, -8
	.cfi_offset 8, -16
	addi	s0,sp,32
	.cfi_def_cfa 8, 0
	sd	a0,-24(s0)
	.loc 1 294 7
	ld	a0,-24(s0)
	call	IsHexStr
	mv	a5,a0
	.loc 1 294 6
	beq	a5,zero,.L56
	.loc 1 295 12
	ld	a0,-24(s0)
	call	StrHexToUintn
	mv	a5,a0
	j	.L57
.L56:
	.loc 1 297 12
	ld	a0,-24(s0)
	call	StrDecimalToUintn
	mv	a5,a0
.L57:
	.loc 1 299 1
	mv	a0,a5
	ld	ra,24(sp)
	.cfi_restore 1
	ld	s0,16(sp)
	.cfi_restore 8
	.cfi_def_cfa 2, 32
	addi	sp,sp,32
	.cfi_def_cfa_offset 0
	jr	ra
	.cfi_endproc
.LFE6:
	.size	Strtoi, .-Strtoi
	.section	.text.Strtoi64,"ax",@progbits
	.align	1
	.globl	Strtoi64
	.type	Strtoi64, @function
Strtoi64:
.LFB7:
	.loc 1 314 1
	.cfi_startproc
	addi	sp,sp,-32
	.cfi_def_cfa_offset 32
	sd	ra,24(sp)
	sd	s0,16(sp)
	.cfi_offset 1, -8
	.cfi_offset 8, -16
	addi	s0,sp,32
	.cfi_def_cfa 8, 0
	sd	a0,-24(s0)
	sd	a1,-32(s0)
	.loc 1 315 7
	ld	a0,-24(s0)
	call	IsHexStr
	mv	a5,a0
	.loc 1 315 6
	beq	a5,zero,.L59
	.loc 1 316 13
	ld	a0,-24(s0)
	call	StrHexToUint64
	mv	a4,a0
	.loc 1 316 11
	ld	a5,-32(s0)
	sd	a4,0(a5)
	.loc 1 320 1
	j	.L61
.L59:
	.loc 1 318 13
	ld	a0,-24(s0)
	call	StrDecimalToUint64
	mv	a4,a0
	.loc 1 318 11
	ld	a5,-32(s0)
	sd	a4,0(a5)
.L61:
	.loc 1 320 1
	nop
	ld	ra,24(sp)
	.cfi_restore 1
	ld	s0,16(sp)
	.cfi_restore 8
	.cfi_def_cfa 2, 32
	addi	sp,sp,32
	.cfi_def_cfa_offset 0
	jr	ra
	.cfi_endproc
.LFE7:
	.size	Strtoi64, .-Strtoi64
	.section	.text.StrToAscii,"ax",@progbits
	.align	1
	.globl	StrToAscii
	.type	StrToAscii, @function
StrToAscii:
.LFB8:
	.loc 1 335 1
	.cfi_startproc
	addi	sp,sp,-48
	.cfi_def_cfa_offset 48
	sd	s0,40(sp)
	.cfi_offset 8, -8
	addi	s0,sp,48
	.cfi_def_cfa 8, 0
	sd	a0,-40(s0)
	sd	a1,-48(s0)
	.loc 1 338 8
	ld	a5,-48(s0)
	ld	a5,0(a5)
	sd	a5,-24(s0)
	.loc 1 339 9
	j	.L63
.L64:
	.loc 1 340 30
	ld	a5,-40(s0)
	addi	a4,a5,2
	sd	a4,-40(s0)
	.loc 1 340 25
	lhu	a3,0(a5)
	.loc 1 340 11
	ld	a5,-24(s0)
	addi	a4,a5,1
	sd	a4,-24(s0)
	.loc 1 340 17
	andi	a4,a3,0xff
	.loc 1 340 15
	sb	a4,0(a5)
.L63:
	.loc 1 339 13
	ld	a5,-40(s0)
	lhu	a5,0(a5)
	.loc 1 339 9
	bne	a5,zero,.L64
	.loc 1 342 9
	ld	a5,-24(s0)
	sb	zero,0(a5)
	.loc 1 347 20
	ld	a5,-24(s0)
	addi	a4,a5,1
	.loc 1 347 13
	ld	a5,-48(s0)
	sd	a4,0(a5)
	.loc 1 348 1
	nop
	ld	s0,40(sp)
	.cfi_restore 8
	.cfi_def_cfa 2, 48
	addi	sp,sp,48
	.cfi_def_cfa_offset 0
	jr	ra
	.cfi_endproc
.LFE8:
	.size	StrToAscii, .-StrToAscii
	.section	.text.DevPathFromTextGenericPath,"ax",@progbits
	.align	1
	.globl	DevPathFromTextGenericPath
	.type	DevPathFromTextGenericPath, @function
DevPathFromTextGenericPath:
.LFB9:
	.loc 1 363 1
	.cfi_startproc
	addi	sp,sp,-64
	.cfi_def_cfa_offset 64
	sd	ra,56(sp)
	sd	s0,48(sp)
	.cfi_offset 1, -8
	.cfi_offset 8, -16
	addi	s0,sp,64
	.cfi_def_cfa 8, 0
	mv	a5,a0
	sd	a1,-64(s0)
	sb	a5,-49(s0)
	.loc 1 369 16
	addi	a5,s0,-64
	mv	a0,a5
	call	GetNextParamStr
	sd	a0,-32(s0)
	.loc 1 370 13
	addi	a5,s0,-64
	mv	a0,a5
	call	GetNextParamStr
	sd	a0,-40(s0)
	.loc 1 372 6
	ld	a5,-40(s0)
	bne	a5,zero,.L66
	.loc 1 373 16
	sd	zero,-24(s0)
	j	.L67
.L66:
	.loc 1 375 18
	ld	a0,-40(s0)
	call	StrLen
	mv	a5,a0
	.loc 1 375 16
	srli	a5,a5,1
	sd	a5,-24(s0)
.L67:
	.loc 1 379 20
	ld	a0,-32(s0)
	call	Strtoi
	mv	a5,a0
	.loc 1 377 10
	andi	a4,a5,0xff
	ld	a5,-24(s0)
	slli	a5,a5,48
	srli	a5,a5,48
	addiw	a5,a5,4
	slli	a3,a5,48
	srli	a3,a3,48
	lbu	a5,-49(s0)
	mv	a2,a3
	mv	a1,a4
	mv	a0,a5
	call	CreateDeviceNode
	sd	a0,-48(s0)
	.loc 1 383 3
	ld	a5,-24(s0)
	slli	a4,a5,1
	.loc 1 383 59
	ld	a5,-48(s0)
	addi	a5,a5,4
	.loc 1 383 3
	ld	a3,-24(s0)
	mv	a2,a5
	mv	a1,a4
	ld	a0,-40(s0)
	call	StrHexToBytes
	.loc 1 384 10
	ld	a5,-48(s0)
	.loc 1 385 1
	mv	a0,a5
	ld	ra,56(sp)
	.cfi_restore 1
	ld	s0,48(sp)
	.cfi_restore 8
	.cfi_def_cfa 2, 64
	addi	sp,sp,64
	.cfi_def_cfa_offset 0
	jr	ra
	.cfi_endproc
.LFE9:
	.size	DevPathFromTextGenericPath, .-DevPathFromTextGenericPath
	.section	.text.DevPathFromTextPath,"ax",@progbits
	.align	1
	.globl	DevPathFromTextPath
	.type	DevPathFromTextPath, @function
DevPathFromTextPath:
.LFB10:
	.loc 1 399 1
	.cfi_startproc
	addi	sp,sp,-48
	.cfi_def_cfa_offset 48
	sd	ra,40(sp)
	sd	s0,32(sp)
	.cfi_offset 1, -8
	.cfi_offset 8, -16
	addi	s0,sp,48
	.cfi_def_cfa 8, 0
	sd	a0,-40(s0)
	.loc 1 402 13
	addi	a5,s0,-40
	mv	a0,a5
	call	GetNextParamStr
	sd	a0,-24(s0)
	.loc 1 404 46
	ld	a0,-24(s0)
	call	Strtoi
	mv	a5,a0
	.loc 1 404 10
	andi	a5,a5,0xff
	ld	a4,-40(s0)
	mv	a1,a4
	mv	a0,a5
	call	DevPathFromTextGenericPath
	mv	a5,a0
	.loc 1 405 1
	mv	a0,a5
	ld	ra,40(sp)
	.cfi_restore 1
	ld	s0,32(sp)
	.cfi_restore 8
	.cfi_def_cfa 2, 48
	addi	sp,sp,48
	.cfi_def_cfa_offset 0
	jr	ra
	.cfi_endproc
.LFE10:
	.size	DevPathFromTextPath, .-DevPathFromTextPath
	.section	.text.DevPathFromTextHardwarePath,"ax",@progbits
	.align	1
	.globl	DevPathFromTextHardwarePath
	.type	DevPathFromTextHardwarePath, @function
DevPathFromTextHardwarePath:
.LFB11:
	.loc 1 419 1
	.cfi_startproc
	addi	sp,sp,-32
	.cfi_def_cfa_offset 32
	sd	ra,24(sp)
	sd	s0,16(sp)
	.cfi_offset 1, -8
	.cfi_offset 8, -16
	addi	s0,sp,32
	.cfi_def_cfa 8, 0
	sd	a0,-24(s0)
	.loc 1 420 10
	ld	a1,-24(s0)
	li	a0,1
	call	DevPathFromTextGenericPath
	mv	a5,a0
	.loc 1 421 1
	mv	a0,a5
	ld	ra,24(sp)
	.cfi_restore 1
	ld	s0,16(sp)
	.cfi_restore 8
	.cfi_def_cfa 2, 32
	addi	sp,sp,32
	.cfi_def_cfa_offset 0
	jr	ra
	.cfi_endproc
.LFE11:
	.size	DevPathFromTextHardwarePath, .-DevPathFromTextHardwarePath
	.section	.text.DevPathFromTextPci,"ax",@progbits
	.align	1
	.globl	DevPathFromTextPci
	.type	DevPathFromTextPci, @function
DevPathFromTextPci:
.LFB12:
	.loc 1 435 1
	.cfi_startproc
	addi	sp,sp,-64
	.cfi_def_cfa_offset 64
	sd	ra,56(sp)
	sd	s0,48(sp)
	.cfi_offset 1, -8
	.cfi_offset 8, -16
	addi	s0,sp,64
	.cfi_def_cfa 8, 0
	sd	a0,-56(s0)
	.loc 1 440 15
	addi	a5,s0,-56
	mv	a0,a5
	call	GetNextParamStr
	sd	a0,-24(s0)
	.loc 1 441 17
	addi	a5,s0,-56
	mv	a0,a5
	call	GetNextParamStr
	sd	a0,-32(s0)
	.loc 1 442 29
	li	a2,6
	li	a1,1
	li	a0,1
	call	CreateDeviceNode
	sd	a0,-40(s0)
	.loc 1 448 27
	ld	a0,-32(s0)
	call	Strtoi
	mv	a5,a0
	.loc 1 448 19
	andi	a4,a5,0xff
	.loc 1 448 17
	ld	a5,-40(s0)
	sb	a4,4(a5)
	.loc 1 449 25
	ld	a0,-24(s0)
	call	Strtoi
	mv	a5,a0
	.loc 1 449 17
	andi	a4,a5,0xff
	.loc 1 449 15
	ld	a5,-40(s0)
	sb	a4,5(a5)
	.loc 1 451 10
	ld	a5,-40(s0)
	.loc 1 452 1
	mv	a0,a5
	ld	ra,56(sp)
	.cfi_restore 1
	ld	s0,48(sp)
	.cfi_restore 8
	.cfi_def_cfa 2, 64
	addi	sp,sp,64
	.cfi_def_cfa_offset 0
	jr	ra
	.cfi_endproc
.LFE12:
	.size	DevPathFromTextPci, .-DevPathFromTextPci
	.section	.text.DevPathFromTextPcCard,"ax",@progbits
	.align	1
	.globl	DevPathFromTextPcCard
	.type	DevPathFromTextPcCard, @function
DevPathFromTextPcCard:
.LFB13:
	.loc 1 466 1
	.cfi_startproc
	addi	sp,sp,-48
	.cfi_def_cfa_offset 48
	sd	ra,40(sp)
	sd	s0,32(sp)
	.cfi_offset 1, -8
	.cfi_offset 8, -16
	addi	s0,sp,48
	.cfi_def_cfa 8, 0
	sd	a0,-40(s0)
	.loc 1 470 23
	addi	a5,s0,-40
	mv	a0,a5
	call	GetNextParamStr
	sd	a0,-24(s0)
	.loc 1 471 35
	li	a2,5
	li	a1,2
	li	a0,1
	call	CreateDeviceNode
	sd	a0,-32(s0)
	.loc 1 477 36
	ld	a0,-24(s0)
	call	Strtoi
	mv	a5,a0
	.loc 1 477 28
	andi	a4,a5,0xff
	.loc 1 477 26
	ld	a5,-32(s0)
	sb	a4,4(a5)
	.loc 1 479 10
	ld	a5,-32(s0)
	.loc 1 480 1
	mv	a0,a5
	ld	ra,40(sp)
	.cfi_restore 1
	ld	s0,32(sp)
	.cfi_restore 8
	.cfi_def_cfa 2, 48
	addi	sp,sp,48
	.cfi_def_cfa_offset 0
	jr	ra
	.cfi_endproc
.LFE13:
	.size	DevPathFromTextPcCard, .-DevPathFromTextPcCard
	.section	.text.DevPathFromTextMemoryMapped,"ax",@progbits
	.align	1
	.globl	DevPathFromTextMemoryMapped
	.type	DevPathFromTextMemoryMapped, @function
DevPathFromTextMemoryMapped:
.LFB14:
	.loc 1 494 1
	.cfi_startproc
	addi	sp,sp,-64
	.cfi_def_cfa_offset 64
	sd	ra,56(sp)
	sd	s0,48(sp)
	.cfi_offset 1, -8
	.cfi_offset 8, -16
	addi	s0,sp,64
	.cfi_def_cfa 8, 0
	sd	a0,-56(s0)
	.loc 1 500 19
	addi	a5,s0,-56
	mv	a0,a5
	call	GetNextParamStr
	sd	a0,-24(s0)
	.loc 1 501 24
	addi	a5,s0,-56
	mv	a0,a5
	call	GetNextParamStr
	sd	a0,-32(s0)
	.loc 1 502 22
	addi	a5,s0,-56
	mv	a0,a5
	call	GetNextParamStr
	sd	a0,-40(s0)
	.loc 1 503 35
	li	a2,24
	li	a1,3
	li	a0,1
	call	CreateDeviceNode
	sd	a0,-48(s0)
	.loc 1 509 33
	ld	a0,-24(s0)
	call	Strtoi
	mv	a5,a0
	.loc 1 509 24
	sext.w	a4,a5
	.loc 1 509 22
	ld	a5,-48(s0)
	slli	a3,a4,32
	srli	a3,a3,32
	andi	a1,a3,255
	lbu	a3,4(a5)
	andi	a3,a3,0
	mv	a2,a3
	mv	a3,a1
	or	a3,a2,a3
	sb	a3,4(a5)
	srliw	a3,a4,8
	slli	a3,a3,32
	srli	a3,a3,32
	andi	a1,a3,255
	lbu	a3,5(a5)
	andi	a3,a3,0
	mv	a2,a3
	mv	a3,a1
	or	a3,a2,a3
	sb	a3,5(a5)
	srliw	a3,a4,16
	slli	a3,a3,32
	srli	a3,a3,32
	andi	a1,a3,255
	lbu	a3,6(a5)
	andi	a3,a3,0
	mv	a2,a3
	mv	a3,a1
	or	a3,a2,a3
	sb	a3,6(a5)
	srliw	a4,a4,24
	slli	a2,a4,32
	srli	a2,a2,32
	lbu	a4,7(a5)
	andi	a4,a4,0
	mv	a3,a4
	mv	a4,a2
	or	a4,a3,a4
	sb	a4,7(a5)
	.loc 1 510 33
	ld	a5,-48(s0)
	addi	a5,a5,8
	.loc 1 510 3
	mv	a1,a5
	ld	a0,-32(s0)
	call	Strtoi64
	.loc 1 511 31
	ld	a5,-48(s0)
	addi	a5,a5,16
	.loc 1 511 3
	mv	a1,a5
	ld	a0,-40(s0)
	call	Strtoi64
	.loc 1 513 10
	ld	a5,-48(s0)
	.loc 1 514 1
	mv	a0,a5
	ld	ra,56(sp)
	.cfi_restore 1
	ld	s0,48(sp)
	.cfi_restore 8
	.cfi_def_cfa 2, 64
	addi	sp,sp,64
	.cfi_def_cfa_offset 0
	jr	ra
	.cfi_endproc
.LFE14:
	.size	DevPathFromTextMemoryMapped, .-DevPathFromTextMemoryMapped
	.section	.text.ConvertFromTextVendor,"ax",@progbits
	.align	1
	.globl	ConvertFromTextVendor
	.type	ConvertFromTextVendor, @function
ConvertFromTextVendor:
.LFB15:
	.loc 1 533 1
	.cfi_startproc
	addi	sp,sp,-64
	.cfi_def_cfa_offset 64
	sd	ra,56(sp)
	sd	s0,48(sp)
	.cfi_offset 1, -8
	.cfi_offset 8, -16
	addi	s0,sp,64
	.cfi_def_cfa 8, 0
	sd	a0,-56(s0)
	mv	a5,a1
	mv	a4,a2
	sb	a5,-57(s0)
	mv	a5,a4
	sb	a5,-58(s0)
	.loc 1 539 13
	addi	a5,s0,-56
	mv	a0,a5
	call	GetNextParamStr
	sd	a0,-24(s0)
	.loc 1 541 13
	addi	a5,s0,-56
	mv	a0,a5
	call	GetNextParamStr
	sd	a0,-32(s0)
	.loc 1 542 12
	ld	a0,-32(s0)
	call	StrLen
	sd	a0,-40(s0)
	.loc 1 546 20
	ld	a5,-40(s0)
	addi	a5,a5,1
	.loc 1 546 10
	srli	a5,a5,1
	sd	a5,-40(s0)
	.loc 1 548 35
	ld	a5,-40(s0)
	slli	a5,a5,48
	srli	a5,a5,48
	addiw	a5,a5,20
	slli	a3,a5,48
	srli	a3,a3,48
	lbu	a4,-58(s0)
	lbu	a5,-57(s0)
	mv	a2,a3
	mv	a1,a4
	mv	a0,a5
	call	CreateDeviceNode
	sd	a0,-48(s0)
	.loc 1 554 23
	ld	a5,-48(s0)
	addi	a5,a5,4
	.loc 1 554 3
	mv	a1,a5
	ld	a0,-24(s0)
	call	StrToGuid
	.loc 1 555 3
	ld	a5,-40(s0)
	slli	a4,a5,1
	.loc 1 555 57
	ld	a5,-48(s0)
	addi	a5,a5,20
	.loc 1 555 3
	ld	a3,-40(s0)
	mv	a2,a5
	mv	a1,a4
	ld	a0,-32(s0)
	call	StrHexToBytes
	.loc 1 557 10
	ld	a5,-48(s0)
	.loc 1 558 1
	mv	a0,a5
	ld	ra,56(sp)
	.cfi_restore 1
	ld	s0,48(sp)
	.cfi_restore 8
	.cfi_def_cfa 2, 64
	addi	sp,sp,64
	.cfi_def_cfa_offset 0
	jr	ra
	.cfi_endproc
.LFE15:
	.size	ConvertFromTextVendor, .-ConvertFromTextVendor
	.section	.text.DevPathFromTextVenHw,"ax",@progbits
	.align	1
	.globl	DevPathFromTextVenHw
	.type	DevPathFromTextVenHw, @function
DevPathFromTextVenHw:
.LFB16:
	.loc 1 572 1
	.cfi_startproc
	addi	sp,sp,-32
	.cfi_def_cfa_offset 32
	sd	ra,24(sp)
	sd	s0,16(sp)
	.cfi_offset 1, -8
	.cfi_offset 8, -16
	addi	s0,sp,32
	.cfi_def_cfa 8, 0
	sd	a0,-24(s0)
	.loc 1 573 10
	li	a2,4
	li	a1,1
	ld	a0,-24(s0)
	call	ConvertFromTextVendor
	mv	a5,a0
	.loc 1 578 1
	mv	a0,a5
	ld	ra,24(sp)
	.cfi_restore 1
	ld	s0,16(sp)
	.cfi_restore 8
	.cfi_def_cfa 2, 32
	addi	sp,sp,32
	.cfi_def_cfa_offset 0
	jr	ra
	.cfi_endproc
.LFE16:
	.size	DevPathFromTextVenHw, .-DevPathFromTextVenHw
	.section	.text.DevPathFromTextCtrl,"ax",@progbits
	.align	1
	.globl	DevPathFromTextCtrl
	.type	DevPathFromTextCtrl, @function
DevPathFromTextCtrl:
.LFB17:
	.loc 1 592 1
	.cfi_startproc
	addi	sp,sp,-48
	.cfi_def_cfa_offset 48
	sd	ra,40(sp)
	sd	s0,32(sp)
	.cfi_offset 1, -8
	.cfi_offset 8, -16
	addi	s0,sp,48
	.cfi_def_cfa 8, 0
	sd	a0,-40(s0)
	.loc 1 596 19
	addi	a5,s0,-40
	mv	a0,a5
	call	GetNextParamStr
	sd	a0,-24(s0)
	.loc 1 597 43
	li	a2,8
	li	a1,5
	li	a0,1
	call	CreateDeviceNode
	sd	a0,-32(s0)
	.loc 1 602 43
	ld	a0,-24(s0)
	call	Strtoi
	mv	a5,a0
	.loc 1 602 34
	sext.w	a4,a5
	.loc 1 602 32
	ld	a5,-32(s0)
	slli	a3,a4,32
	srli	a3,a3,32
	andi	a1,a3,255
	lbu	a3,4(a5)
	andi	a3,a3,0
	mv	a2,a3
	mv	a3,a1
	or	a3,a2,a3
	sb	a3,4(a5)
	srliw	a3,a4,8
	slli	a3,a3,32
	srli	a3,a3,32
	andi	a1,a3,255
	lbu	a3,5(a5)
	andi	a3,a3,0
	mv	a2,a3
	mv	a3,a1
	or	a3,a2,a3
	sb	a3,5(a5)
	srliw	a3,a4,16
	slli	a3,a3,32
	srli	a3,a3,32
	andi	a1,a3,255
	lbu	a3,6(a5)
	andi	a3,a3,0
	mv	a2,a3
	mv	a3,a1
	or	a3,a2,a3
	sb	a3,6(a5)
	srliw	a4,a4,24
	slli	a2,a4,32
	srli	a2,a2,32
	lbu	a4,7(a5)
	andi	a4,a4,0
	mv	a3,a4
	mv	a4,a2
	or	a4,a3,a4
	sb	a4,7(a5)
	.loc 1 604 10
	ld	a5,-32(s0)
	.loc 1 605 1
	mv	a0,a5
	ld	ra,40(sp)
	.cfi_restore 1
	ld	s0,32(sp)
	.cfi_restore 8
	.cfi_def_cfa 2, 48
	addi	sp,sp,48
	.cfi_def_cfa_offset 0
	jr	ra
	.cfi_endproc
.LFE17:
	.size	DevPathFromTextCtrl, .-DevPathFromTextCtrl
	.section	.text.DevPathFromTextBmc,"ax",@progbits
	.align	1
	.globl	DevPathFromTextBmc
	.type	DevPathFromTextBmc, @function
DevPathFromTextBmc:
.LFB18:
	.loc 1 619 1
	.cfi_startproc
	addi	sp,sp,-80
	.cfi_def_cfa_offset 80
	sd	ra,72(sp)
	sd	s0,64(sp)
	sd	s1,56(sp)
	.cfi_offset 1, -8
	.cfi_offset 8, -16
	.cfi_offset 9, -24
	addi	s0,sp,80
	.cfi_def_cfa 8, 0
	sd	a0,-72(s0)
	.loc 1 624 22
	addi	a5,s0,-72
	mv	a0,a5
	call	GetNextParamStr
	sd	a0,-40(s0)
	.loc 1 625 20
	addi	a5,s0,-72
	mv	a0,a5
	call	GetNextParamStr
	sd	a0,-48(s0)
	.loc 1 626 31
	li	a2,13
	li	a1,6
	li	a0,1
	call	CreateDeviceNode
	sd	a0,-56(s0)
	.loc 1 632 34
	ld	a0,-40(s0)
	call	Strtoi
	mv	a5,a0
	.loc 1 632 26
	andi	a4,a5,0xff
	.loc 1 632 24
	ld	a5,-56(s0)
	sb	a4,4(a5)
	.loc 1 634 17
	ld	a5,-56(s0)
	addi	s1,a5,5
	.loc 1 633 3
	ld	a0,-48(s0)
	call	StrHexToUint64
	mv	a5,a0
	mv	a1,a5
	mv	a0,s1
	call	WriteUnaligned64
	.loc 1 638 10
	ld	a5,-56(s0)
	.loc 1 639 1
	mv	a0,a5
	ld	ra,72(sp)
	.cfi_restore 1
	ld	s0,64(sp)
	.cfi_restore 8
	.cfi_def_cfa 2, 80
	ld	s1,56(sp)
	.cfi_restore 9
	addi	sp,sp,80
	.cfi_def_cfa_offset 0
	jr	ra
	.cfi_endproc
.LFE18:
	.size	DevPathFromTextBmc, .-DevPathFromTextBmc
	.section	.text.DevPathFromTextAcpiPath,"ax",@progbits
	.align	1
	.globl	DevPathFromTextAcpiPath
	.type	DevPathFromTextAcpiPath, @function
DevPathFromTextAcpiPath:
.LFB19:
	.loc 1 653 1
	.cfi_startproc
	addi	sp,sp,-32
	.cfi_def_cfa_offset 32
	sd	ra,24(sp)
	sd	s0,16(sp)
	.cfi_offset 1, -8
	.cfi_offset 8, -16
	addi	s0,sp,32
	.cfi_def_cfa 8, 0
	sd	a0,-24(s0)
	.loc 1 654 10
	ld	a1,-24(s0)
	li	a0,2
	call	DevPathFromTextGenericPath
	mv	a5,a0
	.loc 1 655 1
	mv	a0,a5
	ld	ra,24(sp)
	.cfi_restore 1
	ld	s0,16(sp)
	.cfi_restore 8
	.cfi_def_cfa 2, 32
	addi	sp,sp,32
	.cfi_def_cfa_offset 0
	jr	ra
	.cfi_endproc
.LFE19:
	.size	DevPathFromTextAcpiPath, .-DevPathFromTextAcpiPath
	.section	.text.EisaIdFromText,"ax",@progbits
	.align	1
	.globl	EisaIdFromText
	.type	EisaIdFromText, @function
EisaIdFromText:
.LFB20:
	.loc 1 668 1
	.cfi_startproc
	addi	sp,sp,-48
	.cfi_def_cfa_offset 48
	sd	ra,40(sp)
	sd	s0,32(sp)
	sd	s1,24(sp)
	.cfi_offset 1, -8
	.cfi_offset 8, -16
	.cfi_offset 9, -24
	addi	s0,sp,48
	.cfi_def_cfa 8, 0
	sd	a0,-40(s0)
	.loc 1 669 17
	ld	a5,-40(s0)
	lhu	a5,0(a5)
	.loc 1 669 32
	sext.w	a5,a5
	.loc 1 669 40
	slliw	a5,a5,10
	sext.w	a4,a5
	li	a5,32768
	addi	a5,a5,-1024
	and	a5,a4,a5
	sext.w	a4,a5
	.loc 1 670 17
	ld	a5,-40(s0)
	addi	a5,a5,2
	lhu	a5,0(a5)
	.loc 1 670 32
	sext.w	a5,a5
	.loc 1 670 40
	slliw	a5,a5,5
	sext.w	a5,a5
	andi	a5,a5,992
	sext.w	a5,a5
	.loc 1 670 8
	or	a5,a4,a5
	sext.w	a4,a5
	.loc 1 671 17
	ld	a5,-40(s0)
	addi	a5,a5,4
	lhu	a5,0(a5)
	.loc 1 671 32
	sext.w	a5,a5
	.loc 1 671 40
	andi	a5,a5,31
	sext.w	a5,a5
	.loc 1 671 8
	addw	a5,a4,a5
	sext.w	a5,a5
	sext.w	s1,a5
	.loc 1 672 35
	ld	a5,-40(s0)
	addi	a5,a5,6
	.loc 1 672 20
	mv	a0,a5
	call	StrHexToUintn
	mv	a5,a0
	.loc 1 672 10
	sext.w	a5,a5
	slliw	a5,a5,16
	sext.w	a5,a5
	.loc 1 672 8
	addw	a5,s1,a5
	sext.w	a5,a5
	.loc 1 674 1
	mv	a0,a5
	ld	ra,40(sp)
	.cfi_restore 1
	ld	s0,32(sp)
	.cfi_restore 8
	.cfi_def_cfa 2, 48
	ld	s1,24(sp)
	.cfi_restore 9
	addi	sp,sp,48
	.cfi_def_cfa_offset 0
	jr	ra
	.cfi_endproc
.LFE20:
	.size	EisaIdFromText, .-EisaIdFromText
	.section	.text.DevPathFromTextAcpi,"ax",@progbits
	.align	1
	.globl	DevPathFromTextAcpi
	.type	DevPathFromTextAcpi, @function
DevPathFromTextAcpi:
.LFB21:
	.loc 1 688 1
	.cfi_startproc
	addi	sp,sp,-64
	.cfi_def_cfa_offset 64
	sd	ra,56(sp)
	sd	s0,48(sp)
	.cfi_offset 1, -8
	.cfi_offset 8, -16
	addi	s0,sp,64
	.cfi_def_cfa 8, 0
	sd	a0,-56(s0)
	.loc 1 693 12
	addi	a5,s0,-56
	mv	a0,a5
	call	GetNextParamStr
	sd	a0,-24(s0)
	.loc 1 694 12
	addi	a5,s0,-56
	mv	a0,a5
	call	GetNextParamStr
	sd	a0,-32(s0)
	.loc 1 695 35
	li	a2,12
	li	a1,1
	li	a0,2
	call	CreateDeviceNode
	sd	a0,-40(s0)
	.loc 1 701 15
	ld	a0,-24(s0)
	call	EisaIdFromText
	mv	a5,a0
	sext.w	a4,a5
	.loc 1 701 13
	ld	a5,-40(s0)
	slli	a3,a4,32
	srli	a3,a3,32
	andi	a1,a3,255
	lbu	a3,4(a5)
	andi	a3,a3,0
	mv	a2,a3
	mv	a3,a1
	or	a3,a2,a3
	sb	a3,4(a5)
	srliw	a3,a4,8
	slli	a3,a3,32
	srli	a3,a3,32
	andi	a1,a3,255
	lbu	a3,5(a5)
	andi	a3,a3,0
	mv	a2,a3
	mv	a3,a1
	or	a3,a2,a3
	sb	a3,5(a5)
	srliw	a3,a4,16
	slli	a3,a3,32
	srli	a3,a3,32
	andi	a1,a3,255
	lbu	a3,6(a5)
	andi	a3,a3,0
	mv	a2,a3
	mv	a3,a1
	or	a3,a2,a3
	sb	a3,6(a5)
	srliw	a4,a4,24
	slli	a2,a4,32
	srli	a2,a2,32
	lbu	a4,7(a5)
	andi	a4,a4,0
	mv	a3,a4
	mv	a4,a2
	or	a4,a3,a4
	sb	a4,7(a5)
	.loc 1 702 24
	ld	a0,-32(s0)
	call	Strtoi
	mv	a5,a0
	.loc 1 702 15
	sext.w	a4,a5
	.loc 1 702 13
	ld	a5,-40(s0)
	slli	a3,a4,32
	srli	a3,a3,32
	andi	a1,a3,255
	lbu	a3,8(a5)
	andi	a3,a3,0
	mv	a2,a3
	mv	a3,a1
	or	a3,a2,a3
	sb	a3,8(a5)
	srliw	a3,a4,8
	slli	a3,a3,32
	srli	a3,a3,32
	andi	a1,a3,255
	lbu	a3,9(a5)
	andi	a3,a3,0
	mv	a2,a3
	mv	a3,a1
	or	a3,a2,a3
	sb	a3,9(a5)
	srliw	a3,a4,16
	slli	a3,a3,32
	srli	a3,a3,32
	andi	a1,a3,255
	lbu	a3,10(a5)
	andi	a3,a3,0
	mv	a2,a3
	mv	a3,a1
	or	a3,a2,a3
	sb	a3,10(a5)
	srliw	a4,a4,24
	slli	a2,a4,32
	srli	a2,a2,32
	lbu	a4,11(a5)
	andi	a4,a4,0
	mv	a3,a4
	mv	a4,a2
	or	a4,a3,a4
	sb	a4,11(a5)
	.loc 1 704 10
	ld	a5,-40(s0)
	.loc 1 705 1
	mv	a0,a5
	ld	ra,56(sp)
	.cfi_restore 1
	ld	s0,48(sp)
	.cfi_restore 8
	.cfi_def_cfa 2, 64
	addi	sp,sp,64
	.cfi_def_cfa_offset 0
	jr	ra
	.cfi_endproc
.LFE21:
	.size	DevPathFromTextAcpi, .-DevPathFromTextAcpi
	.section	.text.ConvertFromTextAcpi,"ax",@progbits
	.align	1
	.globl	ConvertFromTextAcpi
	.type	ConvertFromTextAcpi, @function
ConvertFromTextAcpi:
.LFB22:
	.loc 1 721 1
	.cfi_startproc
	addi	sp,sp,-48
	.cfi_def_cfa_offset 48
	sd	ra,40(sp)
	sd	s0,32(sp)
	.cfi_offset 1, -8
	.cfi_offset 8, -16
	addi	s0,sp,48
	.cfi_def_cfa 8, 0
	sd	a0,-40(s0)
	mv	a5,a1
	sw	a5,-44(s0)
	.loc 1 725 12
	addi	a5,s0,-40
	mv	a0,a5
	call	GetNextParamStr
	sd	a0,-24(s0)
	.loc 1 726 35
	li	a2,12
	li	a1,1
	li	a0,2
	call	CreateDeviceNode
	sd	a0,-32(s0)
	.loc 1 732 47
	lw	a5,-44(s0)
	slliw	a5,a5,16
	sext.w	a5,a5
	.loc 1 732 35
	mv	a4,a5
	li	a5,16384
	addi	a5,a5,464
	or	a5,a4,a5
	sext.w	a4,a5
	.loc 1 732 13
	ld	a5,-32(s0)
	slli	a3,a4,32
	srli	a3,a3,32
	andi	a1,a3,255
	lbu	a3,4(a5)
	andi	a3,a3,0
	mv	a2,a3
	mv	a3,a1
	or	a3,a2,a3
	sb	a3,4(a5)
	srliw	a3,a4,8
	slli	a3,a3,32
	srli	a3,a3,32
	andi	a1,a3,255
	lbu	a3,5(a5)
	andi	a3,a3,0
	mv	a2,a3
	mv	a3,a1
	or	a3,a2,a3
	sb	a3,5(a5)
	srliw	a3,a4,16
	slli	a3,a3,32
	srli	a3,a3,32
	andi	a1,a3,255
	lbu	a3,6(a5)
	andi	a3,a3,0
	mv	a2,a3
	mv	a3,a1
	or	a3,a2,a3
	sb	a3,6(a5)
	srliw	a4,a4,24
	slli	a2,a4,32
	srli	a2,a2,32
	lbu	a4,7(a5)
	andi	a4,a4,0
	mv	a3,a4
	mv	a4,a2
	or	a4,a3,a4
	sb	a4,7(a5)
	.loc 1 733 24
	ld	a0,-24(s0)
	call	Strtoi
	mv	a5,a0
	.loc 1 733 15
	sext.w	a4,a5
	.loc 1 733 13
	ld	a5,-32(s0)
	slli	a3,a4,32
	srli	a3,a3,32
	andi	a1,a3,255
	lbu	a3,8(a5)
	andi	a3,a3,0
	mv	a2,a3
	mv	a3,a1
	or	a3,a2,a3
	sb	a3,8(a5)
	srliw	a3,a4,8
	slli	a3,a3,32
	srli	a3,a3,32
	andi	a1,a3,255
	lbu	a3,9(a5)
	andi	a3,a3,0
	mv	a2,a3
	mv	a3,a1
	or	a3,a2,a3
	sb	a3,9(a5)
	srliw	a3,a4,16
	slli	a3,a3,32
	srli	a3,a3,32
	andi	a1,a3,255
	lbu	a3,10(a5)
	andi	a3,a3,0
	mv	a2,a3
	mv	a3,a1
	or	a3,a2,a3
	sb	a3,10(a5)
	srliw	a4,a4,24
	slli	a2,a4,32
	srli	a2,a2,32
	lbu	a4,11(a5)
	andi	a4,a4,0
	mv	a3,a4
	mv	a4,a2
	or	a4,a3,a4
	sb	a4,11(a5)
	.loc 1 735 10
	ld	a5,-32(s0)
	.loc 1 736 1
	mv	a0,a5
	ld	ra,40(sp)
	.cfi_restore 1
	ld	s0,32(sp)
	.cfi_restore 8
	.cfi_def_cfa 2, 48
	addi	sp,sp,48
	.cfi_def_cfa_offset 0
	jr	ra
	.cfi_endproc
.LFE22:
	.size	ConvertFromTextAcpi, .-ConvertFromTextAcpi
	.section	.text.DevPathFromTextPciRoot,"ax",@progbits
	.align	1
	.globl	DevPathFromTextPciRoot
	.type	DevPathFromTextPciRoot, @function
DevPathFromTextPciRoot:
.LFB23:
	.loc 1 750 1
	.cfi_startproc
	addi	sp,sp,-32
	.cfi_def_cfa_offset 32
	sd	ra,24(sp)
	sd	s0,16(sp)
	.cfi_offset 1, -8
	.cfi_offset 8, -16
	addi	s0,sp,32
	.cfi_def_cfa 8, 0
	sd	a0,-24(s0)
	.loc 1 751 10
	li	a5,4096
	addi	a1,a5,-1533
	ld	a0,-24(s0)
	call	ConvertFromTextAcpi
	mv	a5,a0
	.loc 1 752 1
	mv	a0,a5
	ld	ra,24(sp)
	.cfi_restore 1
	ld	s0,16(sp)
	.cfi_restore 8
	.cfi_def_cfa 2, 32
	addi	sp,sp,32
	.cfi_def_cfa_offset 0
	jr	ra
	.cfi_endproc
.LFE23:
	.size	DevPathFromTextPciRoot, .-DevPathFromTextPciRoot
	.section	.text.DevPathFromTextPcieRoot,"ax",@progbits
	.align	1
	.globl	DevPathFromTextPcieRoot
	.type	DevPathFromTextPcieRoot, @function
DevPathFromTextPcieRoot:
.LFB24:
	.loc 1 766 1
	.cfi_startproc
	addi	sp,sp,-32
	.cfi_def_cfa_offset 32
	sd	ra,24(sp)
	sd	s0,16(sp)
	.cfi_offset 1, -8
	.cfi_offset 8, -16
	addi	s0,sp,32
	.cfi_def_cfa 8, 0
	sd	a0,-24(s0)
	.loc 1 767 10
	li	a5,4096
	addi	a1,a5,-1528
	ld	a0,-24(s0)
	call	ConvertFromTextAcpi
	mv	a5,a0
	.loc 1 768 1
	mv	a0,a5
	ld	ra,24(sp)
	.cfi_restore 1
	ld	s0,16(sp)
	.cfi_restore 8
	.cfi_def_cfa 2, 32
	addi	sp,sp,32
	.cfi_def_cfa_offset 0
	jr	ra
	.cfi_endproc
.LFE24:
	.size	DevPathFromTextPcieRoot, .-DevPathFromTextPcieRoot
	.section	.text.DevPathFromTextFloppy,"ax",@progbits
	.align	1
	.globl	DevPathFromTextFloppy
	.type	DevPathFromTextFloppy, @function
DevPathFromTextFloppy:
.LFB25:
	.loc 1 782 1
	.cfi_startproc
	addi	sp,sp,-32
	.cfi_def_cfa_offset 32
	sd	ra,24(sp)
	sd	s0,16(sp)
	.cfi_offset 1, -8
	.cfi_offset 8, -16
	addi	s0,sp,32
	.cfi_def_cfa 8, 0
	sd	a0,-24(s0)
	.loc 1 783 10
	li	a1,1540
	ld	a0,-24(s0)
	call	ConvertFromTextAcpi
	mv	a5,a0
	.loc 1 784 1
	mv	a0,a5
	ld	ra,24(sp)
	.cfi_restore 1
	ld	s0,16(sp)
	.cfi_restore 8
	.cfi_def_cfa 2, 32
	addi	sp,sp,32
	.cfi_def_cfa_offset 0
	jr	ra
	.cfi_endproc
.LFE25:
	.size	DevPathFromTextFloppy, .-DevPathFromTextFloppy
	.section	.text.DevPathFromTextKeyboard,"ax",@progbits
	.align	1
	.globl	DevPathFromTextKeyboard
	.type	DevPathFromTextKeyboard, @function
DevPathFromTextKeyboard:
.LFB26:
	.loc 1 798 1
	.cfi_startproc
	addi	sp,sp,-32
	.cfi_def_cfa_offset 32
	sd	ra,24(sp)
	sd	s0,16(sp)
	.cfi_offset 1, -8
	.cfi_offset 8, -16
	addi	s0,sp,32
	.cfi_def_cfa 8, 0
	sd	a0,-24(s0)
	.loc 1 799 10
	li	a1,769
	ld	a0,-24(s0)
	call	ConvertFromTextAcpi
	mv	a5,a0
	.loc 1 800 1
	mv	a0,a5
	ld	ra,24(sp)
	.cfi_restore 1
	ld	s0,16(sp)
	.cfi_restore 8
	.cfi_def_cfa 2, 32
	addi	sp,sp,32
	.cfi_def_cfa_offset 0
	jr	ra
	.cfi_endproc
.LFE26:
	.size	DevPathFromTextKeyboard, .-DevPathFromTextKeyboard
	.section	.text.DevPathFromTextSerial,"ax",@progbits
	.align	1
	.globl	DevPathFromTextSerial
	.type	DevPathFromTextSerial, @function
DevPathFromTextSerial:
.LFB27:
	.loc 1 814 1
	.cfi_startproc
	addi	sp,sp,-32
	.cfi_def_cfa_offset 32
	sd	ra,24(sp)
	sd	s0,16(sp)
	.cfi_offset 1, -8
	.cfi_offset 8, -16
	addi	s0,sp,32
	.cfi_def_cfa 8, 0
	sd	a0,-24(s0)
	.loc 1 815 10
	li	a1,1281
	ld	a0,-24(s0)
	call	ConvertFromTextAcpi
	mv	a5,a0
	.loc 1 816 1
	mv	a0,a5
	ld	ra,24(sp)
	.cfi_restore 1
	ld	s0,16(sp)
	.cfi_restore 8
	.cfi_def_cfa 2, 32
	addi	sp,sp,32
	.cfi_def_cfa_offset 0
	jr	ra
	.cfi_endproc
.LFE27:
	.size	DevPathFromTextSerial, .-DevPathFromTextSerial
	.section	.text.DevPathFromTextParallelPort,"ax",@progbits
	.align	1
	.globl	DevPathFromTextParallelPort
	.type	DevPathFromTextParallelPort, @function
DevPathFromTextParallelPort:
.LFB28:
	.loc 1 830 1
	.cfi_startproc
	addi	sp,sp,-32
	.cfi_def_cfa_offset 32
	sd	ra,24(sp)
	sd	s0,16(sp)
	.cfi_offset 1, -8
	.cfi_offset 8, -16
	addi	s0,sp,32
	.cfi_def_cfa 8, 0
	sd	a0,-24(s0)
	.loc 1 831 10
	li	a1,1025
	ld	a0,-24(s0)
	call	ConvertFromTextAcpi
	mv	a5,a0
	.loc 1 832 1
	mv	a0,a5
	ld	ra,24(sp)
	.cfi_restore 1
	ld	s0,16(sp)
	.cfi_restore 8
	.cfi_def_cfa 2, 32
	addi	sp,sp,32
	.cfi_def_cfa_offset 0
	jr	ra
	.cfi_endproc
.LFE28:
	.size	DevPathFromTextParallelPort, .-DevPathFromTextParallelPort
	.section	.text.DevPathFromTextAcpiEx,"ax",@progbits
	.align	1
	.globl	DevPathFromTextAcpiEx
	.type	DevPathFromTextAcpiEx, @function
DevPathFromTextAcpiEx:
.LFB29:
	.loc 1 846 1
	.cfi_startproc
	addi	sp,sp,-112
	.cfi_def_cfa_offset 112
	sd	ra,104(sp)
	sd	s0,96(sp)
	.cfi_offset 1, -8
	.cfi_offset 8, -16
	addi	s0,sp,112
	.cfi_def_cfa 8, 0
	sd	a0,-104(s0)
	.loc 1 857 12
	addi	a5,s0,-104
	mv	a0,a5
	call	GetNextParamStr
	sd	a0,-24(s0)
	.loc 1 858 12
	addi	a5,s0,-104
	mv	a0,a5
	call	GetNextParamStr
	sd	a0,-32(s0)
	.loc 1 859 12
	addi	a5,s0,-104
	mv	a0,a5
	call	GetNextParamStr
	sd	a0,-40(s0)
	.loc 1 860 15
	addi	a5,s0,-104
	mv	a0,a5
	call	GetNextParamStr
	sd	a0,-48(s0)
	.loc 1 861 15
	addi	a5,s0,-104
	mv	a0,a5
	call	GetNextParamStr
	sd	a0,-56(s0)
	.loc 1 862 15
	addi	a5,s0,-104
	mv	a0,a5
	call	GetNextParamStr
	sd	a0,-64(s0)
	.loc 1 864 63
	ld	a0,-48(s0)
	call	StrLen
	mv	a5,a0
	.loc 1 864 12
	slli	a5,a5,48
	srli	a5,a5,48
	.loc 1 864 10
	addiw	a5,a5,17
	sh	a5,-66(s0)
	.loc 1 865 31
	ld	a0,-64(s0)
	call	StrLen
	mv	a5,a0
	.loc 1 865 29
	slli	a5,a5,48
	srli	a5,a5,48
	lhu	a4,-66(s0)
	addw	a5,a4,a5
	slli	a5,a5,48
	srli	a5,a5,48
	.loc 1 865 10
	addiw	a5,a5,1
	sh	a5,-66(s0)
	.loc 1 866 31
	ld	a0,-56(s0)
	call	StrLen
	mv	a5,a0
	.loc 1 866 29
	slli	a5,a5,48
	srli	a5,a5,48
	lhu	a4,-66(s0)
	addw	a5,a4,a5
	slli	a5,a5,48
	srli	a5,a5,48
	.loc 1 866 10
	addiw	a5,a5,1
	sh	a5,-66(s0)
	.loc 1 867 46
	lhu	a5,-66(s0)
	mv	a2,a5
	li	a1,2
	li	a0,2
	call	CreateDeviceNode
	sd	a0,-80(s0)
	.loc 1 873 17
	ld	a0,-24(s0)
	call	EisaIdFromText
	mv	a5,a0
	sext.w	a4,a5
	.loc 1 873 15
	ld	a5,-80(s0)
	slli	a3,a4,32
	srli	a3,a3,32
	andi	a1,a3,255
	lbu	a3,4(a5)
	andi	a3,a3,0
	mv	a2,a3
	mv	a3,a1
	or	a3,a2,a3
	sb	a3,4(a5)
	srliw	a3,a4,8
	slli	a3,a3,32
	srli	a3,a3,32
	andi	a1,a3,255
	lbu	a3,5(a5)
	andi	a3,a3,0
	mv	a2,a3
	mv	a3,a1
	or	a3,a2,a3
	sb	a3,5(a5)
	srliw	a3,a4,16
	slli	a3,a3,32
	srli	a3,a3,32
	andi	a1,a3,255
	lbu	a3,6(a5)
	andi	a3,a3,0
	mv	a2,a3
	mv	a3,a1
	or	a3,a2,a3
	sb	a3,6(a5)
	srliw	a4,a4,24
	slli	a2,a4,32
	srli	a2,a2,32
	lbu	a4,7(a5)
	andi	a4,a4,0
	mv	a3,a4
	mv	a4,a2
	or	a4,a3,a4
	sb	a4,7(a5)
	.loc 1 874 17
	ld	a0,-32(s0)
	call	EisaIdFromText
	mv	a5,a0
	sext.w	a4,a5
	.loc 1 874 15
	ld	a5,-80(s0)
	slli	a3,a4,32
	srli	a3,a3,32
	andi	a1,a3,255
	lbu	a3,12(a5)
	andi	a3,a3,0
	mv	a2,a3
	mv	a3,a1
	or	a3,a2,a3
	sb	a3,12(a5)
	srliw	a3,a4,8
	slli	a3,a3,32
	srli	a3,a3,32
	andi	a1,a3,255
	lbu	a3,13(a5)
	andi	a3,a3,0
	mv	a2,a3
	mv	a3,a1
	or	a3,a2,a3
	sb	a3,13(a5)
	srliw	a3,a4,16
	slli	a3,a3,32
	srli	a3,a3,32
	andi	a1,a3,255
	lbu	a3,14(a5)
	andi	a3,a3,0
	mv	a2,a3
	mv	a3,a1
	or	a3,a2,a3
	sb	a3,14(a5)
	srliw	a4,a4,24
	slli	a2,a4,32
	srli	a2,a2,32
	lbu	a4,15(a5)
	andi	a4,a4,0
	mv	a3,a4
	mv	a4,a2
	or	a4,a3,a4
	sb	a4,15(a5)
	.loc 1 875 26
	ld	a0,-40(s0)
	call	Strtoi
	mv	a5,a0
	.loc 1 875 17
	sext.w	a4,a5
	.loc 1 875 15
	ld	a5,-80(s0)
	slli	a3,a4,32
	srli	a3,a3,32
	andi	a1,a3,255
	lbu	a3,8(a5)
	andi	a3,a3,0
	mv	a2,a3
	mv	a3,a1
	or	a3,a2,a3
	sb	a3,8(a5)
	srliw	a3,a4,8
	slli	a3,a3,32
	srli	a3,a3,32
	andi	a1,a3,255
	lbu	a3,9(a5)
	andi	a3,a3,0
	mv	a2,a3
	mv	a3,a1
	or	a3,a2,a3
	sb	a3,9(a5)
	srliw	a3,a4,16
	slli	a3,a3,32
	srli	a3,a3,32
	andi	a1,a3,255
	lbu	a3,10(a5)
	andi	a3,a3,0
	mv	a2,a3
	mv	a3,a1
	or	a3,a2,a3
	sb	a3,10(a5)
	srliw	a4,a4,24
	slli	a2,a4,32
	srli	a2,a2,32
	lbu	a4,11(a5)
	andi	a4,a4,0
	mv	a3,a4
	mv	a4,a2
	or	a4,a3,a4
	sb	a4,11(a5)
	.loc 1 877 14
	ld	a5,-80(s0)
	addi	a5,a5,16
	.loc 1 877 12
	sd	a5,-88(s0)
	.loc 1 878 3
	addi	a5,s0,-88
	mv	a1,a5
	ld	a0,-48(s0)
	call	StrToAscii
	.loc 1 879 3
	addi	a5,s0,-88
	mv	a1,a5
	ld	a0,-64(s0)
	call	StrToAscii
	.loc 1 880 3
	addi	a5,s0,-88
	mv	a1,a5
	ld	a0,-56(s0)
	call	StrToAscii
	.loc 1 882 10
	ld	a5,-80(s0)
	.loc 1 883 1
	mv	a0,a5
	ld	ra,104(sp)
	.cfi_restore 1
	ld	s0,96(sp)
	.cfi_restore 8
	.cfi_def_cfa 2, 112
	addi	sp,sp,112
	.cfi_def_cfa_offset 0
	jr	ra
	.cfi_endproc
.LFE29:
	.size	DevPathFromTextAcpiEx, .-DevPathFromTextAcpiEx
	.section	.text.DevPathFromTextAcpiExp,"ax",@progbits
	.align	1
	.globl	DevPathFromTextAcpiExp
	.type	DevPathFromTextAcpiExp, @function
DevPathFromTextAcpiExp:
.LFB30:
	.loc 1 897 1
	.cfi_startproc
	addi	sp,sp,-80
	.cfi_def_cfa_offset 80
	sd	ra,72(sp)
	sd	s0,64(sp)
	.cfi_offset 1, -8
	.cfi_offset 8, -16
	addi	s0,sp,80
	.cfi_def_cfa 8, 0
	sd	a0,-72(s0)
	.loc 1 905 12
	addi	a5,s0,-72
	mv	a0,a5
	call	GetNextParamStr
	sd	a0,-24(s0)
	.loc 1 906 12
	addi	a5,s0,-72
	mv	a0,a5
	call	GetNextParamStr
	sd	a0,-32(s0)
	.loc 1 907 15
	addi	a5,s0,-72
	mv	a0,a5
	call	GetNextParamStr
	sd	a0,-40(s0)
	.loc 1 908 63
	ld	a0,-40(s0)
	call	StrLen
	mv	a5,a0
	.loc 1 908 12
	slli	a5,a5,48
	srli	a5,a5,48
	.loc 1 908 10
	addiw	a5,a5,19
	sh	a5,-42(s0)
	.loc 1 909 46
	lhu	a5,-42(s0)
	mv	a2,a5
	li	a1,2
	li	a0,2
	call	CreateDeviceNode
	sd	a0,-56(s0)
	.loc 1 915 17
	ld	a0,-24(s0)
	call	EisaIdFromText
	mv	a5,a0
	sext.w	a4,a5
	.loc 1 915 15
	ld	a5,-56(s0)
	slli	a3,a4,32
	srli	a3,a3,32
	andi	a1,a3,255
	lbu	a3,4(a5)
	andi	a3,a3,0
	mv	a2,a3
	mv	a3,a1
	or	a3,a2,a3
	sb	a3,4(a5)
	srliw	a3,a4,8
	slli	a3,a3,32
	srli	a3,a3,32
	andi	a1,a3,255
	lbu	a3,5(a5)
	andi	a3,a3,0
	mv	a2,a3
	mv	a3,a1
	or	a3,a2,a3
	sb	a3,5(a5)
	srliw	a3,a4,16
	slli	a3,a3,32
	srli	a3,a3,32
	andi	a1,a3,255
	lbu	a3,6(a5)
	andi	a3,a3,0
	mv	a2,a3
	mv	a3,a1
	or	a3,a2,a3
	sb	a3,6(a5)
	srliw	a4,a4,24
	slli	a2,a4,32
	srli	a2,a2,32
	lbu	a4,7(a5)
	andi	a4,a4,0
	mv	a3,a4
	mv	a4,a2
	or	a4,a3,a4
	sb	a4,7(a5)
	.loc 1 921 7
	ld	a5,-32(s0)
	lhu	a5,0(a5)
	.loc 1 921 6
	beq	a5,zero,.L110
	.loc 1 921 27 discriminator 1
	ld	a5,-32(s0)
	lhu	a5,0(a5)
	.loc 1 921 24 discriminator 1
	sext.w	a4,a5
	li	a5,48
	bne	a4,a5,.L111
.L110:
	.loc 1 922 17
	ld	a5,-56(s0)
	lbu	a4,12(a5)
	andi	a4,a4,0
	sb	a4,12(a5)
	lbu	a4,13(a5)
	andi	a4,a4,0
	sb	a4,13(a5)
	lbu	a4,14(a5)
	andi	a4,a4,0
	sb	a4,14(a5)
	lbu	a4,15(a5)
	andi	a4,a4,0
	sb	a4,15(a5)
	j	.L112
.L111:
	.loc 1 924 19
	ld	a0,-32(s0)
	call	EisaIdFromText
	mv	a5,a0
	sext.w	a4,a5
	.loc 1 924 17
	ld	a5,-56(s0)
	slli	a3,a4,32
	srli	a3,a3,32
	andi	a1,a3,255
	lbu	a3,12(a5)
	andi	a3,a3,0
	mv	a2,a3
	mv	a3,a1
	or	a3,a2,a3
	sb	a3,12(a5)
	srliw	a3,a4,8
	slli	a3,a3,32
	srli	a3,a3,32
	andi	a1,a3,255
	lbu	a3,13(a5)
	andi	a3,a3,0
	mv	a2,a3
	mv	a3,a1
	or	a3,a2,a3
	sb	a3,13(a5)
	srliw	a3,a4,16
	slli	a3,a3,32
	srli	a3,a3,32
	andi	a1,a3,255
	lbu	a3,14(a5)
	andi	a3,a3,0
	mv	a2,a3
	mv	a3,a1
	or	a3,a2,a3
	sb	a3,14(a5)
	srliw	a4,a4,24
	slli	a2,a4,32
	srli	a2,a2,32
	lbu	a4,15(a5)
	andi	a4,a4,0
	mv	a3,a4
	mv	a4,a2
	or	a4,a3,a4
	sb	a4,15(a5)
.L112:
	.loc 1 926 15
	ld	a5,-56(s0)
	lbu	a4,8(a5)
	andi	a4,a4,0
	sb	a4,8(a5)
	lbu	a4,9(a5)
	andi	a4,a4,0
	sb	a4,9(a5)
	lbu	a4,10(a5)
	andi	a4,a4,0
	sb	a4,10(a5)
	lbu	a4,11(a5)
	andi	a4,a4,0
	sb	a4,11(a5)
	.loc 1 928 14
	ld	a5,-56(s0)
	addi	a5,a5,16
	.loc 1 928 12
	sd	a5,-64(s0)
	.loc 1 932 3
	ld	a5,-64(s0)
	.loc 1 932 13
	sb	zero,0(a5)
	.loc 1 936 11
	ld	a5,-64(s0)
	addi	a5,a5,1
	sd	a5,-64(s0)
	.loc 1 937 3
	addi	a5,s0,-64
	mv	a1,a5
	ld	a0,-40(s0)
	call	StrToAscii
	.loc 1 941 3
	ld	a5,-64(s0)
	.loc 1 941 13
	sb	zero,0(a5)
	.loc 1 943 10
	ld	a5,-56(s0)
	.loc 1 944 1
	mv	a0,a5
	ld	ra,72(sp)
	.cfi_restore 1
	ld	s0,64(sp)
	.cfi_restore 8
	.cfi_def_cfa 2, 80
	addi	sp,sp,80
	.cfi_def_cfa_offset 0
	jr	ra
	.cfi_endproc
.LFE30:
	.size	DevPathFromTextAcpiExp, .-DevPathFromTextAcpiExp
	.section	.rodata
	.align	3
.LC0:
	.string	"AcpiAdr != ((void *) 0)"
	.align	3
.LC1:
	.string	"/home/xephyr/Documents/edk2/MdePkg/Library/UefiDevicePathLib/DevicePathFromText.c"
	.section	.text.DevPathFromTextAcpiAdr,"ax",@progbits
	.align	1
	.globl	DevPathFromTextAcpiAdr
	.type	DevPathFromTextAcpiAdr, @function
DevPathFromTextAcpiAdr:
.LFB31:
	.loc 1 958 1
	.cfi_startproc
	addi	sp,sp,-64
	.cfi_def_cfa_offset 64
	sd	ra,56(sp)
	sd	s0,48(sp)
	.cfi_offset 1, -8
	.cfi_offset 8, -16
	addi	s0,sp,64
	.cfi_def_cfa 8, 0
	sd	a0,-56(s0)
	.loc 1 964 38
	li	a2,8
	li	a1,3
	li	a0,2
	call	CreateDeviceNode
	sd	a0,-24(s0)
	.loc 1 969 12
	call	DebugAssertEnabled
	mv	a5,a0
	.loc 1 969 11
	beq	a5,zero,.L115
	.loc 1 969 40 discriminator 1
	ld	a5,-24(s0)
	bne	a5,zero,.L115
	.loc 1 969 71 discriminator 2
	lla	a2,.LC0
	li	a1,969
	lla	a0,.LC1
	call	UnitTestDebugAssert
.L115:
	.loc 1 971 14
	sd	zero,-32(s0)
.L120:
	.loc 1 972 24
	addi	a5,s0,-56
	mv	a0,a5
	call	GetNextParamStr
	sd	a0,-40(s0)
	.loc 1 973 11
	ld	a5,-40(s0)
	lhu	a5,0(a5)
	.loc 1 973 8
	beq	a5,zero,.L123
	.loc 1 976 8
	ld	a5,-32(s0)
	beq	a5,zero,.L118
	.loc 1 977 16
	ld	a0,-24(s0)
	call	DevicePathNodeLength
	sd	a0,-48(s0)
	.loc 1 978 17
	ld	a5,-48(s0)
	addi	a5,a5,4
	ld	a2,-24(s0)
	mv	a1,a5
	ld	a0,-48(s0)
	call	ReallocatePool
	sd	a0,-24(s0)
	.loc 1 983 16
	call	DebugAssertEnabled
	mv	a5,a0
	.loc 1 983 15
	beq	a5,zero,.L119
	.loc 1 983 44 discriminator 1
	ld	a5,-24(s0)
	bne	a5,zero,.L119
	.loc 1 983 75 discriminator 2
	lla	a2,.LC0
	li	a1,983
	lla	a0,.LC1
	call	UnitTestDebugAssert
.L119:
	.loc 1 984 7
	ld	a5,-48(s0)
	addi	a5,a5,4
	mv	a1,a5
	ld	a0,-24(s0)
	call	SetDevicePathNodeLength
.L118:
	.loc 1 987 39
	ld	a0,-40(s0)
	call	Strtoi
	mv	a3,a0
	.loc 1 987 6
	ld	a5,-24(s0)
	addi	a4,a5,4
	.loc 1 987 20
	ld	a5,-32(s0)
	slli	a5,a5,2
	add	a5,a4,a5
	.loc 1 987 30
	sext.w	a4,a3
	.loc 1 987 28
	sw	a4,0(a5)
	.loc 1 971 26
	ld	a5,-32(s0)
	addi	a5,a5,1
	sd	a5,-32(s0)
	.loc 1 972 22
	j	.L120
.L123:
	.loc 1 974 7
	nop
	.loc 1 990 10
	ld	a5,-24(s0)
	.loc 1 991 1
	mv	a0,a5
	ld	ra,56(sp)
	.cfi_restore 1
	ld	s0,48(sp)
	.cfi_restore 8
	.cfi_def_cfa 2, 64
	addi	sp,sp,64
	.cfi_def_cfa_offset 0
	jr	ra
	.cfi_endproc
.LFE31:
	.size	DevPathFromTextAcpiAdr, .-DevPathFromTextAcpiAdr
	.section	.text.DevPathFromTextMsg,"ax",@progbits
	.align	1
	.globl	DevPathFromTextMsg
	.type	DevPathFromTextMsg, @function
DevPathFromTextMsg:
.LFB32:
	.loc 1 1005 1
	.cfi_startproc
	addi	sp,sp,-32
	.cfi_def_cfa_offset 32
	sd	ra,24(sp)
	sd	s0,16(sp)
	.cfi_offset 1, -8
	.cfi_offset 8, -16
	addi	s0,sp,32
	.cfi_def_cfa 8, 0
	sd	a0,-24(s0)
	.loc 1 1006 10
	ld	a1,-24(s0)
	li	a0,3
	call	DevPathFromTextGenericPath
	mv	a5,a0
	.loc 1 1007 1
	mv	a0,a5
	ld	ra,24(sp)
	.cfi_restore 1
	ld	s0,16(sp)
	.cfi_restore 8
	.cfi_def_cfa 2, 32
	addi	sp,sp,32
	.cfi_def_cfa_offset 0
	jr	ra
	.cfi_endproc
.LFE32:
	.size	DevPathFromTextMsg, .-DevPathFromTextMsg
	.section	.rodata
	.align	3
.LC2:
	.string	"P"
	.string	"r"
	.string	"i"
	.string	"m"
	.string	"a"
	.string	"r"
	.string	"y"
	.string	""
	.string	""
	.align	3
.LC3:
	.string	"S"
	.string	"e"
	.string	"c"
	.string	"o"
	.string	"n"
	.string	"d"
	.string	"a"
	.string	"r"
	.string	"y"
	.string	""
	.string	""
	.align	3
.LC4:
	.string	"M"
	.string	"a"
	.string	"s"
	.string	"t"
	.string	"e"
	.string	"r"
	.string	""
	.string	""
	.align	3
.LC5:
	.string	"S"
	.string	"l"
	.string	"a"
	.string	"v"
	.string	"e"
	.string	""
	.string	""
	.section	.text.DevPathFromTextAta,"ax",@progbits
	.align	1
	.globl	DevPathFromTextAta
	.type	DevPathFromTextAta, @function
DevPathFromTextAta:
.LFB33:
	.loc 1 1021 1
	.cfi_startproc
	addi	sp,sp,-64
	.cfi_def_cfa_offset 64
	sd	ra,56(sp)
	sd	s0,48(sp)
	.cfi_offset 1, -8
	.cfi_offset 8, -16
	addi	s0,sp,64
	.cfi_def_cfa 8, 0
	sd	a0,-56(s0)
	.loc 1 1027 33
	li	a2,8
	li	a1,1
	li	a0,3
	call	CreateDeviceNode
	sd	a0,-24(s0)
	.loc 1 1033 25
	addi	a5,s0,-56
	mv	a0,a5
	call	GetNextParamStr
	sd	a0,-32(s0)
	.loc 1 1034 20
	addi	a5,s0,-56
	mv	a0,a5
	call	GetNextParamStr
	sd	a0,-40(s0)
	.loc 1 1035 12
	addi	a5,s0,-56
	mv	a0,a5
	call	GetNextParamStr
	sd	a0,-48(s0)
	.loc 1 1037 7
	lla	a1,.LC2
	ld	a0,-32(s0)
	call	StrCmp
	mv	a5,a0
	.loc 1 1037 6
	bne	a5,zero,.L127
	.loc 1 1038 29
	ld	a5,-24(s0)
	sb	zero,4(a5)
	j	.L128
.L127:
	.loc 1 1039 14
	lla	a1,.LC3
	ld	a0,-32(s0)
	call	StrCmp
	mv	a5,a0
	.loc 1 1039 13
	bne	a5,zero,.L129
	.loc 1 1040 29
	ld	a5,-24(s0)
	li	a4,1
	sb	a4,4(a5)
	j	.L128
.L129:
	.loc 1 1042 39
	ld	a0,-32(s0)
	call	Strtoi
	mv	a5,a0
	.loc 1 1042 31
	andi	a4,a5,0xff
	.loc 1 1042 29
	ld	a5,-24(s0)
	sb	a4,4(a5)
.L128:
	.loc 1 1044 7
	lla	a1,.LC4
	ld	a0,-40(s0)
	call	StrCmp
	mv	a5,a0
	.loc 1 1044 6
	bne	a5,zero,.L130
	.loc 1 1045 24
	ld	a5,-24(s0)
	sb	zero,5(a5)
	j	.L131
.L130:
	.loc 1 1046 14
	lla	a1,.LC5
	ld	a0,-40(s0)
	call	StrCmp
	mv	a5,a0
	.loc 1 1046 13
	bne	a5,zero,.L132
	.loc 1 1047 24
	ld	a5,-24(s0)
	li	a4,1
	sb	a4,5(a5)
	j	.L131
.L132:
	.loc 1 1049 34
	ld	a0,-40(s0)
	call	Strtoi
	mv	a5,a0
	.loc 1 1049 26
	andi	a4,a5,0xff
	.loc 1 1049 24
	ld	a5,-24(s0)
	sb	a4,5(a5)
.L131:
	.loc 1 1052 25
	ld	a0,-48(s0)
	call	Strtoi
	mv	a5,a0
	.loc 1 1052 16
	slli	a4,a5,48
	srli	a4,a4,48
	.loc 1 1052 14
	ld	a5,-24(s0)
	andi	a1,a4,255
	lbu	a3,6(a5)
	andi	a3,a3,0
	mv	a2,a3
	mv	a3,a1
	or	a3,a2,a3
	sb	a3,6(a5)
	srliw	a4,a4,8
	slli	a2,a4,48
	srli	a2,a2,48
	lbu	a4,7(a5)
	andi	a4,a4,0
	mv	a3,a4
	mv	a4,a2
	or	a4,a3,a4
	sb	a4,7(a5)
	.loc 1 1054 10
	ld	a5,-24(s0)
	.loc 1 1055 1
	mv	a0,a5
	ld	ra,56(sp)
	.cfi_restore 1
	ld	s0,48(sp)
	.cfi_restore 8
	.cfi_def_cfa 2, 64
	addi	sp,sp,64
	.cfi_def_cfa_offset 0
	jr	ra
	.cfi_endproc
.LFE33:
	.size	DevPathFromTextAta, .-DevPathFromTextAta
	.section	.text.DevPathFromTextScsi,"ax",@progbits
	.align	1
	.globl	DevPathFromTextScsi
	.type	DevPathFromTextScsi, @function
DevPathFromTextScsi:
.LFB34:
	.loc 1 1069 1
	.cfi_startproc
	addi	sp,sp,-64
	.cfi_def_cfa_offset 64
	sd	ra,56(sp)
	sd	s0,48(sp)
	.cfi_offset 1, -8
	.cfi_offset 8, -16
	addi	s0,sp,64
	.cfi_def_cfa 8, 0
	sd	a0,-56(s0)
	.loc 1 1074 12
	addi	a5,s0,-56
	mv	a0,a5
	call	GetNextParamStr
	sd	a0,-24(s0)
	.loc 1 1075 12
	addi	a5,s0,-56
	mv	a0,a5
	call	GetNextParamStr
	sd	a0,-32(s0)
	.loc 1 1076 31
	li	a2,8
	li	a1,2
	li	a0,3
	call	CreateDeviceNode
	sd	a0,-40(s0)
	.loc 1 1082 24
	ld	a0,-24(s0)
	call	Strtoi
	mv	a5,a0
	.loc 1 1082 15
	slli	a4,a5,48
	srli	a4,a4,48
	.loc 1 1082 13
	ld	a5,-40(s0)
	andi	a1,a4,255
	lbu	a3,4(a5)
	andi	a3,a3,0
	mv	a2,a3
	mv	a3,a1
	or	a3,a2,a3
	sb	a3,4(a5)
	srliw	a4,a4,8
	slli	a2,a4,48
	srli	a2,a2,48
	lbu	a4,5(a5)
	andi	a4,a4,0
	mv	a3,a4
	mv	a4,a2
	or	a4,a3,a4
	sb	a4,5(a5)
	.loc 1 1083 24
	ld	a0,-32(s0)
	call	Strtoi
	mv	a5,a0
	.loc 1 1083 15
	slli	a4,a5,48
	srli	a4,a4,48
	.loc 1 1083 13
	ld	a5,-40(s0)
	andi	a1,a4,255
	lbu	a3,6(a5)
	andi	a3,a3,0
	mv	a2,a3
	mv	a3,a1
	or	a3,a2,a3
	sb	a3,6(a5)
	srliw	a4,a4,8
	slli	a2,a4,48
	srli	a2,a2,48
	lbu	a4,7(a5)
	andi	a4,a4,0
	mv	a3,a4
	mv	a4,a2
	or	a4,a3,a4
	sb	a4,7(a5)
	.loc 1 1085 10
	ld	a5,-40(s0)
	.loc 1 1086 1
	mv	a0,a5
	ld	ra,56(sp)
	.cfi_restore 1
	ld	s0,48(sp)
	.cfi_restore 8
	.cfi_def_cfa 2, 64
	addi	sp,sp,64
	.cfi_def_cfa_offset 0
	jr	ra
	.cfi_endproc
.LFE34:
	.size	DevPathFromTextScsi, .-DevPathFromTextScsi
	.section	.text.DevPathFromTextFibre,"ax",@progbits
	.align	1
	.globl	DevPathFromTextFibre
	.type	DevPathFromTextFibre, @function
DevPathFromTextFibre:
.LFB35:
	.loc 1 1100 1
	.cfi_startproc
	addi	sp,sp,-64
	.cfi_def_cfa_offset 64
	sd	ra,56(sp)
	sd	s0,48(sp)
	.cfi_offset 1, -8
	.cfi_offset 8, -16
	addi	s0,sp,64
	.cfi_def_cfa 8, 0
	sd	a0,-56(s0)
	.loc 1 1105 12
	addi	a5,s0,-56
	mv	a0,a5
	call	GetNextParamStr
	sd	a0,-24(s0)
	.loc 1 1106 12
	addi	a5,s0,-56
	mv	a0,a5
	call	GetNextParamStr
	sd	a0,-32(s0)
	.loc 1 1107 40
	li	a2,24
	li	a1,3
	li	a0,3
	call	CreateDeviceNode
	sd	a0,-40(s0)
	.loc 1 1113 19
	ld	a5,-40(s0)
	lbu	a4,4(a5)
	andi	a4,a4,0
	sb	a4,4(a5)
	lbu	a4,5(a5)
	andi	a4,a4,0
	sb	a4,5(a5)
	lbu	a4,6(a5)
	andi	a4,a4,0
	sb	a4,6(a5)
	lbu	a4,7(a5)
	andi	a4,a4,0
	sb	a4,7(a5)
	.loc 1 1114 3
	ld	a5,-40(s0)
	addi	a5,a5,8
	mv	a1,a5
	ld	a0,-24(s0)
	call	Strtoi64
	.loc 1 1115 3
	ld	a5,-40(s0)
	addi	a5,a5,16
	mv	a1,a5
	ld	a0,-32(s0)
	call	Strtoi64
	.loc 1 1117 10
	ld	a5,-40(s0)
	.loc 1 1118 1
	mv	a0,a5
	ld	ra,56(sp)
	.cfi_restore 1
	ld	s0,48(sp)
	.cfi_restore 8
	.cfi_def_cfa 2, 64
	addi	sp,sp,64
	.cfi_def_cfa_offset 0
	jr	ra
	.cfi_endproc
.LFE35:
	.size	DevPathFromTextFibre, .-DevPathFromTextFibre
	.section	.text.DevPathFromTextFibreEx,"ax",@progbits
	.align	1
	.globl	DevPathFromTextFibreEx
	.type	DevPathFromTextFibreEx, @function
DevPathFromTextFibreEx:
.LFB36:
	.loc 1 1132 1
	.cfi_startproc
	addi	sp,sp,-80
	.cfi_def_cfa_offset 80
	sd	ra,72(sp)
	sd	s0,64(sp)
	sd	s1,56(sp)
	.cfi_offset 1, -8
	.cfi_offset 8, -16
	.cfi_offset 9, -24
	addi	s0,sp,80
	.cfi_def_cfa 8, 0
	sd	a0,-72(s0)
	.loc 1 1137 12
	addi	a5,s0,-72
	mv	a0,a5
	call	GetNextParamStr
	sd	a0,-40(s0)
	.loc 1 1138 12
	addi	a5,s0,-72
	mv	a0,a5
	call	GetNextParamStr
	sd	a0,-48(s0)
	.loc 1 1139 44
	li	a2,24
	li	a1,21
	li	a0,3
	call	CreateDeviceNode
	sd	a0,-56(s0)
	.loc 1 1145 21
	ld	a5,-56(s0)
	lbu	a4,4(a5)
	andi	a4,a4,0
	sb	a4,4(a5)
	lbu	a4,5(a5)
	andi	a4,a4,0
	sb	a4,5(a5)
	lbu	a4,6(a5)
	andi	a4,a4,0
	sb	a4,6(a5)
	lbu	a4,7(a5)
	andi	a4,a4,0
	sb	a4,7(a5)
	.loc 1 1146 33
	ld	a5,-56(s0)
	addi	a5,a5,8
	.loc 1 1146 3
	mv	a1,a5
	ld	a0,-40(s0)
	call	Strtoi64
	.loc 1 1147 33
	ld	a5,-56(s0)
	addi	a5,a5,16
	.loc 1 1147 3
	mv	a1,a5
	ld	a0,-48(s0)
	call	Strtoi64
	.loc 1 1149 59
	ld	a5,-56(s0)
	addi	a5,a5,8
	.loc 1 1149 33
	ld	a4,0(a5)
	.loc 1 1149 16
	ld	a5,-56(s0)
	addi	s1,a5,8
	.loc 1 1149 33
	mv	a0,a4
	call	SwapBytes64
	mv	a5,a0
	.loc 1 1149 31
	sd	a5,0(s1)
	.loc 1 1150 59
	ld	a5,-56(s0)
	addi	a5,a5,16
	.loc 1 1150 33
	ld	a4,0(a5)
	.loc 1 1150 16
	ld	a5,-56(s0)
	addi	s1,a5,16
	.loc 1 1150 33
	mv	a0,a4
	call	SwapBytes64
	mv	a5,a0
	.loc 1 1150 31
	sd	a5,0(s1)
	.loc 1 1152 10
	ld	a5,-56(s0)
	.loc 1 1153 1
	mv	a0,a5
	ld	ra,72(sp)
	.cfi_restore 1
	ld	s0,64(sp)
	.cfi_restore 8
	.cfi_def_cfa 2, 80
	ld	s1,56(sp)
	.cfi_restore 9
	addi	sp,sp,80
	.cfi_def_cfa_offset 0
	jr	ra
	.cfi_endproc
.LFE36:
	.size	DevPathFromTextFibreEx, .-DevPathFromTextFibreEx
	.section	.text.DevPathFromText1394,"ax",@progbits
	.align	1
	.globl	DevPathFromText1394
	.type	DevPathFromText1394, @function
DevPathFromText1394:
.LFB37:
	.loc 1 1167 1
	.cfi_startproc
	addi	sp,sp,-48
	.cfi_def_cfa_offset 48
	sd	ra,40(sp)
	sd	s0,32(sp)
	.cfi_offset 1, -8
	.cfi_offset 8, -16
	addi	s0,sp,48
	.cfi_def_cfa 8, 0
	sd	a0,-40(s0)
	.loc 1 1171 13
	addi	a5,s0,-40
	mv	a0,a5
	call	GetNextParamStr
	sd	a0,-24(s0)
	.loc 1 1172 40
	li	a2,16
	li	a1,4
	li	a0,3
	call	CreateDeviceNode
	sd	a0,-32(s0)
	.loc 1 1178 26
	ld	a5,-32(s0)
	lbu	a4,4(a5)
	andi	a4,a4,0
	sb	a4,4(a5)
	lbu	a4,5(a5)
	andi	a4,a4,0
	sb	a4,5(a5)
	lbu	a4,6(a5)
	andi	a4,a4,0
	sb	a4,6(a5)
	lbu	a4,7(a5)
	andi	a4,a4,0
	sb	a4,7(a5)
	.loc 1 1179 24
	ld	a0,-24(s0)
	call	StrHexToUint64
	mv	a4,a0
	.loc 1 1179 22
	ld	a5,-32(s0)
	andi	a1,a4,255
	lbu	a3,8(a5)
	andi	a3,a3,0
	mv	a2,a3
	mv	a3,a1
	or	a3,a2,a3
	sb	a3,8(a5)
	srli	a3,a4,8
	andi	a1,a3,255
	lbu	a3,9(a5)
	andi	a3,a3,0
	mv	a2,a3
	mv	a3,a1
	or	a3,a2,a3
	sb	a3,9(a5)
	srli	a3,a4,16
	andi	a1,a3,255
	lbu	a3,10(a5)
	andi	a3,a3,0
	mv	a2,a3
	mv	a3,a1
	or	a3,a2,a3
	sb	a3,10(a5)
	srli	a3,a4,24
	andi	a1,a3,255
	lbu	a3,11(a5)
	andi	a3,a3,0
	mv	a2,a3
	mv	a3,a1
	or	a3,a2,a3
	sb	a3,11(a5)
	srli	a3,a4,32
	andi	a1,a3,255
	lbu	a3,12(a5)
	andi	a3,a3,0
	mv	a2,a3
	mv	a3,a1
	or	a3,a2,a3
	sb	a3,12(a5)
	srli	a3,a4,40
	andi	a1,a3,255
	lbu	a3,13(a5)
	andi	a3,a3,0
	mv	a2,a3
	mv	a3,a1
	or	a3,a2,a3
	sb	a3,13(a5)
	srli	a3,a4,48
	andi	a1,a3,255
	lbu	a3,14(a5)
	andi	a3,a3,0
	mv	a2,a3
	mv	a3,a1
	or	a3,a2,a3
	sb	a3,14(a5)
	srli	a2,a4,56
	lbu	a4,15(a5)
	andi	a4,a4,0
	mv	a3,a4
	mv	a4,a2
	or	a4,a3,a4
	sb	a4,15(a5)
	.loc 1 1181 10
	ld	a5,-32(s0)
	.loc 1 1182 1
	mv	a0,a5
	ld	ra,40(sp)
	.cfi_restore 1
	ld	s0,32(sp)
	.cfi_restore 8
	.cfi_def_cfa 2, 48
	addi	sp,sp,48
	.cfi_def_cfa_offset 0
	jr	ra
	.cfi_endproc
.LFE37:
	.size	DevPathFromText1394, .-DevPathFromText1394
	.section	.text.DevPathFromTextUsb,"ax",@progbits
	.align	1
	.globl	DevPathFromTextUsb
	.type	DevPathFromTextUsb, @function
DevPathFromTextUsb:
.LFB38:
	.loc 1 1196 1
	.cfi_startproc
	addi	sp,sp,-64
	.cfi_def_cfa_offset 64
	sd	ra,56(sp)
	sd	s0,48(sp)
	.cfi_offset 1, -8
	.cfi_offset 8, -16
	addi	s0,sp,64
	.cfi_def_cfa 8, 0
	sd	a0,-56(s0)
	.loc 1 1201 13
	addi	a5,s0,-56
	mv	a0,a5
	call	GetNextParamStr
	sd	a0,-24(s0)
	.loc 1 1202 18
	addi	a5,s0,-56
	mv	a0,a5
	call	GetNextParamStr
	sd	a0,-32(s0)
	.loc 1 1203 29
	li	a2,6
	li	a1,5
	li	a0,3
	call	CreateDeviceNode
	sd	a0,-40(s0)
	.loc 1 1209 35
	ld	a0,-24(s0)
	call	Strtoi
	mv	a5,a0
	.loc 1 1209 27
	andi	a4,a5,0xff
	.loc 1 1209 25
	ld	a5,-40(s0)
	sb	a4,4(a5)
	.loc 1 1210 34
	ld	a0,-32(s0)
	call	Strtoi
	mv	a5,a0
	.loc 1 1210 26
	andi	a4,a5,0xff
	.loc 1 1210 24
	ld	a5,-40(s0)
	sb	a4,5(a5)
	.loc 1 1212 10
	ld	a5,-40(s0)
	.loc 1 1213 1
	mv	a0,a5
	ld	ra,56(sp)
	.cfi_restore 1
	ld	s0,48(sp)
	.cfi_restore 8
	.cfi_def_cfa 2, 64
	addi	sp,sp,64
	.cfi_def_cfa_offset 0
	jr	ra
	.cfi_endproc
.LFE38:
	.size	DevPathFromTextUsb, .-DevPathFromTextUsb
	.section	.text.DevPathFromTextI2O,"ax",@progbits
	.align	1
	.globl	DevPathFromTextI2O
	.type	DevPathFromTextI2O, @function
DevPathFromTextI2O:
.LFB39:
	.loc 1 1227 1
	.cfi_startproc
	addi	sp,sp,-48
	.cfi_def_cfa_offset 48
	sd	ra,40(sp)
	sd	s0,32(sp)
	.cfi_offset 1, -8
	.cfi_offset 8, -16
	addi	s0,sp,48
	.cfi_def_cfa 8, 0
	sd	a0,-40(s0)
	.loc 1 1231 12
	addi	a5,s0,-40
	mv	a0,a5
	call	GetNextParamStr
	sd	a0,-24(s0)
	.loc 1 1232 36
	li	a2,8
	li	a1,6
	li	a0,3
	call	CreateDeviceNode
	sd	a0,-32(s0)
	.loc 1 1238 30
	ld	a0,-24(s0)
	call	Strtoi
	mv	a5,a0
	.loc 1 1238 21
	sext.w	a4,a5
	.loc 1 1238 19
	ld	a5,-32(s0)
	slli	a3,a4,32
	srli	a3,a3,32
	andi	a1,a3,255
	lbu	a3,4(a5)
	andi	a3,a3,0
	mv	a2,a3
	mv	a3,a1
	or	a3,a2,a3
	sb	a3,4(a5)
	srliw	a3,a4,8
	slli	a3,a3,32
	srli	a3,a3,32
	andi	a1,a3,255
	lbu	a3,5(a5)
	andi	a3,a3,0
	mv	a2,a3
	mv	a3,a1
	or	a3,a2,a3
	sb	a3,5(a5)
	srliw	a3,a4,16
	slli	a3,a3,32
	srli	a3,a3,32
	andi	a1,a3,255
	lbu	a3,6(a5)
	andi	a3,a3,0
	mv	a2,a3
	mv	a3,a1
	or	a3,a2,a3
	sb	a3,6(a5)
	srliw	a4,a4,24
	slli	a2,a4,32
	srli	a2,a2,32
	lbu	a4,7(a5)
	andi	a4,a4,0
	mv	a3,a4
	mv	a4,a2
	or	a4,a3,a4
	sb	a4,7(a5)
	.loc 1 1240 10
	ld	a5,-32(s0)
	.loc 1 1241 1
	mv	a0,a5
	ld	ra,40(sp)
	.cfi_restore 1
	ld	s0,32(sp)
	.cfi_restore 8
	.cfi_def_cfa 2, 48
	addi	sp,sp,48
	.cfi_def_cfa_offset 0
	jr	ra
	.cfi_endproc
.LFE39:
	.size	DevPathFromTextI2O, .-DevPathFromTextI2O
	.section	.text.DevPathFromTextInfiniband,"ax",@progbits
	.align	1
	.globl	DevPathFromTextInfiniband
	.type	DevPathFromTextInfiniband, @function
DevPathFromTextInfiniband:
.LFB40:
	.loc 1 1255 1
	.cfi_startproc
	addi	sp,sp,-80
	.cfi_def_cfa_offset 80
	sd	ra,72(sp)
	sd	s0,64(sp)
	.cfi_offset 1, -8
	.cfi_offset 8, -16
	addi	s0,sp,80
	.cfi_def_cfa 8, 0
	sd	a0,-72(s0)
	.loc 1 1263 14
	addi	a5,s0,-72
	mv	a0,a5
	call	GetNextParamStr
	sd	a0,-24(s0)
	.loc 1 1264 13
	addi	a5,s0,-72
	mv	a0,a5
	call	GetNextParamStr
	sd	a0,-32(s0)
	.loc 1 1265 12
	addi	a5,s0,-72
	mv	a0,a5
	call	GetNextParamStr
	sd	a0,-40(s0)
	.loc 1 1266 12
	addi	a5,s0,-72
	mv	a0,a5
	call	GetNextParamStr
	sd	a0,-48(s0)
	.loc 1 1267 12
	addi	a5,s0,-72
	mv	a0,a5
	call	GetNextParamStr
	sd	a0,-56(s0)
	.loc 1 1268 43
	li	a2,48
	li	a1,9
	li	a0,3
	call	CreateDeviceNode
	sd	a0,-64(s0)
	.loc 1 1274 40
	ld	a0,-24(s0)
	call	Strtoi
	mv	a5,a0
	.loc 1 1274 31
	sext.w	a4,a5
	.loc 1 1274 29
	ld	a5,-64(s0)
	slli	a3,a4,32
	srli	a3,a3,32
	andi	a1,a3,255
	lbu	a3,4(a5)
	andi	a3,a3,0
	mv	a2,a3
	mv	a3,a1
	or	a3,a2,a3
	sb	a3,4(a5)
	srliw	a3,a4,8
	slli	a3,a3,32
	srli	a3,a3,32
	andi	a1,a3,255
	lbu	a3,5(a5)
	andi	a3,a3,0
	mv	a2,a3
	mv	a3,a1
	or	a3,a2,a3
	sb	a3,5(a5)
	srliw	a3,a4,16
	slli	a3,a3,32
	srli	a3,a3,32
	andi	a1,a3,255
	lbu	a3,6(a5)
	andi	a3,a3,0
	mv	a2,a3
	mv	a3,a1
	or	a3,a2,a3
	sb	a3,6(a5)
	srliw	a4,a4,24
	slli	a2,a4,32
	srli	a2,a2,32
	lbu	a4,7(a5)
	andi	a4,a4,0
	mv	a3,a4
	mv	a4,a2
	or	a4,a3,a4
	sb	a4,7(a5)
	.loc 1 1275 36
	ld	a5,-64(s0)
	addi	a5,a5,8
	.loc 1 1275 3
	mv	a1,a5
	ld	a0,-32(s0)
	call	StrToGuid
	.loc 1 1276 3
	ld	a5,-64(s0)
	addi	a5,a5,24
	mv	a1,a5
	ld	a0,-40(s0)
	call	Strtoi64
	.loc 1 1277 3
	ld	a5,-64(s0)
	addi	a5,a5,32
	mv	a1,a5
	ld	a0,-48(s0)
	call	Strtoi64
	.loc 1 1278 3
	ld	a5,-64(s0)
	addi	a5,a5,40
	mv	a1,a5
	ld	a0,-56(s0)
	call	Strtoi64
	.loc 1 1280 10
	ld	a5,-64(s0)
	.loc 1 1281 1
	mv	a0,a5
	ld	ra,72(sp)
	.cfi_restore 1
	ld	s0,64(sp)
	.cfi_restore 8
	.cfi_def_cfa 2, 80
	addi	sp,sp,80
	.cfi_def_cfa_offset 0
	jr	ra
	.cfi_endproc
.LFE40:
	.size	DevPathFromTextInfiniband, .-DevPathFromTextInfiniband
	.section	.text.DevPathFromTextVenMsg,"ax",@progbits
	.align	1
	.globl	DevPathFromTextVenMsg
	.type	DevPathFromTextVenMsg, @function
DevPathFromTextVenMsg:
.LFB41:
	.loc 1 1295 1
	.cfi_startproc
	addi	sp,sp,-32
	.cfi_def_cfa_offset 32
	sd	ra,24(sp)
	sd	s0,16(sp)
	.cfi_offset 1, -8
	.cfi_offset 8, -16
	addi	s0,sp,32
	.cfi_def_cfa 8, 0
	sd	a0,-24(s0)
	.loc 1 1296 10
	li	a2,10
	li	a1,3
	ld	a0,-24(s0)
	call	ConvertFromTextVendor
	mv	a5,a0
	.loc 1 1301 1
	mv	a0,a5
	ld	ra,24(sp)
	.cfi_restore 1
	ld	s0,16(sp)
	.cfi_restore 8
	.cfi_def_cfa 2, 32
	addi	sp,sp,32
	.cfi_def_cfa_offset 0
	jr	ra
	.cfi_endproc
.LFE41:
	.size	DevPathFromTextVenMsg, .-DevPathFromTextVenMsg
	.section	.text.DevPathFromTextVenPcAnsi,"ax",@progbits
	.align	1
	.globl	DevPathFromTextVenPcAnsi
	.type	DevPathFromTextVenPcAnsi, @function
DevPathFromTextVenPcAnsi:
.LFB42:
	.loc 1 1315 1
	.cfi_startproc
	addi	sp,sp,-48
	.cfi_def_cfa_offset 48
	sd	ra,40(sp)
	sd	s0,32(sp)
	.cfi_offset 1, -8
	.cfi_offset 8, -16
	addi	s0,sp,48
	.cfi_def_cfa 8, 0
	sd	a0,-40(s0)
	.loc 1 1318 35
	li	a2,20
	li	a1,10
	li	a0,3
	call	CreateDeviceNode
	sd	a0,-24(s0)
	.loc 1 1322 13
	ld	a5,-24(s0)
	addi	a5,a5,4
	.loc 1 1322 3
	lla	a1,gEfiPcAnsiGuid
	mv	a0,a5
	call	CopyGuid
	.loc 1 1324 10
	ld	a5,-24(s0)
	.loc 1 1325 1
	mv	a0,a5
	ld	ra,40(sp)
	.cfi_restore 1
	ld	s0,32(sp)
	.cfi_restore 8
	.cfi_def_cfa 2, 48
	addi	sp,sp,48
	.cfi_def_cfa_offset 0
	jr	ra
	.cfi_endproc
.LFE42:
	.size	DevPathFromTextVenPcAnsi, .-DevPathFromTextVenPcAnsi
	.section	.text.DevPathFromTextVenVt100,"ax",@progbits
	.align	1
	.globl	DevPathFromTextVenVt100
	.type	DevPathFromTextVenVt100, @function
DevPathFromTextVenVt100:
.LFB43:
	.loc 1 1339 1
	.cfi_startproc
	addi	sp,sp,-48
	.cfi_def_cfa_offset 48
	sd	ra,40(sp)
	sd	s0,32(sp)
	.cfi_offset 1, -8
	.cfi_offset 8, -16
	addi	s0,sp,48
	.cfi_def_cfa 8, 0
	sd	a0,-40(s0)
	.loc 1 1342 35
	li	a2,20
	li	a1,10
	li	a0,3
	call	CreateDeviceNode
	sd	a0,-24(s0)
	.loc 1 1346 13
	ld	a5,-24(s0)
	addi	a5,a5,4
	.loc 1 1346 3
	lla	a1,gEfiVT100Guid
	mv	a0,a5
	call	CopyGuid
	.loc 1 1348 10
	ld	a5,-24(s0)
	.loc 1 1349 1
	mv	a0,a5
	ld	ra,40(sp)
	.cfi_restore 1
	ld	s0,32(sp)
	.cfi_restore 8
	.cfi_def_cfa 2, 48
	addi	sp,sp,48
	.cfi_def_cfa_offset 0
	jr	ra
	.cfi_endproc
.LFE43:
	.size	DevPathFromTextVenVt100, .-DevPathFromTextVenVt100
	.section	.text.DevPathFromTextVenVt100Plus,"ax",@progbits
	.align	1
	.globl	DevPathFromTextVenVt100Plus
	.type	DevPathFromTextVenVt100Plus, @function
DevPathFromTextVenVt100Plus:
.LFB44:
	.loc 1 1363 1
	.cfi_startproc
	addi	sp,sp,-48
	.cfi_def_cfa_offset 48
	sd	ra,40(sp)
	sd	s0,32(sp)
	.cfi_offset 1, -8
	.cfi_offset 8, -16
	addi	s0,sp,48
	.cfi_def_cfa 8, 0
	sd	a0,-40(s0)
	.loc 1 1366 35
	li	a2,20
	li	a1,10
	li	a0,3
	call	CreateDeviceNode
	sd	a0,-24(s0)
	.loc 1 1370 13
	ld	a5,-24(s0)
	addi	a5,a5,4
	.loc 1 1370 3
	lla	a1,gEfiVT100PlusGuid
	mv	a0,a5
	call	CopyGuid
	.loc 1 1372 10
	ld	a5,-24(s0)
	.loc 1 1373 1
	mv	a0,a5
	ld	ra,40(sp)
	.cfi_restore 1
	ld	s0,32(sp)
	.cfi_restore 8
	.cfi_def_cfa 2, 48
	addi	sp,sp,48
	.cfi_def_cfa_offset 0
	jr	ra
	.cfi_endproc
.LFE44:
	.size	DevPathFromTextVenVt100Plus, .-DevPathFromTextVenVt100Plus
	.section	.text.DevPathFromTextVenUtf8,"ax",@progbits
	.align	1
	.globl	DevPathFromTextVenUtf8
	.type	DevPathFromTextVenUtf8, @function
DevPathFromTextVenUtf8:
.LFB45:
	.loc 1 1387 1
	.cfi_startproc
	addi	sp,sp,-48
	.cfi_def_cfa_offset 48
	sd	ra,40(sp)
	sd	s0,32(sp)
	.cfi_offset 1, -8
	.cfi_offset 8, -16
	addi	s0,sp,48
	.cfi_def_cfa 8, 0
	sd	a0,-40(s0)
	.loc 1 1390 35
	li	a2,20
	li	a1,10
	li	a0,3
	call	CreateDeviceNode
	sd	a0,-24(s0)
	.loc 1 1394 13
	ld	a5,-24(s0)
	addi	a5,a5,4
	.loc 1 1394 3
	lla	a1,gEfiVTUTF8Guid
	mv	a0,a5
	call	CopyGuid
	.loc 1 1396 10
	ld	a5,-24(s0)
	.loc 1 1397 1
	mv	a0,a5
	ld	ra,40(sp)
	.cfi_restore 1
	ld	s0,32(sp)
	.cfi_restore 8
	.cfi_def_cfa 2, 48
	addi	sp,sp,48
	.cfi_def_cfa_offset 0
	jr	ra
	.cfi_endproc
.LFE45:
	.size	DevPathFromTextVenUtf8, .-DevPathFromTextVenUtf8
	.section	.rodata
	.align	3
.LC6:
	.string	"X"
	.string	"o"
	.string	"n"
	.string	"X"
	.string	"o"
	.string	"f"
	.string	"f"
	.string	""
	.string	""
	.align	3
.LC7:
	.string	"H"
	.string	"a"
	.string	"r"
	.string	"d"
	.string	"w"
	.string	"a"
	.string	"r"
	.string	"e"
	.string	""
	.string	""
	.section	.text.DevPathFromTextUartFlowCtrl,"ax",@progbits
	.align	1
	.globl	DevPathFromTextUartFlowCtrl
	.type	DevPathFromTextUartFlowCtrl, @function
DevPathFromTextUartFlowCtrl:
.LFB46:
	.loc 1 1411 1
	.cfi_startproc
	addi	sp,sp,-48
	.cfi_def_cfa_offset 48
	sd	ra,40(sp)
	sd	s0,32(sp)
	.cfi_offset 1, -8
	.cfi_offset 8, -16
	addi	s0,sp,48
	.cfi_def_cfa 8, 0
	sd	a0,-40(s0)
	.loc 1 1415 14
	addi	a5,s0,-40
	mv	a0,a5
	call	GetNextParamStr
	sd	a0,-24(s0)
	.loc 1 1416 55
	li	a2,24
	li	a1,10
	li	a0,3
	call	CreateDeviceNode
	sd	a0,-32(s0)
	.loc 1 1422 13
	ld	a5,-32(s0)
	addi	a5,a5,4
	.loc 1 1422 3
	lla	a1,gEfiUartDevicePathGuid
	mv	a0,a5
	call	CopyGuid
	.loc 1 1423 7
	lla	a1,.LC6
	ld	a0,-24(s0)
	call	StrCmp
	mv	a5,a0
	.loc 1 1423 6
	bne	a5,zero,.L159
	.loc 1 1424 37
	ld	a5,-32(s0)
	lbu	a4,20(a5)
	andi	a4,a4,0
	ori	a4,a4,2
	sb	a4,20(a5)
	lbu	a4,21(a5)
	andi	a4,a4,0
	sb	a4,21(a5)
	lbu	a4,22(a5)
	andi	a4,a4,0
	sb	a4,22(a5)
	lbu	a4,23(a5)
	andi	a4,a4,0
	sb	a4,23(a5)
	j	.L160
.L159:
	.loc 1 1425 14
	lla	a1,.LC7
	ld	a0,-24(s0)
	call	StrCmp
	mv	a5,a0
	.loc 1 1425 13
	bne	a5,zero,.L161
	.loc 1 1426 37
	ld	a5,-32(s0)
	lbu	a4,20(a5)
	andi	a4,a4,0
	ori	a4,a4,1
	sb	a4,20(a5)
	lbu	a4,21(a5)
	andi	a4,a4,0
	sb	a4,21(a5)
	lbu	a4,22(a5)
	andi	a4,a4,0
	sb	a4,22(a5)
	lbu	a4,23(a5)
	andi	a4,a4,0
	sb	a4,23(a5)
	j	.L160
.L161:
	.loc 1 1428 37
	ld	a5,-32(s0)
	lbu	a4,20(a5)
	andi	a4,a4,0
	sb	a4,20(a5)
	lbu	a4,21(a5)
	andi	a4,a4,0
	sb	a4,21(a5)
	lbu	a4,22(a5)
	andi	a4,a4,0
	sb	a4,22(a5)
	lbu	a4,23(a5)
	andi	a4,a4,0
	sb	a4,23(a5)
.L160:
	.loc 1 1431 10
	ld	a5,-32(s0)
	.loc 1 1432 1
	mv	a0,a5
	ld	ra,40(sp)
	.cfi_restore 1
	ld	s0,32(sp)
	.cfi_restore 8
	.cfi_def_cfa 2, 48
	addi	sp,sp,48
	.cfi_def_cfa_offset 0
	jr	ra
	.cfi_endproc
.LFE46:
	.size	DevPathFromTextUartFlowCtrl, .-DevPathFromTextUartFlowCtrl
	.section	.rodata
	.align	3
.LC8:
	.string	"N"
	.string	"o"
	.string	"T"
	.string	"o"
	.string	"p"
	.string	"o"
	.string	"l"
	.string	"o"
	.string	"g"
	.string	"y"
	.string	""
	.string	""
	.align	3
.LC9:
	.string	"S"
	.string	"A"
	.string	"T"
	.string	"A"
	.string	""
	.string	""
	.align	3
.LC10:
	.string	"S"
	.string	"A"
	.string	"S"
	.string	""
	.string	""
	.align	3
.LC11:
	.string	"E"
	.string	"x"
	.string	"t"
	.string	"e"
	.string	"r"
	.string	"n"
	.string	"a"
	.string	"l"
	.string	""
	.string	""
	.align	3
.LC12:
	.string	"I"
	.string	"n"
	.string	"t"
	.string	"e"
	.string	"r"
	.string	"n"
	.string	"a"
	.string	"l"
	.string	""
	.string	""
	.align	3
.LC13:
	.string	"E"
	.string	"x"
	.string	"p"
	.string	"a"
	.string	"n"
	.string	"d"
	.string	"e"
	.string	"d"
	.string	""
	.string	""
	.align	3
.LC14:
	.string	"D"
	.string	"i"
	.string	"r"
	.string	"e"
	.string	"c"
	.string	"t"
	.string	""
	.string	""
	.section	.text.DevPathFromTextSAS,"ax",@progbits
	.align	1
	.globl	DevPathFromTextSAS
	.type	DevPathFromTextSAS, @function
DevPathFromTextSAS:
.LFB47:
	.loc 1 1446 1
	.cfi_startproc
	addi	sp,sp,-112
	.cfi_def_cfa_offset 112
	sd	ra,104(sp)
	sd	s0,96(sp)
	.cfi_offset 1, -8
	.cfi_offset 8, -16
	addi	s0,sp,112
	.cfi_def_cfa 8, 0
	sd	a0,-104(s0)
	.loc 1 1459 16
	addi	a5,s0,-104
	mv	a0,a5
	call	GetNextParamStr
	sd	a0,-32(s0)
	.loc 1 1460 12
	addi	a5,s0,-104
	mv	a0,a5
	call	GetNextParamStr
	sd	a0,-40(s0)
	.loc 1 1461 12
	addi	a5,s0,-104
	mv	a0,a5
	call	GetNextParamStr
	sd	a0,-48(s0)
	.loc 1 1462 16
	addi	a5,s0,-104
	mv	a0,a5
	call	GetNextParamStr
	sd	a0,-56(s0)
	.loc 1 1463 17
	addi	a5,s0,-104
	mv	a0,a5
	call	GetNextParamStr
	sd	a0,-64(s0)
	.loc 1 1464 16
	addi	a5,s0,-104
	mv	a0,a5
	call	GetNextParamStr
	sd	a0,-72(s0)
	.loc 1 1465 17
	addi	a5,s0,-104
	mv	a0,a5
	call	GetNextParamStr
	sd	a0,-80(s0)
	.loc 1 1466 17
	addi	a5,s0,-104
	mv	a0,a5
	call	GetNextParamStr
	sd	a0,-88(s0)
	.loc 1 1467 29
	li	a2,44
	li	a1,10
	li	a0,3
	call	CreateDeviceNode
	sd	a0,-96(s0)
	.loc 1 1473 13
	ld	a5,-96(s0)
	addi	a5,a5,4
	.loc 1 1473 3
	lla	a1,gEfiSasDevicePathGuid
	mv	a0,a5
	call	CopyGuid
	.loc 1 1474 3
	ld	a5,-96(s0)
	addi	a5,a5,24
	mv	a1,a5
	ld	a0,-32(s0)
	call	Strtoi64
	.loc 1 1475 3
	ld	a5,-96(s0)
	addi	a5,a5,32
	mv	a1,a5
	ld	a0,-40(s0)
	call	Strtoi64
	.loc 1 1476 38
	ld	a0,-48(s0)
	call	Strtoi
	mv	a5,a0
	.loc 1 1476 29
	slli	a4,a5,48
	srli	a4,a4,48
	.loc 1 1476 27
	ld	a5,-96(s0)
	andi	a1,a4,255
	lbu	a3,42(a5)
	andi	a3,a3,0
	mv	a2,a3
	mv	a3,a1
	or	a3,a2,a3
	sb	a3,42(a5)
	srliw	a4,a4,8
	slli	a2,a4,48
	srli	a2,a2,48
	lbu	a4,43(a5)
	andi	a4,a4,0
	mv	a3,a4
	mv	a4,a2
	or	a4,a3,a4
	sb	a4,43(a5)
	.loc 1 1478 7
	lla	a1,.LC8
	ld	a0,-56(s0)
	call	StrCmp
	mv	a5,a0
	.loc 1 1478 6
	bne	a5,zero,.L164
	.loc 1 1479 10
	sh	zero,-18(s0)
	j	.L165
.L164:
	.loc 1 1481 15
	lla	a1,.LC9
	ld	a0,-56(s0)
	call	StrCmp
	mv	a5,a0
	.loc 1 1481 13
	beq	a5,zero,.L166
	.loc 1 1481 54 discriminator 1
	lla	a1,.LC10
	ld	a0,-56(s0)
	call	StrCmp
	mv	a5,a0
	.loc 1 1481 50 discriminator 1
	bne	a5,zero,.L167
.L166:
	.loc 1 1483 23
	ld	a0,-80(s0)
	call	Strtoi
	mv	a5,a0
	.loc 1 1483 12
	sh	a5,-20(s0)
	.loc 1 1484 8
	lhu	a5,-20(s0)
	sext.w	a5,a5
	bne	a5,zero,.L168
	.loc 1 1485 12
	li	a5,1
	sh	a5,-18(s0)
	j	.L169
.L168:
	.loc 1 1487 39
	lhu	a5,-20(s0)
	sext.w	a5,a5
	addiw	a5,a5,-1
	sext.w	a5,a5
	.loc 1 1487 44
	slliw	a5,a5,8
	sext.w	a5,a5
	.loc 1 1487 28
	slliw	a5,a5,16
	sraiw	a5,a5,16
	ori	a5,a5,2
	slliw	a5,a5,16
	sraiw	a5,a5,16
	.loc 1 1487 12
	sh	a5,-18(s0)
.L169:
	.loc 1 1490 9
	lla	a1,.LC9
	ld	a0,-56(s0)
	call	StrCmp
	mv	a5,a0
	.loc 1 1490 8
	bne	a5,zero,.L170
	.loc 1 1491 12
	lhu	a5,-18(s0)
	ori	a5,a5,16
	sh	a5,-18(s0)
.L170:
	.loc 1 1498 9
	lla	a1,.LC11
	ld	a0,-64(s0)
	call	StrCmp
	mv	a5,a0
	.loc 1 1498 8
	bne	a5,zero,.L171
	.loc 1 1499 14
	li	a5,1
	sh	a5,-20(s0)
	j	.L172
.L171:
	.loc 1 1500 16
	lla	a1,.LC12
	ld	a0,-64(s0)
	call	StrCmp
	mv	a5,a0
	.loc 1 1500 15
	bne	a5,zero,.L173
	.loc 1 1501 14
	sh	zero,-20(s0)
	j	.L172
.L173:
	.loc 1 1503 26
	ld	a0,-64(s0)
	call	Strtoi
	mv	a5,a0
	.loc 1 1503 47
	slli	a5,a5,48
	srli	a5,a5,48
	.loc 1 1503 14
	andi	a5,a5,1
	sh	a5,-20(s0)
.L172:
	.loc 1 1505 21
	lhu	a5,-20(s0)
	sext.w	a5,a5
	slliw	a5,a5,5
	sext.w	a5,a5
	.loc 1 1505 10
	slliw	a4,a5,16
	sraiw	a4,a4,16
	lh	a5,-18(s0)
	or	a5,a4,a5
	slliw	a5,a5,16
	sraiw	a5,a5,16
	sh	a5,-18(s0)
	.loc 1 1511 9
	lla	a1,.LC13
	ld	a0,-72(s0)
	call	StrCmp
	mv	a5,a0
	.loc 1 1511 8
	bne	a5,zero,.L174
	.loc 1 1512 14
	li	a5,1
	sh	a5,-20(s0)
	j	.L175
.L174:
	.loc 1 1513 16
	lla	a1,.LC14
	ld	a0,-72(s0)
	call	StrCmp
	mv	a5,a0
	.loc 1 1513 15
	bne	a5,zero,.L176
	.loc 1 1514 14
	sh	zero,-20(s0)
	j	.L175
.L176:
	.loc 1 1516 26
	ld	a0,-72(s0)
	call	Strtoi
	mv	a5,a0
	.loc 1 1516 46
	slli	a5,a5,48
	srli	a5,a5,48
	.loc 1 1516 14
	andi	a5,a5,3
	sh	a5,-20(s0)
.L175:
	.loc 1 1518 21
	lhu	a5,-20(s0)
	sext.w	a5,a5
	slliw	a5,a5,6
	sext.w	a5,a5
	.loc 1 1518 10
	slliw	a4,a5,16
	sraiw	a4,a4,16
	lh	a5,-18(s0)
	or	a5,a4,a5
	slliw	a5,a5,16
	sraiw	a5,a5,16
	sh	a5,-18(s0)
	j	.L165
.L167:
	.loc 1 1521 21
	ld	a0,-56(s0)
	call	Strtoi
	mv	a5,a0
	.loc 1 1521 10
	sh	a5,-18(s0)
.L165:
	.loc 1 1524 23
	ld	a5,-96(s0)
	lhu	a4,-18(s0)
	andi	a2,a4,255
	lbu	a4,40(a5)
	andi	a4,a4,0
	mv	a3,a4
	mv	a4,a2
	or	a4,a3,a4
	sb	a4,40(a5)
	lhu	a4,-18(s0)
	srliw	a4,a4,8
	slli	a2,a4,48
	srli	a2,a2,48
	lbu	a4,41(a5)
	andi	a4,a4,0
	mv	a3,a4
	mv	a4,a2
	or	a4,a3,a4
	sb	a4,41(a5)
	.loc 1 1525 28
	ld	a0,-88(s0)
	call	Strtoi
	mv	a5,a0
	.loc 1 1525 19
	sext.w	a4,a5
	.loc 1 1525 17
	ld	a5,-96(s0)
	slli	a3,a4,32
	srli	a3,a3,32
	andi	a1,a3,255
	lbu	a3,20(a5)
	andi	a3,a3,0
	mv	a2,a3
	mv	a3,a1
	or	a3,a2,a3
	sb	a3,20(a5)
	srliw	a3,a4,8
	slli	a3,a3,32
	srli	a3,a3,32
	andi	a1,a3,255
	lbu	a3,21(a5)
	andi	a3,a3,0
	mv	a2,a3
	mv	a3,a1
	or	a3,a2,a3
	sb	a3,21(a5)
	srliw	a3,a4,16
	slli	a3,a3,32
	srli	a3,a3,32
	andi	a1,a3,255
	lbu	a3,22(a5)
	andi	a3,a3,0
	mv	a2,a3
	mv	a3,a1
	or	a3,a2,a3
	sb	a3,22(a5)
	srliw	a4,a4,24
	slli	a2,a4,32
	srli	a2,a2,32
	lbu	a4,23(a5)
	andi	a4,a4,0
	mv	a3,a4
	mv	a4,a2
	or	a4,a3,a4
	sb	a4,23(a5)
	.loc 1 1527 10
	ld	a5,-96(s0)
	.loc 1 1528 1
	mv	a0,a5
	ld	ra,104(sp)
	.cfi_restore 1
	ld	s0,96(sp)
	.cfi_restore 8
	.cfi_def_cfa 2, 112
	addi	sp,sp,112
	.cfi_def_cfa_offset 0
	jr	ra
	.cfi_endproc
.LFE47:
	.size	DevPathFromTextSAS, .-DevPathFromTextSAS
	.section	.text.DevPathFromTextSasEx,"ax",@progbits
	.align	1
	.globl	DevPathFromTextSasEx
	.type	DevPathFromTextSasEx, @function
DevPathFromTextSasEx:
.LFB48:
	.loc 1 1542 1
	.cfi_startproc
	addi	sp,sp,-144
	.cfi_def_cfa_offset 144
	sd	ra,136(sp)
	sd	s0,128(sp)
	sd	s1,120(sp)
	.cfi_offset 1, -8
	.cfi_offset 8, -16
	.cfi_offset 9, -24
	addi	s0,sp,144
	.cfi_def_cfa 8, 0
	sd	a0,-136(s0)
	.loc 1 1556 16
	addi	a5,s0,-136
	mv	a0,a5
	call	GetNextParamStr
	sd	a0,-48(s0)
	.loc 1 1557 12
	addi	a5,s0,-136
	mv	a0,a5
	call	GetNextParamStr
	sd	a0,-56(s0)
	.loc 1 1558 12
	addi	a5,s0,-136
	mv	a0,a5
	call	GetNextParamStr
	sd	a0,-64(s0)
	.loc 1 1559 16
	addi	a5,s0,-136
	mv	a0,a5
	call	GetNextParamStr
	sd	a0,-72(s0)
	.loc 1 1560 17
	addi	a5,s0,-136
	mv	a0,a5
	call	GetNextParamStr
	sd	a0,-80(s0)
	.loc 1 1561 16
	addi	a5,s0,-136
	mv	a0,a5
	call	GetNextParamStr
	sd	a0,-88(s0)
	.loc 1 1562 17
	addi	a5,s0,-136
	mv	a0,a5
	call	GetNextParamStr
	sd	a0,-96(s0)
	.loc 1 1563 33
	li	a2,24
	li	a1,22
	li	a0,3
	call	CreateDeviceNode
	sd	a0,-104(s0)
	.loc 1 1569 3
	addi	a5,s0,-112
	mv	a1,a5
	ld	a0,-48(s0)
	call	Strtoi64
	.loc 1 1570 3
	addi	a5,s0,-120
	mv	a1,a5
	ld	a0,-56(s0)
	call	Strtoi64
	.loc 1 1571 32
	ld	a5,-104(s0)
	addi	s1,a5,4
	.loc 1 1571 3
	ld	a5,-112(s0)
	mv	a0,a5
	call	SwapBytes64
	mv	a5,a0
	mv	a1,a5
	mv	a0,s1
	call	WriteUnaligned64
	.loc 1 1572 32
	ld	a5,-104(s0)
	addi	s1,a5,12
	.loc 1 1572 3
	ld	a5,-120(s0)
	mv	a0,a5
	call	SwapBytes64
	mv	a5,a0
	mv	a1,a5
	mv	a0,s1
	call	WriteUnaligned64
	.loc 1 1573 40
	ld	a0,-64(s0)
	call	Strtoi
	mv	a5,a0
	.loc 1 1573 31
	slli	a4,a5,48
	srli	a4,a4,48
	.loc 1 1573 29
	ld	a5,-104(s0)
	andi	a1,a4,255
	lbu	a3,22(a5)
	andi	a3,a3,0
	mv	a2,a3
	mv	a3,a1
	or	a3,a2,a3
	sb	a3,22(a5)
	srliw	a4,a4,8
	slli	a2,a4,48
	srli	a2,a2,48
	lbu	a4,23(a5)
	andi	a4,a4,0
	mv	a3,a4
	mv	a4,a2
	or	a4,a3,a4
	sb	a4,23(a5)
	.loc 1 1575 7
	lla	a1,.LC8
	ld	a0,-72(s0)
	call	StrCmp
	mv	a5,a0
	.loc 1 1575 6
	bne	a5,zero,.L179
	.loc 1 1576 10
	sh	zero,-34(s0)
	j	.L180
.L179:
	.loc 1 1578 15
	lla	a1,.LC9
	ld	a0,-72(s0)
	call	StrCmp
	mv	a5,a0
	.loc 1 1578 13
	beq	a5,zero,.L181
	.loc 1 1578 54 discriminator 1
	lla	a1,.LC10
	ld	a0,-72(s0)
	call	StrCmp
	mv	a5,a0
	.loc 1 1578 50 discriminator 1
	bne	a5,zero,.L182
.L181:
	.loc 1 1580 23
	ld	a0,-96(s0)
	call	Strtoi
	mv	a5,a0
	.loc 1 1580 12
	sh	a5,-36(s0)
	.loc 1 1581 8
	lhu	a5,-36(s0)
	sext.w	a5,a5
	bne	a5,zero,.L183
	.loc 1 1582 12
	li	a5,1
	sh	a5,-34(s0)
	j	.L184
.L183:
	.loc 1 1584 39
	lhu	a5,-36(s0)
	sext.w	a5,a5
	addiw	a5,a5,-1
	sext.w	a5,a5
	.loc 1 1584 44
	slliw	a5,a5,8
	sext.w	a5,a5
	.loc 1 1584 28
	slliw	a5,a5,16
	sraiw	a5,a5,16
	ori	a5,a5,2
	slliw	a5,a5,16
	sraiw	a5,a5,16
	.loc 1 1584 12
	sh	a5,-34(s0)
.L184:
	.loc 1 1587 9
	lla	a1,.LC9
	ld	a0,-72(s0)
	call	StrCmp
	mv	a5,a0
	.loc 1 1587 8
	bne	a5,zero,.L185
	.loc 1 1588 12
	lhu	a5,-34(s0)
	ori	a5,a5,16
	sh	a5,-34(s0)
.L185:
	.loc 1 1595 9
	lla	a1,.LC11
	ld	a0,-80(s0)
	call	StrCmp
	mv	a5,a0
	.loc 1 1595 8
	bne	a5,zero,.L186
	.loc 1 1596 14
	li	a5,1
	sh	a5,-36(s0)
	j	.L187
.L186:
	.loc 1 1597 16
	lla	a1,.LC12
	ld	a0,-80(s0)
	call	StrCmp
	mv	a5,a0
	.loc 1 1597 15
	bne	a5,zero,.L188
	.loc 1 1598 14
	sh	zero,-36(s0)
	j	.L187
.L188:
	.loc 1 1600 26
	ld	a0,-80(s0)
	call	Strtoi
	mv	a5,a0
	.loc 1 1600 47
	slli	a5,a5,48
	srli	a5,a5,48
	.loc 1 1600 14
	andi	a5,a5,1
	sh	a5,-36(s0)
.L187:
	.loc 1 1602 21
	lhu	a5,-36(s0)
	sext.w	a5,a5
	slliw	a5,a5,5
	sext.w	a5,a5
	.loc 1 1602 10
	slliw	a4,a5,16
	sraiw	a4,a4,16
	lh	a5,-34(s0)
	or	a5,a4,a5
	slliw	a5,a5,16
	sraiw	a5,a5,16
	sh	a5,-34(s0)
	.loc 1 1608 9
	lla	a1,.LC13
	ld	a0,-88(s0)
	call	StrCmp
	mv	a5,a0
	.loc 1 1608 8
	bne	a5,zero,.L189
	.loc 1 1609 14
	li	a5,1
	sh	a5,-36(s0)
	j	.L190
.L189:
	.loc 1 1610 16
	lla	a1,.LC14
	ld	a0,-88(s0)
	call	StrCmp
	mv	a5,a0
	.loc 1 1610 15
	bne	a5,zero,.L191
	.loc 1 1611 14
	sh	zero,-36(s0)
	j	.L190
.L191:
	.loc 1 1613 26
	ld	a0,-88(s0)
	call	Strtoi
	mv	a5,a0
	.loc 1 1613 46
	slli	a5,a5,48
	srli	a5,a5,48
	.loc 1 1613 14
	andi	a5,a5,3
	sh	a5,-36(s0)
.L190:
	.loc 1 1615 21
	lhu	a5,-36(s0)
	sext.w	a5,a5
	slliw	a5,a5,6
	sext.w	a5,a5
	.loc 1 1615 10
	slliw	a4,a5,16
	sraiw	a4,a4,16
	lh	a5,-34(s0)
	or	a5,a4,a5
	slliw	a5,a5,16
	sraiw	a5,a5,16
	sh	a5,-34(s0)
	j	.L180
.L182:
	.loc 1 1618 21
	ld	a0,-72(s0)
	call	Strtoi
	mv	a5,a0
	.loc 1 1618 10
	sh	a5,-34(s0)
.L180:
	.loc 1 1621 25
	ld	a5,-104(s0)
	lhu	a4,-34(s0)
	andi	a2,a4,255
	lbu	a4,20(a5)
	andi	a4,a4,0
	mv	a3,a4
	mv	a4,a2
	or	a4,a3,a4
	sb	a4,20(a5)
	lhu	a4,-34(s0)
	srliw	a4,a4,8
	slli	a2,a4,48
	srli	a2,a2,48
	lbu	a4,21(a5)
	andi	a4,a4,0
	mv	a3,a4
	mv	a4,a2
	or	a4,a3,a4
	sb	a4,21(a5)
	.loc 1 1623 10
	ld	a5,-104(s0)
	.loc 1 1624 1
	mv	a0,a5
	ld	ra,136(sp)
	.cfi_restore 1
	ld	s0,128(sp)
	.cfi_restore 8
	.cfi_def_cfa 2, 144
	ld	s1,120(sp)
	.cfi_restore 9
	addi	sp,sp,144
	.cfi_def_cfa_offset 0
	jr	ra
	.cfi_endproc
.LFE48:
	.size	DevPathFromTextSasEx, .-DevPathFromTextSasEx
	.section	.text.DevPathFromTextNVMe,"ax",@progbits
	.align	1
	.globl	DevPathFromTextNVMe
	.type	DevPathFromTextNVMe, @function
DevPathFromTextNVMe:
.LFB49:
	.loc 1 1638 1
	.cfi_startproc
	addi	sp,sp,-80
	.cfi_def_cfa_offset 80
	sd	ra,72(sp)
	sd	s0,64(sp)
	.cfi_offset 1, -8
	.cfi_offset 8, -16
	addi	s0,sp,80
	.cfi_def_cfa 8, 0
	sd	a0,-72(s0)
	.loc 1 1645 20
	addi	a5,s0,-72
	mv	a0,a5
	call	GetNextParamStr
	sd	a0,-32(s0)
	.loc 1 1646 22
	addi	a5,s0,-72
	mv	a0,a5
	call	GetNextParamStr
	mv	a5,a0
	.loc 1 1646 20
	sd	a5,-56(s0)
	.loc 1 1647 41
	li	a2,16
	li	a1,23
	li	a0,3
	call	CreateDeviceNode
	sd	a0,-40(s0)
	.loc 1 1653 32
	ld	a0,-32(s0)
	call	Strtoi
	mv	a5,a0
	.loc 1 1653 23
	sext.w	a4,a5
	.loc 1 1653 21
	ld	a5,-40(s0)
	slli	a3,a4,32
	srli	a3,a3,32
	andi	a1,a3,255
	lbu	a3,4(a5)
	andi	a3,a3,0
	mv	a2,a3
	mv	a3,a1
	or	a3,a2,a3
	sb	a3,4(a5)
	srliw	a3,a4,8
	slli	a3,a3,32
	srli	a3,a3,32
	andi	a1,a3,255
	lbu	a3,5(a5)
	andi	a3,a3,0
	mv	a2,a3
	mv	a3,a1
	or	a3,a2,a3
	sb	a3,5(a5)
	srliw	a3,a4,16
	slli	a3,a3,32
	srli	a3,a3,32
	andi	a1,a3,255
	lbu	a3,6(a5)
	andi	a3,a3,0
	mv	a2,a3
	mv	a3,a1
	or	a3,a2,a3
	sb	a3,6(a5)
	srliw	a4,a4,24
	slli	a2,a4,32
	srli	a2,a2,32
	lbu	a4,7(a5)
	andi	a4,a4,0
	mv	a3,a4
	mv	a4,a2
	or	a4,a3,a4
	sb	a4,7(a5)
	.loc 1 1654 8
	ld	a5,-40(s0)
	addi	a5,a5,8
	sd	a5,-48(s0)
	.loc 1 1656 9
	li	a5,8
	sd	a5,-24(s0)
	.loc 1 1657 9
	j	.L194
.L195:
	.loc 1 1658 42
	addi	a5,s0,-56
	li	a1,45
	mv	a0,a5
	call	SplitStr
	mv	a5,a0
	.loc 1 1658 27
	mv	a0,a5
	call	StrHexToUintn
	mv	a3,a0
	.loc 1 1658 9
	ld	a4,-48(s0)
	ld	a5,-24(s0)
	add	a5,a4,a5
	.loc 1 1658 19
	andi	a4,a3,0xff
	.loc 1 1658 17
	sb	a4,0(a5)
.L194:
	.loc 1 1657 15
	ld	a5,-24(s0)
	addi	a4,a5,-1
	sd	a4,-24(s0)
	.loc 1 1657 9
	bne	a5,zero,.L195
	.loc 1 1661 10
	ld	a5,-40(s0)
	.loc 1 1662 1
	mv	a0,a5
	ld	ra,72(sp)
	.cfi_restore 1
	ld	s0,64(sp)
	.cfi_restore 8
	.cfi_def_cfa 2, 80
	addi	sp,sp,80
	.cfi_def_cfa_offset 0
	jr	ra
	.cfi_endproc
.LFE49:
	.size	DevPathFromTextNVMe, .-DevPathFromTextNVMe
	.section	.text.DevPathFromTextUfs,"ax",@progbits
	.align	1
	.globl	DevPathFromTextUfs
	.type	DevPathFromTextUfs, @function
DevPathFromTextUfs:
.LFB50:
	.loc 1 1676 1
	.cfi_startproc
	addi	sp,sp,-64
	.cfi_def_cfa_offset 64
	sd	ra,56(sp)
	sd	s0,48(sp)
	.cfi_offset 1, -8
	.cfi_offset 8, -16
	addi	s0,sp,64
	.cfi_def_cfa 8, 0
	sd	a0,-56(s0)
	.loc 1 1681 12
	addi	a5,s0,-56
	mv	a0,a5
	call	GetNextParamStr
	sd	a0,-24(s0)
	.loc 1 1682 12
	addi	a5,s0,-56
	mv	a0,a5
	call	GetNextParamStr
	sd	a0,-32(s0)
	.loc 1 1683 29
	li	a2,6
	li	a1,25
	li	a0,3
	call	CreateDeviceNode
	sd	a0,-40(s0)
	.loc 1 1689 22
	ld	a0,-24(s0)
	call	Strtoi
	mv	a5,a0
	.loc 1 1689 14
	andi	a4,a5,0xff
	.loc 1 1689 12
	ld	a5,-40(s0)
	sb	a4,4(a5)
	.loc 1 1690 22
	ld	a0,-32(s0)
	call	Strtoi
	mv	a5,a0
	.loc 1 1690 14
	andi	a4,a5,0xff
	.loc 1 1690 12
	ld	a5,-40(s0)
	sb	a4,5(a5)
	.loc 1 1692 10
	ld	a5,-40(s0)
	.loc 1 1693 1
	mv	a0,a5
	ld	ra,56(sp)
	.cfi_restore 1
	ld	s0,48(sp)
	.cfi_restore 8
	.cfi_def_cfa 2, 64
	addi	sp,sp,64
	.cfi_def_cfa_offset 0
	jr	ra
	.cfi_endproc
.LFE50:
	.size	DevPathFromTextUfs, .-DevPathFromTextUfs
	.section	.text.DevPathFromTextSd,"ax",@progbits
	.align	1
	.globl	DevPathFromTextSd
	.type	DevPathFromTextSd, @function
DevPathFromTextSd:
.LFB51:
	.loc 1 1707 1
	.cfi_startproc
	addi	sp,sp,-48
	.cfi_def_cfa_offset 48
	sd	ra,40(sp)
	sd	s0,32(sp)
	.cfi_offset 1, -8
	.cfi_offset 8, -16
	addi	s0,sp,48
	.cfi_def_cfa 8, 0
	sd	a0,-40(s0)
	.loc 1 1711 19
	addi	a5,s0,-40
	mv	a0,a5
	call	GetNextParamStr
	sd	a0,-24(s0)
	.loc 1 1712 27
	li	a2,5
	li	a1,26
	li	a0,3
	call	CreateDeviceNode
	sd	a0,-32(s0)
	.loc 1 1718 28
	ld	a0,-24(s0)
	call	Strtoi
	mv	a5,a0
	.loc 1 1718 20
	andi	a4,a5,0xff
	.loc 1 1718 18
	ld	a5,-32(s0)
	sb	a4,4(a5)
	.loc 1 1720 10
	ld	a5,-32(s0)
	.loc 1 1721 1
	mv	a0,a5
	ld	ra,40(sp)
	.cfi_restore 1
	ld	s0,32(sp)
	.cfi_restore 8
	.cfi_def_cfa 2, 48
	addi	sp,sp,48
	.cfi_def_cfa_offset 0
	jr	ra
	.cfi_endproc
.LFE51:
	.size	DevPathFromTextSd, .-DevPathFromTextSd
	.section	.text.DevPathFromTextEmmc,"ax",@progbits
	.align	1
	.globl	DevPathFromTextEmmc
	.type	DevPathFromTextEmmc, @function
DevPathFromTextEmmc:
.LFB52:
	.loc 1 1735 1
	.cfi_startproc
	addi	sp,sp,-48
	.cfi_def_cfa_offset 48
	sd	ra,40(sp)
	sd	s0,32(sp)
	.cfi_offset 1, -8
	.cfi_offset 8, -16
	addi	s0,sp,48
	.cfi_def_cfa 8, 0
	sd	a0,-40(s0)
	.loc 1 1739 19
	addi	a5,s0,-40
	mv	a0,a5
	call	GetNextParamStr
	sd	a0,-24(s0)
	.loc 1 1740 31
	li	a2,5
	li	a1,29
	li	a0,3
	call	CreateDeviceNode
	sd	a0,-32(s0)
	.loc 1 1746 30
	ld	a0,-24(s0)
	call	Strtoi
	mv	a5,a0
	.loc 1 1746 22
	andi	a4,a5,0xff
	.loc 1 1746 20
	ld	a5,-32(s0)
	sb	a4,4(a5)
	.loc 1 1748 10
	ld	a5,-32(s0)
	.loc 1 1749 1
	mv	a0,a5
	ld	ra,40(sp)
	.cfi_restore 1
	ld	s0,32(sp)
	.cfi_restore 8
	.cfi_def_cfa 2, 48
	addi	sp,sp,48
	.cfi_def_cfa_offset 0
	jr	ra
	.cfi_endproc
.LFE52:
	.size	DevPathFromTextEmmc, .-DevPathFromTextEmmc
	.section	.text.DevPathFromTextDebugPort,"ax",@progbits
	.align	1
	.globl	DevPathFromTextDebugPort
	.type	DevPathFromTextDebugPort, @function
DevPathFromTextDebugPort:
.LFB53:
	.loc 1 1763 1
	.cfi_startproc
	addi	sp,sp,-48
	.cfi_def_cfa_offset 48
	sd	ra,40(sp)
	sd	s0,32(sp)
	.cfi_offset 1, -8
	.cfi_offset 8, -16
	addi	s0,sp,48
	.cfi_def_cfa 8, 0
	sd	a0,-40(s0)
	.loc 1 1766 33
	li	a2,20
	li	a1,10
	li	a0,3
	call	CreateDeviceNode
	sd	a0,-24(s0)
	.loc 1 1772 13
	ld	a5,-24(s0)
	addi	a5,a5,4
	.loc 1 1772 3
	lla	a1,gEfiDebugPortProtocolGuid
	mv	a0,a5
	call	CopyGuid
	.loc 1 1774 10
	ld	a5,-24(s0)
	.loc 1 1775 1
	mv	a0,a5
	ld	ra,40(sp)
	.cfi_restore 1
	ld	s0,32(sp)
	.cfi_restore 8
	.cfi_def_cfa 2, 48
	addi	sp,sp,48
	.cfi_def_cfa_offset 0
	jr	ra
	.cfi_endproc
.LFE53:
	.size	DevPathFromTextDebugPort, .-DevPathFromTextDebugPort
	.section	.text.DevPathFromTextMAC,"ax",@progbits
	.align	1
	.globl	DevPathFromTextMAC
	.type	DevPathFromTextMAC, @function
DevPathFromTextMAC:
.LFB54:
	.loc 1 1789 1
	.cfi_startproc
	addi	sp,sp,-64
	.cfi_def_cfa_offset 64
	sd	ra,56(sp)
	sd	s0,48(sp)
	.cfi_offset 1, -8
	.cfi_offset 8, -16
	addi	s0,sp,64
	.cfi_def_cfa 8, 0
	sd	a0,-56(s0)
	.loc 1 1795 16
	addi	a5,s0,-56
	mv	a0,a5
	call	GetNextParamStr
	sd	a0,-32(s0)
	.loc 1 1796 15
	addi	a5,s0,-56
	mv	a0,a5
	call	GetNextParamStr
	sd	a0,-40(s0)
	.loc 1 1797 41
	li	a2,37
	li	a1,11
	li	a0,3
	call	CreateDeviceNode
	sd	a0,-48(s0)
	.loc 1 1803 32
	ld	a0,-40(s0)
	call	Strtoi
	mv	a5,a0
	.loc 1 1803 24
	andi	a4,a5,0xff
	.loc 1 1803 22
	ld	a5,-48(s0)
	sb	a4,36(a5)
	.loc 1 1805 10
	li	a5,32
	sd	a5,-24(s0)
	.loc 1 1806 17
	ld	a5,-48(s0)
	lbu	a5,36(a5)
	.loc 1 1806 6
	mv	a4,a5
	li	a5,1
	beq	a4,a5,.L206
	.loc 1 1806 47 discriminator 1
	ld	a5,-48(s0)
	lbu	a5,36(a5)
	.loc 1 1806 34 discriminator 1
	bne	a5,zero,.L207
.L206:
	.loc 1 1807 12
	li	a5,6
	sd	a5,-24(s0)
.L207:
	.loc 1 1810 3
	ld	a5,-24(s0)
	slli	a4,a5,1
	.loc 1 1810 64
	ld	a5,-48(s0)
	addi	a5,a5,4
	.loc 1 1810 3
	ld	a3,-24(s0)
	mv	a2,a5
	mv	a1,a4
	ld	a0,-32(s0)
	call	StrHexToBytes
	.loc 1 1812 10
	ld	a5,-48(s0)
	.loc 1 1813 1
	mv	a0,a5
	ld	ra,56(sp)
	.cfi_restore 1
	ld	s0,48(sp)
	.cfi_restore 8
	.cfi_def_cfa 2, 64
	addi	sp,sp,64
	.cfi_def_cfa_offset 0
	jr	ra
	.cfi_endproc
.LFE54:
	.size	DevPathFromTextMAC, .-DevPathFromTextMAC
	.section	.rodata
	.align	3
.LC15:
	.string	"U"
	.string	"D"
	.string	"P"
	.string	""
	.string	""
	.align	3
.LC16:
	.string	"T"
	.string	"C"
	.string	"P"
	.string	""
	.string	""
	.section	.text.NetworkProtocolFromText,"ax",@progbits
	.align	1
	.globl	NetworkProtocolFromText
	.type	NetworkProtocolFromText, @function
NetworkProtocolFromText:
.LFB55:
	.loc 1 1828 1
	.cfi_startproc
	addi	sp,sp,-32
	.cfi_def_cfa_offset 32
	sd	ra,24(sp)
	sd	s0,16(sp)
	.cfi_offset 1, -8
	.cfi_offset 8, -16
	addi	s0,sp,32
	.cfi_def_cfa 8, 0
	sd	a0,-24(s0)
	.loc 1 1829 7
	lla	a1,.LC15
	ld	a0,-24(s0)
	call	StrCmp
	mv	a5,a0
	.loc 1 1829 6
	bne	a5,zero,.L210
	.loc 1 1830 12
	li	a5,17
	j	.L211
.L210:
	.loc 1 1833 7
	lla	a1,.LC16
	ld	a0,-24(s0)
	call	StrCmp
	mv	a5,a0
	.loc 1 1833 6
	bne	a5,zero,.L212
	.loc 1 1834 12
	li	a5,6
	j	.L211
.L212:
	.loc 1 1837 10
	ld	a0,-24(s0)
	call	Strtoi
	mv	a5,a0
.L211:
	.loc 1 1838 1
	mv	a0,a5
	ld	ra,24(sp)
	.cfi_restore 1
	ld	s0,16(sp)
	.cfi_restore 8
	.cfi_def_cfa 2, 32
	addi	sp,sp,32
	.cfi_def_cfa_offset 0
	jr	ra
	.cfi_endproc
.LFE55:
	.size	NetworkProtocolFromText, .-NetworkProtocolFromText
	.section	.rodata
	.align	3
.LC17:
	.string	"S"
	.string	"t"
	.string	"a"
	.string	"t"
	.string	"i"
	.string	"c"
	.string	""
	.string	""
	.section	.text.DevPathFromTextIPv4,"ax",@progbits
	.align	1
	.globl	DevPathFromTextIPv4
	.type	DevPathFromTextIPv4, @function
DevPathFromTextIPv4:
.LFB56:
	.loc 1 1853 1
	.cfi_startproc
	addi	sp,sp,-96
	.cfi_def_cfa_offset 96
	sd	ra,88(sp)
	sd	s0,80(sp)
	.cfi_offset 1, -8
	.cfi_offset 8, -16
	addi	s0,sp,96
	.cfi_def_cfa 8, 0
	sd	a0,-88(s0)
	.loc 1 1862 17
	addi	a5,s0,-88
	mv	a0,a5
	call	GetNextParamStr
	sd	a0,-24(s0)
	.loc 1 1863 17
	addi	a5,s0,-88
	mv	a0,a5
	call	GetNextParamStr
	sd	a0,-32(s0)
	.loc 1 1864 13
	addi	a5,s0,-88
	mv	a0,a5
	call	GetNextParamStr
	sd	a0,-40(s0)
	.loc 1 1865 16
	addi	a5,s0,-88
	mv	a0,a5
	call	GetNextParamStr
	sd	a0,-48(s0)
	.loc 1 1866 18
	addi	a5,s0,-88
	mv	a0,a5
	call	GetNextParamStr
	sd	a0,-56(s0)
	.loc 1 1867 19
	addi	a5,s0,-88
	mv	a0,a5
	call	GetNextParamStr
	sd	a0,-64(s0)
	.loc 1 1868 31
	li	a2,27
	li	a1,12
	li	a0,3
	call	CreateDeviceNode
	sd	a0,-72(s0)
	.loc 1 1874 48
	ld	a5,-72(s0)
	addi	a5,a5,8
	.loc 1 1874 3
	li	a3,0
	mv	a2,a5
	li	a1,0
	ld	a0,-24(s0)
	call	StrToIpv4Address
	.loc 1 1875 29
	ld	a0,-32(s0)
	call	NetworkProtocolFromText
	mv	a5,a0
	.loc 1 1875 20
	slli	a4,a5,48
	srli	a4,a4,48
	.loc 1 1875 18
	ld	a5,-72(s0)
	andi	a1,a4,255
	lbu	a3,16(a5)
	andi	a3,a3,0
	mv	a2,a3
	mv	a3,a1
	or	a3,a2,a3
	sb	a3,16(a5)
	srliw	a4,a4,8
	slli	a2,a4,48
	srli	a2,a2,48
	lbu	a4,17(a5)
	andi	a4,a4,0
	mv	a3,a4
	mv	a4,a2
	or	a4,a3,a4
	sb	a4,17(a5)
	.loc 1 1876 7
	lla	a1,.LC17
	ld	a0,-40(s0)
	call	StrCmp
	mv	a5,a0
	.loc 1 1876 6
	bne	a5,zero,.L214
	.loc 1 1877 27
	ld	a5,-72(s0)
	li	a4,1
	sb	a4,18(a5)
	j	.L215
.L214:
	.loc 1 1879 27
	ld	a5,-72(s0)
	sb	zero,18(a5)
.L215:
	.loc 1 1882 47
	ld	a5,-72(s0)
	addi	a5,a5,4
	.loc 1 1882 3
	li	a3,0
	mv	a2,a5
	li	a1,0
	ld	a0,-48(s0)
	call	StrToIpv4Address
	.loc 1 1883 10
	ld	a5,-56(s0)
	lhu	a5,0(a5)
	.loc 1 1883 6
	beq	a5,zero,.L216
	.loc 1 1883 41 discriminator 1
	ld	a5,-64(s0)
	lhu	a5,0(a5)
	.loc 1 1883 35 discriminator 1
	beq	a5,zero,.L216
	.loc 1 1884 51
	ld	a5,-72(s0)
	addi	a5,a5,19
	.loc 1 1884 5
	li	a3,0
	mv	a2,a5
	li	a1,0
	ld	a0,-56(s0)
	call	StrToIpv4Address
	.loc 1 1885 52
	ld	a5,-72(s0)
	addi	a5,a5,23
	.loc 1 1885 5
	li	a3,0
	mv	a2,a5
	li	a1,0
	ld	a0,-64(s0)
	call	StrToIpv4Address
	j	.L217
.L216:
	.loc 1 1887 14
	ld	a5,-72(s0)
	addi	a5,a5,19
	.loc 1 1887 5
	li	a1,4
	mv	a0,a5
	call	ZeroMem
	.loc 1 1888 14
	ld	a5,-72(s0)
	addi	a5,a5,23
	.loc 1 1888 5
	li	a1,4
	mv	a0,a5
	call	ZeroMem
.L217:
	.loc 1 1891 19
	ld	a5,-72(s0)
	lbu	a4,12(a5)
	andi	a4,a4,0
	sb	a4,12(a5)
	lbu	a4,13(a5)
	andi	a4,a4,0
	sb	a4,13(a5)
	.loc 1 1892 20
	ld	a5,-72(s0)
	lbu	a4,14(a5)
	andi	a4,a4,0
	sb	a4,14(a5)
	lbu	a4,15(a5)
	andi	a4,a4,0
	sb	a4,15(a5)
	.loc 1 1894 10
	ld	a5,-72(s0)
	.loc 1 1895 1
	mv	a0,a5
	ld	ra,88(sp)
	.cfi_restore 1
	ld	s0,80(sp)
	.cfi_restore 8
	.cfi_def_cfa 2, 96
	addi	sp,sp,96
	.cfi_def_cfa_offset 0
	jr	ra
	.cfi_endproc
.LFE56:
	.size	DevPathFromTextIPv4, .-DevPathFromTextIPv4
	.section	.rodata
	.align	3
.LC18:
	.string	"S"
	.string	"t"
	.string	"a"
	.string	"t"
	.string	"e"
	.string	"l"
	.string	"e"
	.string	"s"
	.string	"s"
	.string	"A"
	.string	"u"
	.string	"t"
	.string	"o"
	.string	"C"
	.string	"o"
	.string	"n"
	.string	"f"
	.string	"i"
	.string	"g"
	.string	"u"
	.string	"r"
	.string	"e"
	.string	""
	.string	""
	.section	.text.DevPathFromTextIPv6,"ax",@progbits
	.align	1
	.globl	DevPathFromTextIPv6
	.type	DevPathFromTextIPv6, @function
DevPathFromTextIPv6:
.LFB57:
	.loc 1 1909 1
	.cfi_startproc
	addi	sp,sp,-96
	.cfi_def_cfa_offset 96
	sd	ra,88(sp)
	sd	s0,80(sp)
	.cfi_offset 1, -8
	.cfi_offset 8, -16
	addi	s0,sp,96
	.cfi_def_cfa 8, 0
	sd	a0,-88(s0)
	.loc 1 1918 17
	addi	a5,s0,-88
	mv	a0,a5
	call	GetNextParamStr
	sd	a0,-24(s0)
	.loc 1 1919 17
	addi	a5,s0,-88
	mv	a0,a5
	call	GetNextParamStr
	sd	a0,-32(s0)
	.loc 1 1920 13
	addi	a5,s0,-88
	mv	a0,a5
	call	GetNextParamStr
	sd	a0,-40(s0)
	.loc 1 1921 16
	addi	a5,s0,-88
	mv	a0,a5
	call	GetNextParamStr
	sd	a0,-48(s0)
	.loc 1 1922 21
	addi	a5,s0,-88
	mv	a0,a5
	call	GetNextParamStr
	sd	a0,-56(s0)
	.loc 1 1923 18
	addi	a5,s0,-88
	mv	a0,a5
	call	GetNextParamStr
	sd	a0,-64(s0)
	.loc 1 1924 31
	li	a2,60
	li	a1,13
	li	a0,3
	call	CreateDeviceNode
	sd	a0,-72(s0)
	.loc 1 1930 48
	ld	a5,-72(s0)
	addi	a5,a5,20
	.loc 1 1930 3
	li	a3,0
	mv	a2,a5
	li	a1,0
	ld	a0,-24(s0)
	call	StrToIpv6Address
	.loc 1 1931 29
	ld	a0,-32(s0)
	call	NetworkProtocolFromText
	mv	a5,a0
	.loc 1 1931 20
	slli	a4,a5,48
	srli	a4,a4,48
	.loc 1 1931 18
	ld	a5,-72(s0)
	andi	a1,a4,255
	lbu	a3,40(a5)
	andi	a3,a3,0
	mv	a2,a3
	mv	a3,a1
	or	a3,a2,a3
	sb	a3,40(a5)
	srliw	a4,a4,8
	slli	a2,a4,48
	srli	a2,a2,48
	lbu	a4,41(a5)
	andi	a4,a4,0
	mv	a3,a4
	mv	a4,a2
	or	a4,a3,a4
	sb	a4,41(a5)
	.loc 1 1932 7
	lla	a1,.LC17
	ld	a0,-40(s0)
	call	StrCmp
	mv	a5,a0
	.loc 1 1932 6
	bne	a5,zero,.L220
	.loc 1 1933 27
	ld	a5,-72(s0)
	sb	zero,42(a5)
	j	.L221
.L220:
	.loc 1 1934 14
	lla	a1,.LC18
	ld	a0,-40(s0)
	call	StrCmp
	mv	a5,a0
	.loc 1 1934 13
	bne	a5,zero,.L222
	.loc 1 1935 27
	ld	a5,-72(s0)
	li	a4,1
	sb	a4,42(a5)
	j	.L221
.L222:
	.loc 1 1937 27
	ld	a5,-72(s0)
	li	a4,2
	sb	a4,42(a5)
.L221:
	.loc 1 1940 47
	ld	a5,-72(s0)
	addi	a5,a5,4
	.loc 1 1940 3
	li	a3,0
	mv	a2,a5
	li	a1,0
	ld	a0,-48(s0)
	call	StrToIpv6Address
	.loc 1 1941 10
	ld	a5,-64(s0)
	lhu	a5,0(a5)
	.loc 1 1941 6
	beq	a5,zero,.L223
	.loc 1 1941 41 discriminator 1
	ld	a5,-56(s0)
	lhu	a5,0(a5)
	.loc 1 1941 35 discriminator 1
	beq	a5,zero,.L223
	.loc 1 1942 51
	ld	a5,-72(s0)
	addi	a5,a5,44
	.loc 1 1942 5
	li	a3,0
	mv	a2,a5
	li	a1,0
	ld	a0,-64(s0)
	call	StrToIpv6Address
	.loc 1 1943 34
	ld	a0,-56(s0)
	call	Strtoi
	mv	a5,a0
	.loc 1 1943 26
	andi	a4,a5,0xff
	.loc 1 1943 24
	ld	a5,-72(s0)
	sb	a4,43(a5)
	j	.L224
.L223:
	.loc 1 1945 14
	ld	a5,-72(s0)
	addi	a5,a5,44
	.loc 1 1945 5
	li	a1,16
	mv	a0,a5
	call	ZeroMem
	.loc 1 1946 24
	ld	a5,-72(s0)
	sb	zero,43(a5)
.L224:
	.loc 1 1949 19
	ld	a5,-72(s0)
	lbu	a4,36(a5)
	andi	a4,a4,0
	sb	a4,36(a5)
	lbu	a4,37(a5)
	andi	a4,a4,0
	sb	a4,37(a5)
	.loc 1 1950 20
	ld	a5,-72(s0)
	lbu	a4,38(a5)
	andi	a4,a4,0
	sb	a4,38(a5)
	lbu	a4,39(a5)
	andi	a4,a4,0
	sb	a4,39(a5)
	.loc 1 1952 10
	ld	a5,-72(s0)
	.loc 1 1953 1
	mv	a0,a5
	ld	ra,88(sp)
	.cfi_restore 1
	ld	s0,80(sp)
	.cfi_restore 8
	.cfi_def_cfa 2, 96
	addi	sp,sp,96
	.cfi_def_cfa_offset 0
	jr	ra
	.cfi_endproc
.LFE57:
	.size	DevPathFromTextIPv6, .-DevPathFromTextIPv6
	.section	.rodata
	.align	3
.LC19:
	.string	"D"
	.string	"E"
	.string	"F"
	.string	"A"
	.string	"U"
	.string	"L"
	.string	"T"
	.string	""
	.string	""
	.align	3
.LC20:
	.string	"D"
	.string	""
	.string	""
	.align	3
.LC21:
	.string	"1"
	.string	""
	.string	""
	.align	3
.LC22:
	.string	"1"
	.string	"."
	.string	"5"
	.string	""
	.string	""
	.align	3
.LC23:
	.string	"2"
	.string	""
	.string	""
	.section	.text.DevPathFromTextUart,"ax",@progbits
	.align	1
	.globl	DevPathFromTextUart
	.type	DevPathFromTextUart, @function
DevPathFromTextUart:
.LFB58:
	.loc 1 1967 1
	.cfi_startproc
	addi	sp,sp,-80
	.cfi_def_cfa_offset 80
	sd	ra,72(sp)
	sd	s0,64(sp)
	.cfi_offset 1, -8
	.cfi_offset 8, -16
	addi	s0,sp,80
	.cfi_def_cfa 8, 0
	sd	a0,-72(s0)
	.loc 1 1974 13
	addi	a5,s0,-72
	mv	a0,a5
	call	GetNextParamStr
	sd	a0,-24(s0)
	.loc 1 1975 17
	addi	a5,s0,-72
	mv	a0,a5
	call	GetNextParamStr
	sd	a0,-32(s0)
	.loc 1 1976 15
	addi	a5,s0,-72
	mv	a0,a5
	call	GetNextParamStr
	sd	a0,-40(s0)
	.loc 1 1977 17
	addi	a5,s0,-72
	mv	a0,a5
	call	GetNextParamStr
	sd	a0,-48(s0)
	.loc 1 1978 31
	li	a2,19
	li	a1,14
	li	a0,3
	call	CreateDeviceNode
	sd	a0,-56(s0)
	.loc 1 1984 7
	lla	a1,.LC19
	ld	a0,-24(s0)
	call	StrCmp
	mv	a5,a0
	.loc 1 1984 6
	bne	a5,zero,.L227
	.loc 1 1985 20
	ld	a5,-56(s0)
	lbu	a4,8(a5)
	andi	a4,a4,0
	sb	a4,8(a5)
	lbu	a4,9(a5)
	andi	a4,a4,0
	ori	a4,a4,-62
	sb	a4,9(a5)
	lbu	a4,10(a5)
	andi	a4,a4,0
	ori	a4,a4,1
	sb	a4,10(a5)
	lbu	a4,11(a5)
	andi	a4,a4,0
	sb	a4,11(a5)
	lbu	a4,12(a5)
	andi	a4,a4,0
	sb	a4,12(a5)
	lbu	a4,13(a5)
	andi	a4,a4,0
	sb	a4,13(a5)
	lbu	a4,14(a5)
	andi	a4,a4,0
	sb	a4,14(a5)
	lbu	a4,15(a5)
	andi	a4,a4,0
	sb	a4,15(a5)
	j	.L228
.L227:
	.loc 1 1987 5
	ld	a5,-56(s0)
	addi	a5,a5,8
	mv	a1,a5
	ld	a0,-24(s0)
	call	Strtoi64
.L228:
	.loc 1 1989 30
	lla	a1,.LC19
	ld	a0,-32(s0)
	call	StrCmp
	mv	a5,a0
	.loc 1 1989 20
	beq	a5,zero,.L229
	.loc 1 1989 75 discriminator 1
	ld	a0,-32(s0)
	call	Strtoi
	mv	a5,a0
	.loc 1 1989 20 discriminator 1
	andi	a5,a5,0xff
	j	.L230
.L229:
	.loc 1 1989 20 is_stmt 0 discriminator 2
	li	a5,8
.L230:
	.loc 1 1989 18 is_stmt 1 discriminator 4
	ld	a4,-56(s0)
	sb	a5,16(a4)
	.loc 1 1990 11 discriminator 4
	ld	a5,-40(s0)
	lhu	a5,0(a5)
	sext.w	a5,a5
	addiw	a3,a5,-68
	sext.w	a4,a3
	li	a5,15
	bgtu	a4,a5,.L231
	slli	a5,a3,32
	srli	a5,a5,32
	slli	a4,a5,2
	lla	a5,.L233
	add	a5,a4,a5
	lw	a5,0(a5)
	sext.w	a4,a5
	lla	a5,.L233
	add	a5,a4,a5
	jr	a5
	.section	.rodata.DevPathFromTextUart,"a",@progbits
	.align	2
	.align	2
.L233:
	.word	.L238-.L233
	.word	.L237-.L233
	.word	.L231-.L233
	.word	.L231-.L233
	.word	.L231-.L233
	.word	.L231-.L233
	.word	.L231-.L233
	.word	.L231-.L233
	.word	.L231-.L233
	.word	.L236-.L233
	.word	.L235-.L233
	.word	.L234-.L233
	.word	.L231-.L233
	.word	.L231-.L233
	.word	.L231-.L233
	.word	.L232-.L233
	.section	.text.DevPathFromTextUart
.L238:
	.loc 1 1992 18
	ld	a5,-56(s0)
	sb	zero,17(a5)
	.loc 1 1993 5
	j	.L239
.L235:
	.loc 1 1996 18
	ld	a5,-56(s0)
	li	a4,1
	sb	a4,17(a5)
	.loc 1 1997 5
	j	.L239
.L237:
	.loc 1 2000 18
	ld	a5,-56(s0)
	li	a4,2
	sb	a4,17(a5)
	.loc 1 2001 5
	j	.L239
.L234:
	.loc 1 2004 18
	ld	a5,-56(s0)
	li	a4,3
	sb	a4,17(a5)
	.loc 1 2005 5
	j	.L239
.L236:
	.loc 1 2008 18
	ld	a5,-56(s0)
	li	a4,4
	sb	a4,17(a5)
	.loc 1 2009 5
	j	.L239
.L232:
	.loc 1 2012 18
	ld	a5,-56(s0)
	li	a4,5
	sb	a4,17(a5)
	.loc 1 2013 5
	j	.L239
.L231:
	.loc 1 2016 28
	ld	a0,-40(s0)
	call	Strtoi
	mv	a5,a0
	.loc 1 2016 20
	andi	a4,a5,0xff
	.loc 1 2016 18
	ld	a5,-56(s0)
	sb	a4,17(a5)
	.loc 1 2017 5
	nop
.L239:
	.loc 1 2020 7
	lla	a1,.LC20
	ld	a0,-48(s0)
	call	StrCmp
	mv	a5,a0
	.loc 1 2020 6
	bne	a5,zero,.L240
	.loc 1 2021 20
	ld	a5,-56(s0)
	sb	zero,18(a5)
	j	.L241
.L240:
	.loc 1 2022 14
	lla	a1,.LC21
	ld	a0,-48(s0)
	call	StrCmp
	mv	a5,a0
	.loc 1 2022 13
	bne	a5,zero,.L242
	.loc 1 2023 20
	ld	a5,-56(s0)
	li	a4,1
	sb	a4,18(a5)
	j	.L241
.L242:
	.loc 1 2024 14
	lla	a1,.LC22
	ld	a0,-48(s0)
	call	StrCmp
	mv	a5,a0
	.loc 1 2024 13
	bne	a5,zero,.L243
	.loc 1 2025 20
	ld	a5,-56(s0)
	li	a4,2
	sb	a4,18(a5)
	j	.L241
.L243:
	.loc 1 2026 14
	lla	a1,.LC23
	ld	a0,-48(s0)
	call	StrCmp
	mv	a5,a0
	.loc 1 2026 13
	bne	a5,zero,.L244
	.loc 1 2027 20
	ld	a5,-56(s0)
	li	a4,3
	sb	a4,18(a5)
	j	.L241
.L244:
	.loc 1 2029 30
	ld	a0,-48(s0)
	call	Strtoi
	mv	a5,a0
	.loc 1 2029 22
	andi	a4,a5,0xff
	.loc 1 2029 20
	ld	a5,-56(s0)
	sb	a4,18(a5)
.L241:
	.loc 1 2032 10
	ld	a5,-56(s0)
	.loc 1 2033 1
	mv	a0,a5
	ld	ra,72(sp)
	.cfi_restore 1
	ld	s0,64(sp)
	.cfi_restore 8
	.cfi_def_cfa 2, 80
	addi	sp,sp,80
	.cfi_def_cfa_offset 0
	jr	ra
	.cfi_endproc
.LFE58:
	.size	DevPathFromTextUart, .-DevPathFromTextUart
	.section	.text.ConvertFromTextUsbClass,"ax",@progbits
	.align	1
	.globl	ConvertFromTextUsbClass
	.type	ConvertFromTextUsbClass, @function
ConvertFromTextUsbClass:
.LFB59:
	.loc 1 2049 1
	.cfi_startproc
	addi	sp,sp,-80
	.cfi_def_cfa_offset 80
	sd	ra,72(sp)
	sd	s0,64(sp)
	.cfi_offset 1, -8
	.cfi_offset 8, -16
	addi	s0,sp,80
	.cfi_def_cfa 8, 0
	sd	a0,-72(s0)
	sd	a1,-80(s0)
	.loc 1 2057 40
	li	a2,11
	li	a1,15
	li	a0,3
	call	CreateDeviceNode
	sd	a0,-24(s0)
	.loc 1 2063 12
	addi	a5,s0,-72
	mv	a0,a5
	call	GetNextParamStr
	sd	a0,-32(s0)
	.loc 1 2064 12
	addi	a5,s0,-72
	mv	a0,a5
	call	GetNextParamStr
	sd	a0,-40(s0)
	.loc 1 2065 19
	ld	a5,-80(s0)
	lbu	a5,0(a5)
	.loc 1 2065 6
	beq	a5,zero,.L247
	.loc 1 2066 16
	addi	a5,s0,-72
	mv	a0,a5
	call	GetNextParamStr
	sd	a0,-48(s0)
	.loc 1 2067 9
	ld	a5,-48(s0)
	lhu	a5,0(a5)
	.loc 1 2067 8
	bne	a5,zero,.L248
	.loc 1 2068 29
	ld	a5,-24(s0)
	li	a4,-1
	sb	a4,8(a5)
	j	.L249
.L248:
	.loc 1 2070 39
	ld	a0,-48(s0)
	call	Strtoi
	mv	a5,a0
	.loc 1 2070 31
	andi	a4,a5,0xff
	.loc 1 2070 29
	ld	a5,-24(s0)
	sb	a4,8(a5)
	j	.L249
.L247:
	.loc 1 2073 41
	ld	a5,-80(s0)
	lbu	a4,1(a5)
	.loc 1 2073 27
	ld	a5,-24(s0)
	sb	a4,8(a5)
.L249:
	.loc 1 2075 19
	ld	a5,-80(s0)
	lbu	a5,2(a5)
	.loc 1 2075 6
	beq	a5,zero,.L250
	.loc 1 2076 19
	addi	a5,s0,-72
	mv	a0,a5
	call	GetNextParamStr
	sd	a0,-56(s0)
	.loc 1 2077 9
	ld	a5,-56(s0)
	lhu	a5,0(a5)
	.loc 1 2077 8
	bne	a5,zero,.L251
	.loc 1 2078 32
	ld	a5,-24(s0)
	li	a4,-1
	sb	a4,9(a5)
	j	.L252
.L251:
	.loc 1 2080 42
	ld	a0,-56(s0)
	call	Strtoi
	mv	a5,a0
	.loc 1 2080 34
	andi	a4,a5,0xff
	.loc 1 2080 32
	ld	a5,-24(s0)
	sb	a4,9(a5)
	j	.L252
.L250:
	.loc 1 2083 44
	ld	a5,-80(s0)
	lbu	a4,3(a5)
	.loc 1 2083 30
	ld	a5,-24(s0)
	sb	a4,9(a5)
.L252:
	.loc 1 2086 17
	addi	a5,s0,-72
	mv	a0,a5
	call	GetNextParamStr
	sd	a0,-64(s0)
	.loc 1 2088 7
	ld	a5,-32(s0)
	lhu	a5,0(a5)
	.loc 1 2088 6
	bne	a5,zero,.L253
	.loc 1 2089 24
	ld	a5,-24(s0)
	lbu	a4,4(a5)
	ori	a4,a4,-1
	sb	a4,4(a5)
	lbu	a4,5(a5)
	ori	a4,a4,-1
	sb	a4,5(a5)
	j	.L254
.L253:
	.loc 1 2091 35
	ld	a0,-32(s0)
	call	Strtoi
	mv	a5,a0
	.loc 1 2091 26
	slli	a4,a5,48
	srli	a4,a4,48
	.loc 1 2091 24
	ld	a5,-24(s0)
	andi	a1,a4,255
	lbu	a3,4(a5)
	andi	a3,a3,0
	mv	a2,a3
	mv	a3,a1
	or	a3,a2,a3
	sb	a3,4(a5)
	srliw	a4,a4,8
	slli	a2,a4,48
	srli	a2,a2,48
	lbu	a4,5(a5)
	andi	a4,a4,0
	mv	a3,a4
	mv	a4,a2
	or	a4,a3,a4
	sb	a4,5(a5)
.L254:
	.loc 1 2093 7
	ld	a5,-40(s0)
	lhu	a5,0(a5)
	.loc 1 2093 6
	bne	a5,zero,.L255
	.loc 1 2094 25
	ld	a5,-24(s0)
	lbu	a4,6(a5)
	ori	a4,a4,-1
	sb	a4,6(a5)
	lbu	a4,7(a5)
	ori	a4,a4,-1
	sb	a4,7(a5)
	j	.L256
.L255:
	.loc 1 2096 36
	ld	a0,-40(s0)
	call	Strtoi
	mv	a5,a0
	.loc 1 2096 27
	slli	a4,a5,48
	srli	a4,a4,48
	.loc 1 2096 25
	ld	a5,-24(s0)
	andi	a1,a4,255
	lbu	a3,6(a5)
	andi	a3,a3,0
	mv	a2,a3
	mv	a3,a1
	or	a3,a2,a3
	sb	a3,6(a5)
	srliw	a4,a4,8
	slli	a2,a4,48
	srli	a2,a2,48
	lbu	a4,7(a5)
	andi	a4,a4,0
	mv	a3,a4
	mv	a4,a2
	or	a4,a3,a4
	sb	a4,7(a5)
.L256:
	.loc 1 2098 7
	ld	a5,-64(s0)
	lhu	a5,0(a5)
	.loc 1 2098 6
	bne	a5,zero,.L257
	.loc 1 2099 30
	ld	a5,-24(s0)
	li	a4,-1
	sb	a4,10(a5)
	j	.L258
.L257:
	.loc 1 2101 40
	ld	a0,-64(s0)
	call	Strtoi
	mv	a5,a0
	.loc 1 2101 32
	andi	a4,a5,0xff
	.loc 1 2101 30
	ld	a5,-24(s0)
	sb	a4,10(a5)
.L258:
	.loc 1 2104 10
	ld	a5,-24(s0)
	.loc 1 2105 1
	mv	a0,a5
	ld	ra,72(sp)
	.cfi_restore 1
	ld	s0,64(sp)
	.cfi_restore 8
	.cfi_def_cfa 2, 80
	addi	sp,sp,80
	.cfi_def_cfa_offset 0
	jr	ra
	.cfi_endproc
.LFE59:
	.size	ConvertFromTextUsbClass, .-ConvertFromTextUsbClass
	.section	.text.DevPathFromTextUsbClass,"ax",@progbits
	.align	1
	.globl	DevPathFromTextUsbClass
	.type	DevPathFromTextUsbClass, @function
DevPathFromTextUsbClass:
.LFB60:
	.loc 1 2120 1
	.cfi_startproc
	addi	sp,sp,-48
	.cfi_def_cfa_offset 48
	sd	ra,40(sp)
	sd	s0,32(sp)
	.cfi_offset 1, -8
	.cfi_offset 8, -16
	addi	s0,sp,48
	.cfi_def_cfa 8, 0
	sd	a0,-40(s0)
	.loc 1 2123 27
	li	a5,1
	sb	a5,-24(s0)
	.loc 1 2124 30
	li	a5,1
	sb	a5,-22(s0)
	.loc 1 2126 10
	addi	a5,s0,-24
	mv	a1,a5
	ld	a0,-40(s0)
	call	ConvertFromTextUsbClass
	mv	a5,a0
	.loc 1 2127 1
	mv	a0,a5
	ld	ra,40(sp)
	.cfi_restore 1
	ld	s0,32(sp)
	.cfi_restore 8
	.cfi_def_cfa 2, 48
	addi	sp,sp,48
	.cfi_def_cfa_offset 0
	jr	ra
	.cfi_endproc
.LFE60:
	.size	DevPathFromTextUsbClass, .-DevPathFromTextUsbClass
	.section	.text.DevPathFromTextUsbAudio,"ax",@progbits
	.align	1
	.globl	DevPathFromTextUsbAudio
	.type	DevPathFromTextUsbAudio, @function
DevPathFromTextUsbAudio:
.LFB61:
	.loc 1 2141 1
	.cfi_startproc
	addi	sp,sp,-48
	.cfi_def_cfa_offset 48
	sd	ra,40(sp)
	sd	s0,32(sp)
	.cfi_offset 1, -8
	.cfi_offset 8, -16
	addi	s0,sp,48
	.cfi_def_cfa 8, 0
	sd	a0,-40(s0)
	.loc 1 2144 27
	sb	zero,-24(s0)
	.loc 1 2145 22
	li	a5,1
	sb	a5,-23(s0)
	.loc 1 2146 30
	li	a5,1
	sb	a5,-22(s0)
	.loc 1 2148 10
	addi	a5,s0,-24
	mv	a1,a5
	ld	a0,-40(s0)
	call	ConvertFromTextUsbClass
	mv	a5,a0
	.loc 1 2149 1
	mv	a0,a5
	ld	ra,40(sp)
	.cfi_restore 1
	ld	s0,32(sp)
	.cfi_restore 8
	.cfi_def_cfa 2, 48
	addi	sp,sp,48
	.cfi_def_cfa_offset 0
	jr	ra
	.cfi_endproc
.LFE61:
	.size	DevPathFromTextUsbAudio, .-DevPathFromTextUsbAudio
	.section	.text.DevPathFromTextUsbCDCControl,"ax",@progbits
	.align	1
	.globl	DevPathFromTextUsbCDCControl
	.type	DevPathFromTextUsbCDCControl, @function
DevPathFromTextUsbCDCControl:
.LFB62:
	.loc 1 2163 1
	.cfi_startproc
	addi	sp,sp,-48
	.cfi_def_cfa_offset 48
	sd	ra,40(sp)
	sd	s0,32(sp)
	.cfi_offset 1, -8
	.cfi_offset 8, -16
	addi	s0,sp,48
	.cfi_def_cfa 8, 0
	sd	a0,-40(s0)
	.loc 1 2166 27
	sb	zero,-24(s0)
	.loc 1 2167 22
	li	a5,2
	sb	a5,-23(s0)
	.loc 1 2168 30
	li	a5,1
	sb	a5,-22(s0)
	.loc 1 2170 10
	addi	a5,s0,-24
	mv	a1,a5
	ld	a0,-40(s0)
	call	ConvertFromTextUsbClass
	mv	a5,a0
	.loc 1 2171 1
	mv	a0,a5
	ld	ra,40(sp)
	.cfi_restore 1
	ld	s0,32(sp)
	.cfi_restore 8
	.cfi_def_cfa 2, 48
	addi	sp,sp,48
	.cfi_def_cfa_offset 0
	jr	ra
	.cfi_endproc
.LFE62:
	.size	DevPathFromTextUsbCDCControl, .-DevPathFromTextUsbCDCControl
	.section	.text.DevPathFromTextUsbHID,"ax",@progbits
	.align	1
	.globl	DevPathFromTextUsbHID
	.type	DevPathFromTextUsbHID, @function
DevPathFromTextUsbHID:
.LFB63:
	.loc 1 2185 1
	.cfi_startproc
	addi	sp,sp,-48
	.cfi_def_cfa_offset 48
	sd	ra,40(sp)
	sd	s0,32(sp)
	.cfi_offset 1, -8
	.cfi_offset 8, -16
	addi	s0,sp,48
	.cfi_def_cfa 8, 0
	sd	a0,-40(s0)
	.loc 1 2188 27
	sb	zero,-24(s0)
	.loc 1 2189 22
	li	a5,3
	sb	a5,-23(s0)
	.loc 1 2190 30
	li	a5,1
	sb	a5,-22(s0)
	.loc 1 2192 10
	addi	a5,s0,-24
	mv	a1,a5
	ld	a0,-40(s0)
	call	ConvertFromTextUsbClass
	mv	a5,a0
	.loc 1 2193 1
	mv	a0,a5
	ld	ra,40(sp)
	.cfi_restore 1
	ld	s0,32(sp)
	.cfi_restore 8
	.cfi_def_cfa 2, 48
	addi	sp,sp,48
	.cfi_def_cfa_offset 0
	jr	ra
	.cfi_endproc
.LFE63:
	.size	DevPathFromTextUsbHID, .-DevPathFromTextUsbHID
	.section	.text.DevPathFromTextUsbImage,"ax",@progbits
	.align	1
	.globl	DevPathFromTextUsbImage
	.type	DevPathFromTextUsbImage, @function
DevPathFromTextUsbImage:
.LFB64:
	.loc 1 2207 1
	.cfi_startproc
	addi	sp,sp,-48
	.cfi_def_cfa_offset 48
	sd	ra,40(sp)
	sd	s0,32(sp)
	.cfi_offset 1, -8
	.cfi_offset 8, -16
	addi	s0,sp,48
	.cfi_def_cfa 8, 0
	sd	a0,-40(s0)
	.loc 1 2210 27
	sb	zero,-24(s0)
	.loc 1 2211 22
	li	a5,6
	sb	a5,-23(s0)
	.loc 1 2212 30
	li	a5,1
	sb	a5,-22(s0)
	.loc 1 2214 10
	addi	a5,s0,-24
	mv	a1,a5
	ld	a0,-40(s0)
	call	ConvertFromTextUsbClass
	mv	a5,a0
	.loc 1 2215 1
	mv	a0,a5
	ld	ra,40(sp)
	.cfi_restore 1
	ld	s0,32(sp)
	.cfi_restore 8
	.cfi_def_cfa 2, 48
	addi	sp,sp,48
	.cfi_def_cfa_offset 0
	jr	ra
	.cfi_endproc
.LFE64:
	.size	DevPathFromTextUsbImage, .-DevPathFromTextUsbImage
	.section	.text.DevPathFromTextUsbPrinter,"ax",@progbits
	.align	1
	.globl	DevPathFromTextUsbPrinter
	.type	DevPathFromTextUsbPrinter, @function
DevPathFromTextUsbPrinter:
.LFB65:
	.loc 1 2229 1
	.cfi_startproc
	addi	sp,sp,-48
	.cfi_def_cfa_offset 48
	sd	ra,40(sp)
	sd	s0,32(sp)
	.cfi_offset 1, -8
	.cfi_offset 8, -16
	addi	s0,sp,48
	.cfi_def_cfa 8, 0
	sd	a0,-40(s0)
	.loc 1 2232 27
	sb	zero,-24(s0)
	.loc 1 2233 22
	li	a5,7
	sb	a5,-23(s0)
	.loc 1 2234 30
	li	a5,1
	sb	a5,-22(s0)
	.loc 1 2236 10
	addi	a5,s0,-24
	mv	a1,a5
	ld	a0,-40(s0)
	call	ConvertFromTextUsbClass
	mv	a5,a0
	.loc 1 2237 1
	mv	a0,a5
	ld	ra,40(sp)
	.cfi_restore 1
	ld	s0,32(sp)
	.cfi_restore 8
	.cfi_def_cfa 2, 48
	addi	sp,sp,48
	.cfi_def_cfa_offset 0
	jr	ra
	.cfi_endproc
.LFE65:
	.size	DevPathFromTextUsbPrinter, .-DevPathFromTextUsbPrinter
	.section	.text.DevPathFromTextUsbMassStorage,"ax",@progbits
	.align	1
	.globl	DevPathFromTextUsbMassStorage
	.type	DevPathFromTextUsbMassStorage, @function
DevPathFromTextUsbMassStorage:
.LFB66:
	.loc 1 2251 1
	.cfi_startproc
	addi	sp,sp,-48
	.cfi_def_cfa_offset 48
	sd	ra,40(sp)
	sd	s0,32(sp)
	.cfi_offset 1, -8
	.cfi_offset 8, -16
	addi	s0,sp,48
	.cfi_def_cfa 8, 0
	sd	a0,-40(s0)
	.loc 1 2254 27
	sb	zero,-24(s0)
	.loc 1 2255 22
	li	a5,8
	sb	a5,-23(s0)
	.loc 1 2256 30
	li	a5,1
	sb	a5,-22(s0)
	.loc 1 2258 10
	addi	a5,s0,-24
	mv	a1,a5
	ld	a0,-40(s0)
	call	ConvertFromTextUsbClass
	mv	a5,a0
	.loc 1 2259 1
	mv	a0,a5
	ld	ra,40(sp)
	.cfi_restore 1
	ld	s0,32(sp)
	.cfi_restore 8
	.cfi_def_cfa 2, 48
	addi	sp,sp,48
	.cfi_def_cfa_offset 0
	jr	ra
	.cfi_endproc
.LFE66:
	.size	DevPathFromTextUsbMassStorage, .-DevPathFromTextUsbMassStorage
	.section	.text.DevPathFromTextUsbHub,"ax",@progbits
	.align	1
	.globl	DevPathFromTextUsbHub
	.type	DevPathFromTextUsbHub, @function
DevPathFromTextUsbHub:
.LFB67:
	.loc 1 2273 1
	.cfi_startproc
	addi	sp,sp,-48
	.cfi_def_cfa_offset 48
	sd	ra,40(sp)
	sd	s0,32(sp)
	.cfi_offset 1, -8
	.cfi_offset 8, -16
	addi	s0,sp,48
	.cfi_def_cfa 8, 0
	sd	a0,-40(s0)
	.loc 1 2276 27
	sb	zero,-24(s0)
	.loc 1 2277 22
	li	a5,9
	sb	a5,-23(s0)
	.loc 1 2278 30
	li	a5,1
	sb	a5,-22(s0)
	.loc 1 2280 10
	addi	a5,s0,-24
	mv	a1,a5
	ld	a0,-40(s0)
	call	ConvertFromTextUsbClass
	mv	a5,a0
	.loc 1 2281 1
	mv	a0,a5
	ld	ra,40(sp)
	.cfi_restore 1
	ld	s0,32(sp)
	.cfi_restore 8
	.cfi_def_cfa 2, 48
	addi	sp,sp,48
	.cfi_def_cfa_offset 0
	jr	ra
	.cfi_endproc
.LFE67:
	.size	DevPathFromTextUsbHub, .-DevPathFromTextUsbHub
	.section	.text.DevPathFromTextUsbCDCData,"ax",@progbits
	.align	1
	.globl	DevPathFromTextUsbCDCData
	.type	DevPathFromTextUsbCDCData, @function
DevPathFromTextUsbCDCData:
.LFB68:
	.loc 1 2295 1
	.cfi_startproc
	addi	sp,sp,-48
	.cfi_def_cfa_offset 48
	sd	ra,40(sp)
	sd	s0,32(sp)
	.cfi_offset 1, -8
	.cfi_offset 8, -16
	addi	s0,sp,48
	.cfi_def_cfa 8, 0
	sd	a0,-40(s0)
	.loc 1 2298 27
	sb	zero,-24(s0)
	.loc 1 2299 22
	li	a5,10
	sb	a5,-23(s0)
	.loc 1 2300 30
	li	a5,1
	sb	a5,-22(s0)
	.loc 1 2302 10
	addi	a5,s0,-24
	mv	a1,a5
	ld	a0,-40(s0)
	call	ConvertFromTextUsbClass
	mv	a5,a0
	.loc 1 2303 1
	mv	a0,a5
	ld	ra,40(sp)
	.cfi_restore 1
	ld	s0,32(sp)
	.cfi_restore 8
	.cfi_def_cfa 2, 48
	addi	sp,sp,48
	.cfi_def_cfa_offset 0
	jr	ra
	.cfi_endproc
.LFE68:
	.size	DevPathFromTextUsbCDCData, .-DevPathFromTextUsbCDCData
	.section	.text.DevPathFromTextUsbSmartCard,"ax",@progbits
	.align	1
	.globl	DevPathFromTextUsbSmartCard
	.type	DevPathFromTextUsbSmartCard, @function
DevPathFromTextUsbSmartCard:
.LFB69:
	.loc 1 2317 1
	.cfi_startproc
	addi	sp,sp,-48
	.cfi_def_cfa_offset 48
	sd	ra,40(sp)
	sd	s0,32(sp)
	.cfi_offset 1, -8
	.cfi_offset 8, -16
	addi	s0,sp,48
	.cfi_def_cfa 8, 0
	sd	a0,-40(s0)
	.loc 1 2320 27
	sb	zero,-24(s0)
	.loc 1 2321 22
	li	a5,11
	sb	a5,-23(s0)
	.loc 1 2322 30
	li	a5,1
	sb	a5,-22(s0)
	.loc 1 2324 10
	addi	a5,s0,-24
	mv	a1,a5
	ld	a0,-40(s0)
	call	ConvertFromTextUsbClass
	mv	a5,a0
	.loc 1 2325 1
	mv	a0,a5
	ld	ra,40(sp)
	.cfi_restore 1
	ld	s0,32(sp)
	.cfi_restore 8
	.cfi_def_cfa 2, 48
	addi	sp,sp,48
	.cfi_def_cfa_offset 0
	jr	ra
	.cfi_endproc
.LFE69:
	.size	DevPathFromTextUsbSmartCard, .-DevPathFromTextUsbSmartCard
	.section	.text.DevPathFromTextUsbVideo,"ax",@progbits
	.align	1
	.globl	DevPathFromTextUsbVideo
	.type	DevPathFromTextUsbVideo, @function
DevPathFromTextUsbVideo:
.LFB70:
	.loc 1 2339 1
	.cfi_startproc
	addi	sp,sp,-48
	.cfi_def_cfa_offset 48
	sd	ra,40(sp)
	sd	s0,32(sp)
	.cfi_offset 1, -8
	.cfi_offset 8, -16
	addi	s0,sp,48
	.cfi_def_cfa 8, 0
	sd	a0,-40(s0)
	.loc 1 2342 27
	sb	zero,-24(s0)
	.loc 1 2343 22
	li	a5,14
	sb	a5,-23(s0)
	.loc 1 2344 30
	li	a5,1
	sb	a5,-22(s0)
	.loc 1 2346 10
	addi	a5,s0,-24
	mv	a1,a5
	ld	a0,-40(s0)
	call	ConvertFromTextUsbClass
	mv	a5,a0
	.loc 1 2347 1
	mv	a0,a5
	ld	ra,40(sp)
	.cfi_restore 1
	ld	s0,32(sp)
	.cfi_restore 8
	.cfi_def_cfa 2, 48
	addi	sp,sp,48
	.cfi_def_cfa_offset 0
	jr	ra
	.cfi_endproc
.LFE70:
	.size	DevPathFromTextUsbVideo, .-DevPathFromTextUsbVideo
	.section	.text.DevPathFromTextUsbDiagnostic,"ax",@progbits
	.align	1
	.globl	DevPathFromTextUsbDiagnostic
	.type	DevPathFromTextUsbDiagnostic, @function
DevPathFromTextUsbDiagnostic:
.LFB71:
	.loc 1 2361 1
	.cfi_startproc
	addi	sp,sp,-48
	.cfi_def_cfa_offset 48
	sd	ra,40(sp)
	sd	s0,32(sp)
	.cfi_offset 1, -8
	.cfi_offset 8, -16
	addi	s0,sp,48
	.cfi_def_cfa 8, 0
	sd	a0,-40(s0)
	.loc 1 2364 27
	sb	zero,-24(s0)
	.loc 1 2365 22
	li	a5,-36
	sb	a5,-23(s0)
	.loc 1 2366 30
	li	a5,1
	sb	a5,-22(s0)
	.loc 1 2368 10
	addi	a5,s0,-24
	mv	a1,a5
	ld	a0,-40(s0)
	call	ConvertFromTextUsbClass
	mv	a5,a0
	.loc 1 2369 1
	mv	a0,a5
	ld	ra,40(sp)
	.cfi_restore 1
	ld	s0,32(sp)
	.cfi_restore 8
	.cfi_def_cfa 2, 48
	addi	sp,sp,48
	.cfi_def_cfa_offset 0
	jr	ra
	.cfi_endproc
.LFE71:
	.size	DevPathFromTextUsbDiagnostic, .-DevPathFromTextUsbDiagnostic
	.section	.text.DevPathFromTextUsbWireless,"ax",@progbits
	.align	1
	.globl	DevPathFromTextUsbWireless
	.type	DevPathFromTextUsbWireless, @function
DevPathFromTextUsbWireless:
.LFB72:
	.loc 1 2383 1
	.cfi_startproc
	addi	sp,sp,-48
	.cfi_def_cfa_offset 48
	sd	ra,40(sp)
	sd	s0,32(sp)
	.cfi_offset 1, -8
	.cfi_offset 8, -16
	addi	s0,sp,48
	.cfi_def_cfa 8, 0
	sd	a0,-40(s0)
	.loc 1 2386 27
	sb	zero,-24(s0)
	.loc 1 2387 22
	li	a5,-32
	sb	a5,-23(s0)
	.loc 1 2388 30
	li	a5,1
	sb	a5,-22(s0)
	.loc 1 2390 10
	addi	a5,s0,-24
	mv	a1,a5
	ld	a0,-40(s0)
	call	ConvertFromTextUsbClass
	mv	a5,a0
	.loc 1 2391 1
	mv	a0,a5
	ld	ra,40(sp)
	.cfi_restore 1
	ld	s0,32(sp)
	.cfi_restore 8
	.cfi_def_cfa 2, 48
	addi	sp,sp,48
	.cfi_def_cfa_offset 0
	jr	ra
	.cfi_endproc
.LFE72:
	.size	DevPathFromTextUsbWireless, .-DevPathFromTextUsbWireless
	.section	.text.DevPathFromTextUsbDeviceFirmwareUpdate,"ax",@progbits
	.align	1
	.globl	DevPathFromTextUsbDeviceFirmwareUpdate
	.type	DevPathFromTextUsbDeviceFirmwareUpdate, @function
DevPathFromTextUsbDeviceFirmwareUpdate:
.LFB73:
	.loc 1 2405 1
	.cfi_startproc
	addi	sp,sp,-48
	.cfi_def_cfa_offset 48
	sd	ra,40(sp)
	sd	s0,32(sp)
	.cfi_offset 1, -8
	.cfi_offset 8, -16
	addi	s0,sp,48
	.cfi_def_cfa 8, 0
	sd	a0,-40(s0)
	.loc 1 2408 27
	sb	zero,-24(s0)
	.loc 1 2409 22
	li	a5,-2
	sb	a5,-23(s0)
	.loc 1 2410 30
	sb	zero,-22(s0)
	.loc 1 2411 25
	li	a5,1
	sb	a5,-21(s0)
	.loc 1 2413 10
	addi	a5,s0,-24
	mv	a1,a5
	ld	a0,-40(s0)
	call	ConvertFromTextUsbClass
	mv	a5,a0
	.loc 1 2414 1
	mv	a0,a5
	ld	ra,40(sp)
	.cfi_restore 1
	ld	s0,32(sp)
	.cfi_restore 8
	.cfi_def_cfa 2, 48
	addi	sp,sp,48
	.cfi_def_cfa_offset 0
	jr	ra
	.cfi_endproc
.LFE73:
	.size	DevPathFromTextUsbDeviceFirmwareUpdate, .-DevPathFromTextUsbDeviceFirmwareUpdate
	.section	.text.DevPathFromTextUsbIrdaBridge,"ax",@progbits
	.align	1
	.globl	DevPathFromTextUsbIrdaBridge
	.type	DevPathFromTextUsbIrdaBridge, @function
DevPathFromTextUsbIrdaBridge:
.LFB74:
	.loc 1 2428 1
	.cfi_startproc
	addi	sp,sp,-48
	.cfi_def_cfa_offset 48
	sd	ra,40(sp)
	sd	s0,32(sp)
	.cfi_offset 1, -8
	.cfi_offset 8, -16
	addi	s0,sp,48
	.cfi_def_cfa 8, 0
	sd	a0,-40(s0)
	.loc 1 2431 27
	sb	zero,-24(s0)
	.loc 1 2432 22
	li	a5,-2
	sb	a5,-23(s0)
	.loc 1 2433 30
	sb	zero,-22(s0)
	.loc 1 2434 25
	li	a5,2
	sb	a5,-21(s0)
	.loc 1 2436 10
	addi	a5,s0,-24
	mv	a1,a5
	ld	a0,-40(s0)
	call	ConvertFromTextUsbClass
	mv	a5,a0
	.loc 1 2437 1
	mv	a0,a5
	ld	ra,40(sp)
	.cfi_restore 1
	ld	s0,32(sp)
	.cfi_restore 8
	.cfi_def_cfa 2, 48
	addi	sp,sp,48
	.cfi_def_cfa_offset 0
	jr	ra
	.cfi_endproc
.LFE74:
	.size	DevPathFromTextUsbIrdaBridge, .-DevPathFromTextUsbIrdaBridge
	.section	.text.DevPathFromTextUsbTestAndMeasurement,"ax",@progbits
	.align	1
	.globl	DevPathFromTextUsbTestAndMeasurement
	.type	DevPathFromTextUsbTestAndMeasurement, @function
DevPathFromTextUsbTestAndMeasurement:
.LFB75:
	.loc 1 2451 1
	.cfi_startproc
	addi	sp,sp,-48
	.cfi_def_cfa_offset 48
	sd	ra,40(sp)
	sd	s0,32(sp)
	.cfi_offset 1, -8
	.cfi_offset 8, -16
	addi	s0,sp,48
	.cfi_def_cfa 8, 0
	sd	a0,-40(s0)
	.loc 1 2454 27
	sb	zero,-24(s0)
	.loc 1 2455 22
	li	a5,-2
	sb	a5,-23(s0)
	.loc 1 2456 30
	sb	zero,-22(s0)
	.loc 1 2457 25
	li	a5,3
	sb	a5,-21(s0)
	.loc 1 2459 10
	addi	a5,s0,-24
	mv	a1,a5
	ld	a0,-40(s0)
	call	ConvertFromTextUsbClass
	mv	a5,a0
	.loc 1 2460 1
	mv	a0,a5
	ld	ra,40(sp)
	.cfi_restore 1
	ld	s0,32(sp)
	.cfi_restore 8
	.cfi_def_cfa 2, 48
	addi	sp,sp,48
	.cfi_def_cfa_offset 0
	jr	ra
	.cfi_endproc
.LFE75:
	.size	DevPathFromTextUsbTestAndMeasurement, .-DevPathFromTextUsbTestAndMeasurement
	.section	.text.DevPathFromTextUsbWwid,"ax",@progbits
	.align	1
	.globl	DevPathFromTextUsbWwid
	.type	DevPathFromTextUsbWwid, @function
DevPathFromTextUsbWwid:
.LFB76:
	.loc 1 2474 1
	.cfi_startproc
	addi	sp,sp,-80
	.cfi_def_cfa_offset 80
	sd	ra,72(sp)
	sd	s0,64(sp)
	.cfi_offset 1, -8
	.cfi_offset 8, -16
	addi	s0,sp,80
	.cfi_def_cfa 8, 0
	sd	a0,-72(s0)
	.loc 1 2482 12
	addi	a5,s0,-72
	mv	a0,a5
	call	GetNextParamStr
	sd	a0,-40(s0)
	.loc 1 2483 12
	addi	a5,s0,-72
	mv	a0,a5
	call	GetNextParamStr
	sd	a0,-48(s0)
	.loc 1 2484 21
	addi	a5,s0,-72
	mv	a0,a5
	call	GetNextParamStr
	sd	a0,-56(s0)
	.loc 1 2485 21
	addi	a5,s0,-72
	mv	a0,a5
	call	GetNextParamStr
	sd	a0,-24(s0)
	.loc 1 2486 24
	ld	a0,-24(s0)
	call	StrLen
	sd	a0,-32(s0)
	.loc 1 2487 6
	ld	a4,-32(s0)
	li	a5,1
	bleu	a4,a5,.L293
	.loc 1 2488 22 discriminator 1
	ld	a5,-24(s0)
	lhu	a5,0(a5)
	.loc 1 2487 31 discriminator 1
	sext.w	a4,a5
	li	a5,34
	bne	a4,a5,.L293
	.loc 1 2489 22
	ld	a5,-32(s0)
	slli	a5,a5,1
	addi	a5,a5,-2
	ld	a4,-24(s0)
	add	a5,a4,a5
	lhu	a5,0(a5)
	.loc 1 2488 35
	sext.w	a4,a5
	li	a5,34
	bne	a4,a5,.L293
	.loc 1 2491 20
	ld	a5,-32(s0)
	slli	a5,a5,1
	addi	a5,a5,-2
	ld	a4,-24(s0)
	add	a5,a4,a5
	.loc 1 2491 45
	sh	zero,0(a5)
	.loc 1 2492 20
	ld	a5,-24(s0)
	addi	a5,a5,2
	sd	a5,-24(s0)
	.loc 1 2493 24
	ld	a5,-32(s0)
	addi	a5,a5,-2
	sd	a5,-32(s0)
.L293:
	.loc 1 2498 98
	ld	a5,-32(s0)
	slli	a5,a5,48
	srli	a5,a5,48
	addiw	a5,a5,5
	slli	a5,a5,48
	srli	a5,a5,48
	.loc 1 2495 38
	slliw	a5,a5,1
	slli	a5,a5,48
	srli	a5,a5,48
	mv	a2,a5
	li	a1,16
	li	a0,3
	call	CreateDeviceNode
	sd	a0,-64(s0)
	.loc 1 2500 32
	ld	a0,-40(s0)
	call	Strtoi
	mv	a5,a0
	.loc 1 2500 23
	slli	a4,a5,48
	srli	a4,a4,48
	.loc 1 2500 21
	ld	a5,-64(s0)
	andi	a1,a4,255
	lbu	a3,6(a5)
	andi	a3,a3,0
	mv	a2,a3
	mv	a3,a1
	or	a3,a2,a3
	sb	a3,6(a5)
	srliw	a4,a4,8
	slli	a2,a4,48
	srli	a2,a2,48
	lbu	a4,7(a5)
	andi	a4,a4,0
	mv	a3,a4
	mv	a4,a2
	or	a4,a3,a4
	sb	a4,7(a5)
	.loc 1 2501 33
	ld	a0,-48(s0)
	call	Strtoi
	mv	a5,a0
	.loc 1 2501 24
	slli	a4,a5,48
	srli	a4,a4,48
	.loc 1 2501 22
	ld	a5,-64(s0)
	andi	a1,a4,255
	lbu	a3,8(a5)
	andi	a3,a3,0
	mv	a2,a3
	mv	a3,a1
	or	a3,a2,a3
	sb	a3,8(a5)
	srliw	a4,a4,8
	slli	a2,a4,48
	srli	a2,a2,48
	lbu	a4,9(a5)
	andi	a4,a4,0
	mv	a3,a4
	mv	a4,a2
	or	a4,a3,a4
	sb	a4,9(a5)
	.loc 1 2502 39
	ld	a0,-56(s0)
	call	Strtoi
	mv	a5,a0
	.loc 1 2502 30
	slli	a4,a5,48
	srli	a4,a4,48
	.loc 1 2502 28
	ld	a5,-64(s0)
	andi	a1,a4,255
	lbu	a3,4(a5)
	andi	a3,a3,0
	mv	a2,a3
	mv	a3,a1
	or	a3,a2,a3
	sb	a3,4(a5)
	srliw	a4,a4,8
	slli	a2,a4,48
	srli	a2,a2,48
	lbu	a4,5(a5)
	andi	a4,a4,0
	mv	a3,a4
	mv	a4,a2
	or	a4,a3,a4
	sb	a4,5(a5)
	.loc 1 2508 3
	ld	a5,-64(s0)
	addi	a4,a5,10
	ld	a5,-32(s0)
	slli	a5,a5,1
	mv	a2,a5
	ld	a1,-24(s0)
	mv	a0,a4
	call	CopyMem
	.loc 1 2514 10
	ld	a5,-64(s0)
	.loc 1 2515 1
	mv	a0,a5
	ld	ra,72(sp)
	.cfi_restore 1
	ld	s0,64(sp)
	.cfi_restore 8
	.cfi_def_cfa 2, 80
	addi	sp,sp,80
	.cfi_def_cfa_offset 0
	jr	ra
	.cfi_endproc
.LFE76:
	.size	DevPathFromTextUsbWwid, .-DevPathFromTextUsbWwid
	.section	.text.DevPathFromTextUnit,"ax",@progbits
	.align	1
	.globl	DevPathFromTextUnit
	.type	DevPathFromTextUnit, @function
DevPathFromTextUnit:
.LFB77:
	.loc 1 2529 1
	.cfi_startproc
	addi	sp,sp,-48
	.cfi_def_cfa_offset 48
	sd	ra,40(sp)
	sd	s0,32(sp)
	.cfi_offset 1, -8
	.cfi_offset 8, -16
	addi	s0,sp,48
	.cfi_def_cfa 8, 0
	sd	a0,-40(s0)
	.loc 1 2533 12
	addi	a5,s0,-40
	mv	a0,a5
	call	GetNextParamStr
	sd	a0,-24(s0)
	.loc 1 2534 53
	li	a2,5
	li	a1,17
	li	a0,3
	call	CreateDeviceNode
	sd	a0,-32(s0)
	.loc 1 2540 30
	ld	a0,-24(s0)
	call	Strtoi
	mv	a5,a0
	.loc 1 2540 22
	andi	a4,a5,0xff
	.loc 1 2540 20
	ld	a5,-32(s0)
	sb	a4,4(a5)
	.loc 1 2542 10
	ld	a5,-32(s0)
	.loc 1 2543 1
	mv	a0,a5
	ld	ra,40(sp)
	.cfi_restore 1
	ld	s0,32(sp)
	.cfi_restore 8
	.cfi_def_cfa 2, 48
	addi	sp,sp,48
	.cfi_def_cfa_offset 0
	jr	ra
	.cfi_endproc
.LFE77:
	.size	DevPathFromTextUnit, .-DevPathFromTextUnit
	.section	.rodata
	.align	3
.LC24:
	.string	"C"
	.string	"R"
	.string	"C"
	.string	"3"
	.string	"2"
	.string	"C"
	.string	""
	.string	""
	.align	3
.LC25:
	.string	"N"
	.string	"o"
	.string	"n"
	.string	"e"
	.string	""
	.string	""
	.align	3
.LC26:
	.string	"C"
	.string	"H"
	.string	"A"
	.string	"P"
	.string	"_"
	.string	"U"
	.string	"N"
	.string	"I"
	.string	""
	.string	""
	.section	.text.DevPathFromTextiSCSI,"ax",@progbits
	.align	1
	.globl	DevPathFromTextiSCSI
	.type	DevPathFromTextiSCSI, @function
DevPathFromTextiSCSI:
.LFB78:
	.loc 1 2557 1
	.cfi_startproc
	addi	sp,sp,-144
	.cfi_def_cfa_offset 144
	sd	ra,136(sp)
	sd	s0,128(sp)
	sd	s1,120(sp)
	.cfi_offset 1, -8
	.cfi_offset 8, -16
	.cfi_offset 9, -24
	addi	s0,sp,144
	.cfi_def_cfa 8, 0
	sd	a0,-136(s0)
	.loc 1 2570 13
	addi	a5,s0,-136
	mv	a0,a5
	call	GetNextParamStr
	sd	a0,-48(s0)
	.loc 1 2571 20
	addi	a5,s0,-136
	mv	a0,a5
	call	GetNextParamStr
	sd	a0,-56(s0)
	.loc 1 2572 12
	addi	a5,s0,-136
	mv	a0,a5
	call	GetNextParamStr
	sd	a0,-64(s0)
	.loc 1 2573 21
	addi	a5,s0,-136
	mv	a0,a5
	call	GetNextParamStr
	sd	a0,-72(s0)
	.loc 1 2574 19
	addi	a5,s0,-136
	mv	a0,a5
	call	GetNextParamStr
	sd	a0,-80(s0)
	.loc 1 2575 23
	addi	a5,s0,-136
	mv	a0,a5
	call	GetNextParamStr
	sd	a0,-88(s0)
	.loc 1 2576 17
	addi	a5,s0,-136
	mv	a0,a5
	call	GetNextParamStr
	sd	a0,-96(s0)
	.loc 1 2580 106
	ld	a0,-48(s0)
	call	StrLen
	mv	a5,a0
	.loc 1 2577 50
	slli	a5,a5,48
	srli	a5,a5,48
	addiw	a5,a5,19
	slli	a5,a5,48
	srli	a5,a5,48
	mv	a2,a5
	li	a1,19
	li	a0,3
	call	CreateDeviceNode
	sd	a0,-104(s0)
	.loc 1 2583 14
	ld	a5,-104(s0)
	addi	a5,a5,18
	.loc 1 2583 12
	sd	a5,-112(s0)
	.loc 1 2584 3
	addi	a5,s0,-112
	mv	a1,a5
	ld	a0,-48(s0)
	call	StrToAscii
	.loc 1 2586 49
	ld	a0,-56(s0)
	call	Strtoi
	mv	a5,a0
	.loc 1 2586 40
	slli	a4,a5,48
	srli	a4,a4,48
	.loc 1 2586 38
	ld	a5,-104(s0)
	andi	a1,a4,255
	lbu	a3,16(a5)
	andi	a3,a3,0
	mv	a2,a3
	mv	a3,a1
	or	a3,a2,a3
	sb	a3,16(a5)
	srliw	a4,a4,8
	slli	a2,a4,48
	srli	a2,a2,48
	lbu	a4,17(a5)
	andi	a4,a4,0
	mv	a3,a4
	mv	a4,a2
	or	a4,a3,a4
	sb	a4,17(a5)
	.loc 1 2587 3
	addi	a5,s0,-120
	mv	a1,a5
	ld	a0,-64(s0)
	call	Strtoi64
	.loc 1 2588 3
	ld	a5,-104(s0)
	addi	s1,a5,8
	ld	a5,-120(s0)
	mv	a0,a5
	call	SwapBytes64
	mv	a5,a0
	mv	a1,a5
	mv	a0,s1
	call	WriteUnaligned64
	.loc 1 2590 11
	sh	zero,-34(s0)
	.loc 1 2591 7
	lla	a1,.LC24
	ld	a0,-72(s0)
	call	StrCmp
	mv	a5,a0
	.loc 1 2591 6
	bne	a5,zero,.L298
	.loc 1 2592 13
	lhu	a5,-34(s0)
	ori	a5,a5,2
	sh	a5,-34(s0)
.L298:
	.loc 1 2595 7
	lla	a1,.LC24
	ld	a0,-80(s0)
	call	StrCmp
	mv	a5,a0
	.loc 1 2595 6
	bne	a5,zero,.L299
	.loc 1 2596 13
	lhu	a5,-34(s0)
	ori	a5,a5,8
	sh	a5,-34(s0)
.L299:
	.loc 1 2599 7
	lla	a1,.LC25
	ld	a0,-88(s0)
	call	StrCmp
	mv	a5,a0
	.loc 1 2599 6
	bne	a5,zero,.L300
	.loc 1 2600 13
	lhu	a4,-34(s0)
	li	a5,4096
	addi	a5,a5,-2048
	or	a5,a4,a5
	sh	a5,-34(s0)
.L300:
	.loc 1 2603 7
	lla	a1,.LC26
	ld	a0,-88(s0)
	call	StrCmp
	mv	a5,a0
	.loc 1 2603 6
	bne	a5,zero,.L301
	.loc 1 2604 13
	lhu	a4,-34(s0)
	li	a5,4096
	or	a5,a4,a5
	sh	a5,-34(s0)
.L301:
	.loc 1 2607 29
	ld	a5,-104(s0)
	lhu	a4,-34(s0)
	andi	a2,a4,255
	lbu	a4,6(a5)
	andi	a4,a4,0
	mv	a3,a4
	mv	a4,a2
	or	a4,a3,a4
	sb	a4,6(a5)
	lhu	a4,-34(s0)
	srliw	a4,a4,8
	slli	a2,a4,48
	srli	a2,a2,48
	lbu	a4,7(a5)
	andi	a4,a4,0
	mv	a3,a4
	mv	a4,a2
	or	a4,a3,a4
	sb	a4,7(a5)
	.loc 1 2609 9
	ld	a5,-96(s0)
	lhu	a5,0(a5)
	.loc 1 2609 6
	beq	a5,zero,.L302
	.loc 1 2609 37 discriminator 1
	lla	a1,.LC16
	ld	a0,-96(s0)
	call	StrCmp
	mv	a5,a0
	.loc 1 2609 33 discriminator 1
	bne	a5,zero,.L303
.L302:
	.loc 1 2610 35
	ld	a5,-104(s0)
	lbu	a4,4(a5)
	andi	a4,a4,0
	sb	a4,4(a5)
	lbu	a4,5(a5)
	andi	a4,a4,0
	sb	a4,5(a5)
	j	.L304
.L303:
	.loc 1 2615 35
	ld	a5,-104(s0)
	lbu	a4,4(a5)
	andi	a4,a4,0
	ori	a4,a4,1
	sb	a4,4(a5)
	lbu	a4,5(a5)
	andi	a4,a4,0
	sb	a4,5(a5)
.L304:
	.loc 1 2618 10
	ld	a5,-104(s0)
	.loc 1 2619 1
	mv	a0,a5
	ld	ra,136(sp)
	.cfi_restore 1
	ld	s0,128(sp)
	.cfi_restore 8
	.cfi_def_cfa 2, 144
	ld	s1,120(sp)
	.cfi_restore 9
	addi	sp,sp,144
	.cfi_def_cfa_offset 0
	jr	ra
	.cfi_endproc
.LFE78:
	.size	DevPathFromTextiSCSI, .-DevPathFromTextiSCSI
	.section	.text.DevPathFromTextVlan,"ax",@progbits
	.align	1
	.globl	DevPathFromTextVlan
	.type	DevPathFromTextVlan, @function
DevPathFromTextVlan:
.LFB79:
	.loc 1 2633 1
	.cfi_startproc
	addi	sp,sp,-48
	.cfi_def_cfa_offset 48
	sd	ra,40(sp)
	sd	s0,32(sp)
	.cfi_offset 1, -8
	.cfi_offset 8, -16
	addi	s0,sp,48
	.cfi_def_cfa 8, 0
	sd	a0,-40(s0)
	.loc 1 2637 13
	addi	a5,s0,-40
	mv	a0,a5
	call	GetNextParamStr
	sd	a0,-24(s0)
	.loc 1 2638 31
	li	a2,6
	li	a1,20
	li	a0,3
	call	CreateDeviceNode
	sd	a0,-32(s0)
	.loc 1 2644 27
	ld	a0,-24(s0)
	call	Strtoi
	mv	a5,a0
	.loc 1 2644 18
	slli	a4,a5,48
	srli	a4,a4,48
	.loc 1 2644 16
	ld	a5,-32(s0)
	andi	a1,a4,255
	lbu	a3,4(a5)
	andi	a3,a3,0
	mv	a2,a3
	mv	a3,a1
	or	a3,a2,a3
	sb	a3,4(a5)
	srliw	a4,a4,8
	slli	a2,a4,48
	srli	a2,a2,48
	lbu	a4,5(a5)
	andi	a4,a4,0
	mv	a3,a4
	mv	a4,a2
	or	a4,a3,a4
	sb	a4,5(a5)
	.loc 1 2646 10
	ld	a5,-32(s0)
	.loc 1 2647 1
	mv	a0,a5
	ld	ra,40(sp)
	.cfi_restore 1
	ld	s0,32(sp)
	.cfi_restore 8
	.cfi_def_cfa 2, 48
	addi	sp,sp,48
	.cfi_def_cfa_offset 0
	jr	ra
	.cfi_endproc
.LFE79:
	.size	DevPathFromTextVlan, .-DevPathFromTextVlan
	.section	.text.DevPathFromTextBluetooth,"ax",@progbits
	.align	1
	.globl	DevPathFromTextBluetooth
	.type	DevPathFromTextBluetooth, @function
DevPathFromTextBluetooth:
.LFB80:
	.loc 1 2661 1
	.cfi_startproc
	addi	sp,sp,-48
	.cfi_def_cfa_offset 48
	sd	ra,40(sp)
	sd	s0,32(sp)
	.cfi_offset 1, -8
	.cfi_offset 8, -16
	addi	s0,sp,48
	.cfi_def_cfa 8, 0
	sd	a0,-40(s0)
	.loc 1 2665 18
	addi	a5,s0,-40
	mv	a0,a5
	call	GetNextParamStr
	sd	a0,-24(s0)
	.loc 1 2666 43
	li	a2,10
	li	a1,27
	li	a0,3
	call	CreateDeviceNode
	sd	a0,-32(s0)
	.loc 1 2674 25
	ld	a5,-32(s0)
	addi	a5,a5,4
	.loc 1 2671 3
	li	a3,6
	mv	a2,a5
	li	a1,12
	ld	a0,-24(s0)
	call	StrHexToBytes
	.loc 1 2677 10
	ld	a5,-32(s0)
	.loc 1 2678 1
	mv	a0,a5
	ld	ra,40(sp)
	.cfi_restore 1
	ld	s0,32(sp)
	.cfi_restore 8
	.cfi_def_cfa 2, 48
	addi	sp,sp,48
	.cfi_def_cfa_offset 0
	jr	ra
	.cfi_endproc
.LFE80:
	.size	DevPathFromTextBluetooth, .-DevPathFromTextBluetooth
	.section	.text.DevPathFromTextWiFi,"ax",@progbits
	.align	1
	.globl	DevPathFromTextWiFi
	.type	DevPathFromTextWiFi, @function
DevPathFromTextWiFi:
.LFB81:
	.loc 1 2692 1
	.cfi_startproc
	addi	sp,sp,-96
	.cfi_def_cfa_offset 96
	sd	ra,88(sp)
	sd	s0,80(sp)
	.cfi_offset 1, -8
	.cfi_offset 8, -16
	addi	s0,sp,96
	.cfi_def_cfa 8, 0
	sd	a0,-88(s0)
	.loc 1 2698 13
	addi	a5,s0,-88
	mv	a0,a5
	call	GetNextParamStr
	sd	a0,-32(s0)
	.loc 1 2699 33
	li	a2,36
	li	a1,28
	li	a0,3
	call	CreateDeviceNode
	sd	a0,-40(s0)
	.loc 1 2705 6
	ld	a5,-32(s0)
	beq	a5,zero,.L311
	.loc 1 2706 15
	ld	a0,-32(s0)
	call	StrLen
	sd	a0,-24(s0)
	.loc 1 2707 9
	ld	a0,-32(s0)
	call	StrLen
	mv	a4,a0
	.loc 1 2707 8
	li	a5,32
	bleu	a4,a5,.L312
	.loc 1 2708 14
	ld	a5,-32(s0)
	addi	a5,a5,64
	.loc 1 2708 19
	sh	zero,0(a5)
	.loc 1 2709 15
	li	a5,32
	sd	a5,-24(s0)
.L312:
	.loc 1 2712 5
	addi	a5,s0,-80
	li	a2,33
	mv	a1,a5
	ld	a0,-32(s0)
	call	UnicodeStrToAsciiStrS
	.loc 1 2713 20
	ld	a5,-40(s0)
	addi	a5,a5,4
	.loc 1 2713 5
	addi	a4,s0,-80
	ld	a2,-24(s0)
	mv	a1,a4
	mv	a0,a5
	call	CopyMem
.L311:
	.loc 1 2716 10
	ld	a5,-40(s0)
	.loc 1 2717 1
	mv	a0,a5
	ld	ra,88(sp)
	.cfi_restore 1
	ld	s0,80(sp)
	.cfi_restore 8
	.cfi_def_cfa 2, 96
	addi	sp,sp,96
	.cfi_def_cfa_offset 0
	jr	ra
	.cfi_endproc
.LFE81:
	.size	DevPathFromTextWiFi, .-DevPathFromTextWiFi
	.section	.text.DevPathFromTextBluetoothLE,"ax",@progbits
	.align	1
	.globl	DevPathFromTextBluetoothLE
	.type	DevPathFromTextBluetoothLE, @function
DevPathFromTextBluetoothLE:
.LFB82:
	.loc 1 2731 1
	.cfi_startproc
	addi	sp,sp,-64
	.cfi_def_cfa_offset 64
	sd	ra,56(sp)
	sd	s0,48(sp)
	.cfi_offset 1, -8
	.cfi_offset 8, -16
	addi	s0,sp,64
	.cfi_def_cfa 8, 0
	sd	a0,-56(s0)
	.loc 1 2736 24
	addi	a5,s0,-56
	mv	a0,a5
	call	GetNextParamStr
	sd	a0,-24(s0)
	.loc 1 2737 28
	addi	a5,s0,-56
	mv	a0,a5
	call	GetNextParamStr
	sd	a0,-32(s0)
	.loc 1 2738 48
	li	a2,11
	li	a1,30
	li	a0,3
	call	CreateDeviceNode
	sd	a0,-40(s0)
	.loc 1 2744 41
	ld	a0,-32(s0)
	call	Strtoi
	mv	a5,a0
	.loc 1 2744 33
	andi	a4,a5,0xff
	.loc 1 2744 31
	ld	a5,-40(s0)
	sb	a4,10(a5)
	.loc 1 2747 27
	ld	a5,-40(s0)
	addi	a5,a5,4
	.loc 1 2745 3
	li	a3,6
	mv	a2,a5
	li	a1,12
	ld	a0,-24(s0)
	call	StrHexToBytes
	.loc 1 2749 10
	ld	a5,-40(s0)
	.loc 1 2750 1
	mv	a0,a5
	ld	ra,56(sp)
	.cfi_restore 1
	ld	s0,48(sp)
	.cfi_restore 8
	.cfi_def_cfa 2, 64
	addi	sp,sp,64
	.cfi_def_cfa_offset 0
	jr	ra
	.cfi_endproc
.LFE82:
	.size	DevPathFromTextBluetoothLE, .-DevPathFromTextBluetoothLE
	.section	.text.DevPathFromTextDns,"ax",@progbits
	.align	1
	.globl	DevPathFromTextDns
	.type	DevPathFromTextDns, @function
DevPathFromTextDns:
.LFB83:
	.loc 1 2764 1
	.cfi_startproc
	addi	sp,sp,-80
	.cfi_def_cfa_offset 80
	sd	ra,72(sp)
	sd	s0,64(sp)
	.cfi_offset 1, -8
	.cfi_offset 8, -16
	addi	s0,sp,80
	.cfi_def_cfa 8, 0
	sd	a0,-72(s0)
	.loc 1 2777 19
	ld	a5,-72(s0)
	mv	a0,a5
	call	UefiDevicePathLibStrDuplicate
	sd	a0,-32(s0)
	.loc 1 2778 6
	ld	a5,-32(s0)
	bne	a5,zero,.L317
	.loc 1 2779 12
	li	a5,0
	j	.L333
.L317:
	.loc 1 2782 20
	ld	a5,-32(s0)
	sd	a5,-64(s0)
	.loc 1 2784 20
	sw	zero,-20(s0)
	.loc 1 2785 9
	j	.L319
.L321:
	.loc 1 2786 5
	addi	a5,s0,-64
	mv	a0,a5
	call	GetNextParamStr
	.loc 1 2787 22
	lw	a5,-20(s0)
	addiw	a5,a5,1
	sw	a5,-20(s0)
.L319:
	.loc 1 2785 27
	ld	a5,-64(s0)
	.loc 1 2785 9
	beq	a5,zero,.L320
	.loc 1 2785 46 discriminator 1
	ld	a5,-64(s0)
	lhu	a5,0(a5)
	.loc 1 2785 43 discriminator 1
	bne	a5,zero,.L321
.L320:
	.loc 1 2790 3
	ld	a0,-32(s0)
	call	FreePool
	.loc 1 2791 17
	sd	zero,-32(s0)
	.loc 1 2797 6
	lw	a5,-20(s0)
	sext.w	a5,a5
	bne	a5,zero,.L322
	.loc 1 2798 12
	li	a5,0
	j	.L333
.L322:
	.loc 1 2804 25
	lw	a5,-20(s0)
	slli	a5,a5,48
	srli	a5,a5,48
	slliw	a5,a5,4
	slli	a5,a5,48
	srli	a5,a5,48
	.loc 1 2804 23
	addiw	a5,a5,5
	sh	a5,-34(s0)
	.loc 1 2805 39
	lhu	a5,-34(s0)
	mv	a2,a5
	li	a1,31
	li	a0,3
	call	CreateDeviceNode
	sd	a0,-48(s0)
	.loc 1 2810 6
	ld	a5,-48(s0)
	bne	a5,zero,.L323
	.loc 1 2811 12
	li	a5,0
	j	.L333
.L323:
	.loc 1 2817 20
	ld	a5,-72(s0)
	sd	a5,-64(s0)
	.loc 1 2818 9
	j	.L324
.L328:
	.loc 1 2819 9
	ld	a5,-64(s0)
	lhu	a5,0(a5)
	.loc 1 2819 8
	sext.w	a4,a5
	li	a5,46
	bne	a4,a5,.L325
	.loc 1 2820 29
	ld	a5,-48(s0)
	sb	zero,4(a5)
	.loc 1 2821 7
	j	.L326
.L325:
	.loc 1 2824 9
	ld	a5,-64(s0)
	lhu	a5,0(a5)
	.loc 1 2824 8
	sext.w	a4,a5
	li	a5,58
	bne	a4,a5,.L327
	.loc 1 2825 29
	ld	a5,-48(s0)
	li	a4,1
	sb	a4,4(a5)
	.loc 1 2826 7
	j	.L326
.L327:
	.loc 1 2829 21
	ld	a5,-64(s0)
	addi	a5,a5,2
	sd	a5,-64(s0)
.L324:
	.loc 1 2818 13
	ld	a5,-64(s0)
	lhu	a5,0(a5)
	.loc 1 2818 9
	bne	a5,zero,.L328
.L326:
	.loc 1 2832 25
	sw	zero,-24(s0)
	.loc 1 2832 3
	j	.L329
.L332:
	.loc 1 2833 19
	addi	a5,s0,-72
	mv	a0,a5
	call	GetNextParamStr
	sd	a0,-56(s0)
	.loc 1 2834 22
	ld	a5,-48(s0)
	lbu	a5,4(a5)
	.loc 1 2834 8
	bne	a5,zero,.L330
	.loc 1 2835 52
	lwu	a5,-24(s0)
	slli	a5,a5,4
	ld	a4,-48(s0)
	add	a5,a4,a5
	addi	a5,a5,5
	.loc 1 2835 7
	li	a3,0
	mv	a2,a5
	li	a1,0
	ld	a0,-56(s0)
	call	StrToIpv4Address
	j	.L331
.L330:
	.loc 1 2837 52
	lwu	a5,-24(s0)
	slli	a5,a5,4
	ld	a4,-48(s0)
	add	a5,a4,a5
	addi	a5,a5,5
	.loc 1 2837 7
	li	a3,0
	mv	a2,a5
	li	a1,0
	ld	a0,-56(s0)
	call	StrToIpv6Address
.L331:
	.loc 1 2832 83 discriminator 2
	lw	a5,-24(s0)
	addiw	a5,a5,1
	sw	a5,-24(s0)
.L329:
	.loc 1 2832 3 discriminator 1
	lw	a4,-24(s0)
	lw	a5,-20(s0)
	sext.w	a4,a4
	sext.w	a5,a5
	bltu	a4,a5,.L332
	.loc 1 2841 10
	ld	a5,-48(s0)
.L333:
	.loc 1 2842 1 discriminator 1
	mv	a0,a5
	ld	ra,72(sp)
	.cfi_restore 1
	ld	s0,64(sp)
	.cfi_restore 8
	.cfi_def_cfa 2, 80
	addi	sp,sp,80
	.cfi_def_cfa_offset 0
	jr	ra
	.cfi_endproc
.LFE83:
	.size	DevPathFromTextDns, .-DevPathFromTextDns
	.section	.text.DevPathFromTextUri,"ax",@progbits
	.align	1
	.globl	DevPathFromTextUri
	.type	DevPathFromTextUri, @function
DevPathFromTextUri:
.LFB84:
	.loc 1 2856 1
	.cfi_startproc
	addi	sp,sp,-64
	.cfi_def_cfa_offset 64
	sd	ra,56(sp)
	sd	s0,48(sp)
	.cfi_offset 1, -8
	.cfi_offset 8, -16
	addi	s0,sp,64
	.cfi_def_cfa 8, 0
	sd	a0,-56(s0)
	.loc 1 2861 12
	addi	a5,s0,-56
	mv	a0,a5
	call	GetNextParamStr
	sd	a0,-32(s0)
	.loc 1 2862 15
	li	a5,65536
	addi	a1,a5,-5
	ld	a0,-32(s0)
	call	StrnLenS
	sd	a0,-24(s0)
	.loc 1 2863 29
	ld	a5,-24(s0)
	slli	a5,a5,48
	srli	a5,a5,48
	addiw	a5,a5,4
	slli	a5,a5,48
	srli	a5,a5,48
	mv	a2,a5
	li	a1,24
	li	a0,3
	call	CreateDeviceNode
	sd	a0,-40(s0)
	.loc 1 2869 9
	j	.L335
.L336:
	.loc 1 2870 41
	ld	a5,-24(s0)
	slli	a5,a5,1
	ld	a4,-32(s0)
	add	a5,a4,a5
	lhu	a5,0(a5)
	.loc 1 2870 27
	andi	a4,a5,0xff
	.loc 1 2870 25
	ld	a3,-40(s0)
	ld	a5,-24(s0)
	add	a5,a3,a5
	sb	a4,4(a5)
.L335:
	.loc 1 2869 19
	ld	a5,-24(s0)
	addi	a4,a5,-1
	sd	a4,-24(s0)
	.loc 1 2869 9
	bne	a5,zero,.L336
	.loc 1 2873 10
	ld	a5,-40(s0)
	.loc 1 2874 1
	mv	a0,a5
	ld	ra,56(sp)
	.cfi_restore 1
	ld	s0,48(sp)
	.cfi_restore 8
	.cfi_def_cfa 2, 64
	addi	sp,sp,64
	.cfi_def_cfa_offset 0
	jr	ra
	.cfi_endproc
.LFE84:
	.size	DevPathFromTextUri, .-DevPathFromTextUri
	.section	.text.DevPathFromTextMediaPath,"ax",@progbits
	.align	1
	.globl	DevPathFromTextMediaPath
	.type	DevPathFromTextMediaPath, @function
DevPathFromTextMediaPath:
.LFB85:
	.loc 1 2888 1
	.cfi_startproc
	addi	sp,sp,-32
	.cfi_def_cfa_offset 32
	sd	ra,24(sp)
	sd	s0,16(sp)
	.cfi_offset 1, -8
	.cfi_offset 8, -16
	addi	s0,sp,32
	.cfi_def_cfa 8, 0
	sd	a0,-24(s0)
	.loc 1 2889 10
	ld	a1,-24(s0)
	li	a0,4
	call	DevPathFromTextGenericPath
	mv	a5,a0
	.loc 1 2890 1
	mv	a0,a5
	ld	ra,24(sp)
	.cfi_restore 1
	ld	s0,16(sp)
	.cfi_restore 8
	.cfi_def_cfa 2, 32
	addi	sp,sp,32
	.cfi_def_cfa_offset 0
	jr	ra
	.cfi_endproc
.LFE85:
	.size	DevPathFromTextMediaPath, .-DevPathFromTextMediaPath
	.section	.rodata
	.align	3
.LC27:
	.string	"M"
	.string	"B"
	.string	"R"
	.string	""
	.string	""
	.align	3
.LC28:
	.string	"G"
	.string	"P"
	.string	"T"
	.string	""
	.string	""
	.section	.text.DevPathFromTextHD,"ax",@progbits
	.align	1
	.globl	DevPathFromTextHD
	.type	DevPathFromTextHD, @function
DevPathFromTextHD:
.LFB86:
	.loc 1 2904 1
	.cfi_startproc
	addi	sp,sp,-96
	.cfi_def_cfa_offset 96
	sd	ra,88(sp)
	sd	s0,80(sp)
	.cfi_offset 1, -8
	.cfi_offset 8, -16
	addi	s0,sp,96
	.cfi_def_cfa 8, 0
	sd	a0,-88(s0)
	.loc 1 2913 18
	addi	a5,s0,-88
	mv	a0,a5
	call	GetNextParamStr
	sd	a0,-24(s0)
	.loc 1 2914 13
	addi	a5,s0,-88
	mv	a0,a5
	call	GetNextParamStr
	sd	a0,-32(s0)
	.loc 1 2915 18
	addi	a5,s0,-88
	mv	a0,a5
	call	GetNextParamStr
	sd	a0,-40(s0)
	.loc 1 2916 14
	addi	a5,s0,-88
	mv	a0,a5
	call	GetNextParamStr
	sd	a0,-48(s0)
	.loc 1 2917 13
	addi	a5,s0,-88
	mv	a0,a5
	call	GetNextParamStr
	sd	a0,-56(s0)
	.loc 1 2918 34
	li	a2,42
	li	a1,1
	li	a0,4
	call	CreateDeviceNode
	sd	a0,-64(s0)
	.loc 1 2924 34
	ld	a0,-24(s0)
	call	Strtoi
	mv	a5,a0
	.loc 1 2924 25
	sext.w	a4,a5
	.loc 1 2924 23
	ld	a5,-64(s0)
	slli	a3,a4,32
	srli	a3,a3,32
	andi	a1,a3,255
	lbu	a3,4(a5)
	andi	a3,a3,0
	mv	a2,a3
	mv	a3,a1
	or	a3,a2,a3
	sb	a3,4(a5)
	srliw	a3,a4,8
	slli	a3,a3,32
	srli	a3,a3,32
	andi	a1,a3,255
	lbu	a3,5(a5)
	andi	a3,a3,0
	mv	a2,a3
	mv	a3,a1
	or	a3,a2,a3
	sb	a3,5(a5)
	srliw	a3,a4,16
	slli	a3,a3,32
	srli	a3,a3,32
	andi	a1,a3,255
	lbu	a3,6(a5)
	andi	a3,a3,0
	mv	a2,a3
	mv	a3,a1
	or	a3,a2,a3
	sb	a3,6(a5)
	srliw	a4,a4,24
	slli	a2,a4,32
	srli	a2,a2,32
	lbu	a4,7(a5)
	andi	a4,a4,0
	mv	a3,a4
	mv	a4,a2
	or	a4,a3,a4
	sb	a4,7(a5)
	.loc 1 2926 14
	ld	a5,-64(s0)
	addi	a5,a5,24
	.loc 1 2926 3
	li	a1,16
	mv	a0,a5
	call	ZeroMem
	.loc 1 2927 15
	ld	a5,-64(s0)
	sb	zero,40(a5)
	.loc 1 2929 7
	lla	a1,.LC27
	ld	a0,-32(s0)
	call	StrCmp
	mv	a5,a0
	.loc 1 2929 6
	bne	a5,zero,.L341
	.loc 1 2930 23
	ld	a5,-64(s0)
	li	a4,1
	sb	a4,41(a5)
	.loc 1 2931 17
	ld	a5,-64(s0)
	li	a4,1
	sb	a4,40(a5)
	.loc 1 2933 28
	ld	a0,-40(s0)
	call	Strtoi
	mv	a5,a0
	.loc 1 2933 19
	sext.w	a5,a5
	.loc 1 2933 17
	sw	a5,-68(s0)
	.loc 1 2934 16
	ld	a5,-64(s0)
	addi	a5,a5,24
	.loc 1 2934 5
	addi	a4,s0,-68
	li	a2,4
	mv	a1,a4
	mv	a0,a5
	call	CopyMem
	j	.L342
.L341:
	.loc 1 2935 14
	lla	a1,.LC28
	ld	a0,-32(s0)
	call	StrCmp
	mv	a5,a0
	.loc 1 2935 13
	bne	a5,zero,.L343
	.loc 1 2936 23
	ld	a5,-64(s0)
	li	a4,2
	sb	a4,41(a5)
	.loc 1 2937 17
	ld	a5,-64(s0)
	li	a4,2
	sb	a4,40(a5)
	.loc 1 2939 43
	ld	a5,-64(s0)
	addi	a5,a5,24
	.loc 1 2939 5
	mv	a1,a5
	ld	a0,-40(s0)
	call	StrToGuid
	j	.L342
.L343:
	.loc 1 2941 33
	ld	a0,-32(s0)
	call	Strtoi
	mv	a5,a0
	.loc 1 2941 25
	andi	a4,a5,0xff
	.loc 1 2941 23
	ld	a5,-64(s0)
	sb	a4,41(a5)
.L342:
	.loc 1 2944 3
	ld	a5,-64(s0)
	addi	a5,a5,8
	mv	a1,a5
	ld	a0,-48(s0)
	call	Strtoi64
	.loc 1 2945 3
	ld	a5,-64(s0)
	addi	a5,a5,16
	mv	a1,a5
	ld	a0,-56(s0)
	call	Strtoi64
	.loc 1 2947 10
	ld	a5,-64(s0)
	.loc 1 2948 1
	mv	a0,a5
	ld	ra,88(sp)
	.cfi_restore 1
	ld	s0,80(sp)
	.cfi_restore 8
	.cfi_def_cfa 2, 96
	addi	sp,sp,96
	.cfi_def_cfa_offset 0
	jr	ra
	.cfi_endproc
.LFE86:
	.size	DevPathFromTextHD, .-DevPathFromTextHD
	.section	.text.DevPathFromTextCDROM,"ax",@progbits
	.align	1
	.globl	DevPathFromTextCDROM
	.type	DevPathFromTextCDROM, @function
DevPathFromTextCDROM:
.LFB87:
	.loc 1 2962 1
	.cfi_startproc
	addi	sp,sp,-64
	.cfi_def_cfa_offset 64
	sd	ra,56(sp)
	sd	s0,48(sp)
	.cfi_offset 1, -8
	.cfi_offset 8, -16
	addi	s0,sp,64
	.cfi_def_cfa 8, 0
	sd	a0,-56(s0)
	.loc 1 2968 14
	addi	a5,s0,-56
	mv	a0,a5
	call	GetNextParamStr
	sd	a0,-24(s0)
	.loc 1 2969 14
	addi	a5,s0,-56
	mv	a0,a5
	call	GetNextParamStr
	sd	a0,-32(s0)
	.loc 1 2970 13
	addi	a5,s0,-56
	mv	a0,a5
	call	GetNextParamStr
	sd	a0,-40(s0)
	.loc 1 2971 40
	li	a2,24
	li	a1,2
	li	a0,4
	call	CreateDeviceNode
	sd	a0,-48(s0)
	.loc 1 2977 38
	ld	a0,-24(s0)
	call	Strtoi
	mv	a5,a0
	.loc 1 2977 29
	sext.w	a4,a5
	.loc 1 2977 27
	ld	a5,-48(s0)
	slli	a3,a4,32
	srli	a3,a3,32
	andi	a1,a3,255
	lbu	a3,4(a5)
	andi	a3,a3,0
	mv	a2,a3
	mv	a3,a1
	or	a3,a2,a3
	sb	a3,4(a5)
	srliw	a3,a4,8
	slli	a3,a3,32
	srli	a3,a3,32
	andi	a1,a3,255
	lbu	a3,5(a5)
	andi	a3,a3,0
	mv	a2,a3
	mv	a3,a1
	or	a3,a2,a3
	sb	a3,5(a5)
	srliw	a3,a4,16
	slli	a3,a3,32
	srli	a3,a3,32
	andi	a1,a3,255
	lbu	a3,6(a5)
	andi	a3,a3,0
	mv	a2,a3
	mv	a3,a1
	or	a3,a2,a3
	sb	a3,6(a5)
	srliw	a4,a4,24
	slli	a2,a4,32
	srli	a2,a2,32
	lbu	a4,7(a5)
	andi	a4,a4,0
	mv	a3,a4
	mv	a4,a2
	or	a4,a3,a4
	sb	a4,7(a5)
	.loc 1 2978 3
	ld	a5,-48(s0)
	addi	a5,a5,8
	mv	a1,a5
	ld	a0,-32(s0)
	call	Strtoi64
	.loc 1 2979 3
	ld	a5,-48(s0)
	addi	a5,a5,16
	mv	a1,a5
	ld	a0,-40(s0)
	call	Strtoi64
	.loc 1 2981 10
	ld	a5,-48(s0)
	.loc 1 2982 1
	mv	a0,a5
	ld	ra,56(sp)
	.cfi_restore 1
	ld	s0,48(sp)
	.cfi_restore 8
	.cfi_def_cfa 2, 64
	addi	sp,sp,64
	.cfi_def_cfa_offset 0
	jr	ra
	.cfi_endproc
.LFE87:
	.size	DevPathFromTextCDROM, .-DevPathFromTextCDROM
	.section	.text.DevPathFromTextVenMedia,"ax",@progbits
	.align	1
	.globl	DevPathFromTextVenMedia
	.type	DevPathFromTextVenMedia, @function
DevPathFromTextVenMedia:
.LFB88:
	.loc 1 2996 1
	.cfi_startproc
	addi	sp,sp,-32
	.cfi_def_cfa_offset 32
	sd	ra,24(sp)
	sd	s0,16(sp)
	.cfi_offset 1, -8
	.cfi_offset 8, -16
	addi	s0,sp,32
	.cfi_def_cfa 8, 0
	sd	a0,-24(s0)
	.loc 1 2997 10
	li	a2,3
	li	a1,4
	ld	a0,-24(s0)
	call	ConvertFromTextVendor
	mv	a5,a0
	.loc 1 3002 1
	mv	a0,a5
	ld	ra,24(sp)
	.cfi_restore 1
	ld	s0,16(sp)
	.cfi_restore 8
	.cfi_def_cfa 2, 32
	addi	sp,sp,32
	.cfi_def_cfa_offset 0
	jr	ra
	.cfi_endproc
.LFE88:
	.size	DevPathFromTextVenMedia, .-DevPathFromTextVenMedia
	.section	.text.DevPathFromTextFilePath,"ax",@progbits
	.align	1
	.globl	DevPathFromTextFilePath
	.type	DevPathFromTextFilePath, @function
DevPathFromTextFilePath:
.LFB89:
	.loc 1 3016 1
	.cfi_startproc
	addi	sp,sp,-64
	.cfi_def_cfa_offset 64
	sd	ra,56(sp)
	sd	s0,48(sp)
	sd	s1,40(sp)
	.cfi_offset 1, -8
	.cfi_offset 8, -16
	.cfi_offset 9, -24
	addi	s0,sp,64
	.cfi_def_cfa 8, 0
	sd	a0,-56(s0)
	.loc 1 3022 79
	ld	a0,-56(s0)
	call	StrLen
	mv	a5,a0
	.loc 1 3022 77
	slli	a5,a5,48
	srli	a5,a5,48
	addiw	a5,a5,3
	slli	a5,a5,48
	srli	a5,a5,48
	.loc 1 3019 35
	slliw	a5,a5,1
	slli	a5,a5,48
	srli	a5,a5,48
	mv	a2,a5
	li	a1,4
	li	a0,4
	call	CreateDeviceNode
	sd	a0,-40(s0)
	.loc 1 3025 16
	ld	a5,-40(s0)
	addi	s1,a5,4
	.loc 1 3025 28
	ld	a0,-56(s0)
	call	StrLen
	mv	a5,a0
	.loc 1 3025 3
	addi	a5,a5,1
	ld	a2,-56(s0)
	mv	a1,a5
	mv	a0,s1
	call	StrCpyS
	.loc 1 3027 10
	ld	a5,-40(s0)
	.loc 1 3028 1
	mv	a0,a5
	ld	ra,56(sp)
	.cfi_restore 1
	ld	s0,48(sp)
	.cfi_restore 8
	.cfi_def_cfa 2, 64
	ld	s1,40(sp)
	.cfi_restore 9
	addi	sp,sp,64
	.cfi_def_cfa_offset 0
	jr	ra
	.cfi_endproc
.LFE89:
	.size	DevPathFromTextFilePath, .-DevPathFromTextFilePath
	.section	.text.DevPathFromTextMedia,"ax",@progbits
	.align	1
	.globl	DevPathFromTextMedia
	.type	DevPathFromTextMedia, @function
DevPathFromTextMedia:
.LFB90:
	.loc 1 3042 1
	.cfi_startproc
	addi	sp,sp,-48
	.cfi_def_cfa_offset 48
	sd	ra,40(sp)
	sd	s0,32(sp)
	.cfi_offset 1, -8
	.cfi_offset 8, -16
	addi	s0,sp,48
	.cfi_def_cfa 8, 0
	sd	a0,-40(s0)
	.loc 1 3046 13
	addi	a5,s0,-40
	mv	a0,a5
	call	GetNextParamStr
	sd	a0,-24(s0)
	.loc 1 3047 42
	li	a2,20
	li	a1,5
	li	a0,4
	call	CreateDeviceNode
	sd	a0,-32(s0)
	.loc 1 3053 23
	ld	a5,-32(s0)
	addi	a5,a5,4
	.loc 1 3053 3
	mv	a1,a5
	ld	a0,-24(s0)
	call	StrToGuid
	.loc 1 3055 10
	ld	a5,-32(s0)
	.loc 1 3056 1
	mv	a0,a5
	ld	ra,40(sp)
	.cfi_restore 1
	ld	s0,32(sp)
	.cfi_restore 8
	.cfi_def_cfa 2, 48
	addi	sp,sp,48
	.cfi_def_cfa_offset 0
	jr	ra
	.cfi_endproc
.LFE90:
	.size	DevPathFromTextMedia, .-DevPathFromTextMedia
	.section	.text.DevPathFromTextFv,"ax",@progbits
	.align	1
	.globl	DevPathFromTextFv
	.type	DevPathFromTextFv, @function
DevPathFromTextFv:
.LFB91:
	.loc 1 3070 1
	.cfi_startproc
	addi	sp,sp,-48
	.cfi_def_cfa_offset 48
	sd	ra,40(sp)
	sd	s0,32(sp)
	.cfi_offset 1, -8
	.cfi_offset 8, -16
	addi	s0,sp,48
	.cfi_def_cfa 8, 0
	sd	a0,-40(s0)
	.loc 1 3074 13
	addi	a5,s0,-40
	mv	a0,a5
	call	GetNextParamStr
	sd	a0,-24(s0)
	.loc 1 3075 37
	li	a2,20
	li	a1,7
	li	a0,4
	call	CreateDeviceNode
	sd	a0,-32(s0)
	.loc 1 3081 23
	ld	a5,-32(s0)
	addi	a5,a5,4
	.loc 1 3081 3
	mv	a1,a5
	ld	a0,-24(s0)
	call	StrToGuid
	.loc 1 3083 10
	ld	a5,-32(s0)
	.loc 1 3084 1
	mv	a0,a5
	ld	ra,40(sp)
	.cfi_restore 1
	ld	s0,32(sp)
	.cfi_restore 8
	.cfi_def_cfa 2, 48
	addi	sp,sp,48
	.cfi_def_cfa_offset 0
	jr	ra
	.cfi_endproc
.LFE91:
	.size	DevPathFromTextFv, .-DevPathFromTextFv
	.section	.text.DevPathFromTextFvFile,"ax",@progbits
	.align	1
	.globl	DevPathFromTextFvFile
	.type	DevPathFromTextFvFile, @function
DevPathFromTextFvFile:
.LFB92:
	.loc 1 3098 1
	.cfi_startproc
	addi	sp,sp,-48
	.cfi_def_cfa_offset 48
	sd	ra,40(sp)
	sd	s0,32(sp)
	.cfi_offset 1, -8
	.cfi_offset 8, -16
	addi	s0,sp,48
	.cfi_def_cfa 8, 0
	sd	a0,-40(s0)
	.loc 1 3102 13
	addi	a5,s0,-40
	mv	a0,a5
	call	GetNextParamStr
	sd	a0,-24(s0)
	.loc 1 3103 50
	li	a2,20
	li	a1,6
	li	a0,4
	call	CreateDeviceNode
	sd	a0,-32(s0)
	.loc 1 3109 23
	ld	a5,-32(s0)
	addi	a5,a5,4
	.loc 1 3109 3
	mv	a1,a5
	ld	a0,-24(s0)
	call	StrToGuid
	.loc 1 3111 10
	ld	a5,-32(s0)
	.loc 1 3112 1
	mv	a0,a5
	ld	ra,40(sp)
	.cfi_restore 1
	ld	s0,32(sp)
	.cfi_restore 8
	.cfi_def_cfa 2, 48
	addi	sp,sp,48
	.cfi_def_cfa_offset 0
	jr	ra
	.cfi_endproc
.LFE92:
	.size	DevPathFromTextFvFile, .-DevPathFromTextFvFile
	.section	.text.DevPathFromTextRelativeOffsetRange,"ax",@progbits
	.align	1
	.globl	DevPathFromTextRelativeOffsetRange
	.type	DevPathFromTextRelativeOffsetRange, @function
DevPathFromTextRelativeOffsetRange:
.LFB93:
	.loc 1 3126 1
	.cfi_startproc
	addi	sp,sp,-64
	.cfi_def_cfa_offset 64
	sd	ra,56(sp)
	sd	s0,48(sp)
	.cfi_offset 1, -8
	.cfi_offset 8, -16
	addi	s0,sp,64
	.cfi_def_cfa 8, 0
	sd	a0,-56(s0)
	.loc 1 3131 23
	addi	a5,s0,-56
	mv	a0,a5
	call	GetNextParamStr
	sd	a0,-24(s0)
	.loc 1 3132 21
	addi	a5,s0,-56
	mv	a0,a5
	call	GetNextParamStr
	sd	a0,-32(s0)
	.loc 1 3133 56
	li	a2,24
	li	a1,8
	li	a0,4
	call	CreateDeviceNode
	sd	a0,-40(s0)
	.loc 1 3139 3
	ld	a5,-40(s0)
	addi	a5,a5,8
	mv	a1,a5
	ld	a0,-24(s0)
	call	Strtoi64
	.loc 1 3140 3
	ld	a5,-40(s0)
	addi	a5,a5,16
	mv	a1,a5
	ld	a0,-32(s0)
	call	Strtoi64
	.loc 1 3142 10
	ld	a5,-40(s0)
	.loc 1 3143 1
	mv	a0,a5
	ld	ra,56(sp)
	.cfi_restore 1
	ld	s0,48(sp)
	.cfi_restore 8
	.cfi_def_cfa 2, 64
	addi	sp,sp,64
	.cfi_def_cfa_offset 0
	jr	ra
	.cfi_endproc
.LFE93:
	.size	DevPathFromTextRelativeOffsetRange, .-DevPathFromTextRelativeOffsetRange
	.section	.text.DevPathFromTextRamDisk,"ax",@progbits
	.align	1
	.globl	DevPathFromTextRamDisk
	.type	DevPathFromTextRamDisk, @function
DevPathFromTextRamDisk:
.LFB94:
	.loc 1 3157 1
	.cfi_startproc
	addi	sp,sp,-96
	.cfi_def_cfa_offset 96
	sd	ra,88(sp)
	sd	s0,80(sp)
	.cfi_offset 1, -8
	.cfi_offset 8, -16
	addi	s0,sp,96
	.cfi_def_cfa 8, 0
	sd	a0,-88(s0)
	.loc 1 3166 21
	addi	a5,s0,-88
	mv	a0,a5
	call	GetNextParamStr
	sd	a0,-24(s0)
	.loc 1 3167 19
	addi	a5,s0,-88
	mv	a0,a5
	call	GetNextParamStr
	sd	a0,-32(s0)
	.loc 1 3168 17
	addi	a5,s0,-88
	mv	a0,a5
	call	GetNextParamStr
	sd	a0,-40(s0)
	.loc 1 3169 17
	addi	a5,s0,-88
	mv	a0,a5
	call	GetNextParamStr
	sd	a0,-48(s0)
	.loc 1 3170 44
	li	a2,38
	li	a1,9
	li	a0,4
	call	CreateDeviceNode
	sd	a0,-56(s0)
	.loc 1 3176 3
	addi	a5,s0,-64
	mv	a1,a5
	ld	a0,-24(s0)
	call	Strtoi64
	.loc 1 3177 32
	ld	a5,-56(s0)
	addi	a5,a5,4
	.loc 1 3177 3
	ld	a4,-64(s0)
	mv	a1,a4
	mv	a0,a5
	call	WriteUnaligned64
	.loc 1 3178 3
	addi	a5,s0,-72
	mv	a1,a5
	ld	a0,-32(s0)
	call	Strtoi64
	.loc 1 3179 32
	ld	a5,-56(s0)
	addi	a5,a5,12
	.loc 1 3179 3
	ld	a4,-72(s0)
	mv	a1,a4
	mv	a0,a5
	call	WriteUnaligned64
	.loc 1 3180 32
	ld	a0,-40(s0)
	call	Strtoi
	mv	a5,a0
	.loc 1 3180 23
	slli	a4,a5,48
	srli	a4,a4,48
	.loc 1 3180 21
	ld	a5,-56(s0)
	andi	a1,a4,255
	lbu	a3,36(a5)
	andi	a3,a3,0
	mv	a2,a3
	mv	a3,a1
	or	a3,a2,a3
	sb	a3,36(a5)
	srliw	a4,a4,8
	slli	a2,a4,48
	srli	a2,a2,48
	lbu	a4,37(a5)
	andi	a4,a4,0
	mv	a3,a4
	mv	a4,a2
	or	a4,a3,a4
	sb	a4,37(a5)
	.loc 1 3181 27
	ld	a5,-56(s0)
	addi	a5,a5,20
	.loc 1 3181 3
	mv	a1,a5
	ld	a0,-48(s0)
	call	StrToGuid
	.loc 1 3183 10
	ld	a5,-56(s0)
	.loc 1 3184 1
	mv	a0,a5
	ld	ra,88(sp)
	.cfi_restore 1
	ld	s0,80(sp)
	.cfi_restore 8
	.cfi_def_cfa 2, 96
	addi	sp,sp,96
	.cfi_def_cfa_offset 0
	jr	ra
	.cfi_endproc
.LFE94:
	.size	DevPathFromTextRamDisk, .-DevPathFromTextRamDisk
	.section	.text.DevPathFromTextVirtualDisk,"ax",@progbits
	.align	1
	.globl	DevPathFromTextVirtualDisk
	.type	DevPathFromTextVirtualDisk, @function
DevPathFromTextVirtualDisk:
.LFB95:
	.loc 1 3198 1
	.cfi_startproc
	addi	sp,sp,-80
	.cfi_def_cfa_offset 80
	sd	ra,72(sp)
	sd	s0,64(sp)
	.cfi_offset 1, -8
	.cfi_offset 8, -16
	addi	s0,sp,80
	.cfi_def_cfa 8, 0
	sd	a0,-72(s0)
	.loc 1 3206 21
	addi	a5,s0,-72
	mv	a0,a5
	call	GetNextParamStr
	sd	a0,-24(s0)
	.loc 1 3207 19
	addi	a5,s0,-72
	mv	a0,a5
	call	GetNextParamStr
	sd	a0,-32(s0)
	.loc 1 3208 17
	addi	a5,s0,-72
	mv	a0,a5
	call	GetNextParamStr
	sd	a0,-40(s0)
	.loc 1 3210 44
	li	a2,38
	li	a1,9
	li	a0,4
	call	CreateDeviceNode
	sd	a0,-48(s0)
	.loc 1 3216 3
	addi	a5,s0,-56
	mv	a1,a5
	ld	a0,-24(s0)
	call	Strtoi64
	.loc 1 3217 32
	ld	a5,-48(s0)
	addi	a5,a5,4
	.loc 1 3217 3
	ld	a4,-56(s0)
	mv	a1,a4
	mv	a0,a5
	call	WriteUnaligned64
	.loc 1 3218 3
	addi	a5,s0,-64
	mv	a1,a5
	ld	a0,-32(s0)
	call	Strtoi64
	.loc 1 3219 32
	ld	a5,-48(s0)
	addi	a5,a5,12
	.loc 1 3219 3
	ld	a4,-64(s0)
	mv	a1,a4
	mv	a0,a5
	call	WriteUnaligned64
	.loc 1 3220 32
	ld	a0,-40(s0)
	call	Strtoi
	mv	a5,a0
	.loc 1 3220 23
	slli	a4,a5,48
	srli	a4,a4,48
	.loc 1 3220 21
	ld	a5,-48(s0)
	andi	a1,a4,255
	lbu	a3,36(a5)
	andi	a3,a3,0
	mv	a2,a3
	mv	a3,a1
	or	a3,a2,a3
	sb	a3,36(a5)
	srliw	a4,a4,8
	slli	a2,a4,48
	srli	a2,a2,48
	lbu	a4,37(a5)
	andi	a4,a4,0
	mv	a3,a4
	mv	a4,a2
	or	a4,a3,a4
	sb	a4,37(a5)
	.loc 1 3221 13
	ld	a5,-48(s0)
	addi	a5,a5,20
	.loc 1 3221 3
	lla	a1,gEfiVirtualDiskGuid
	mv	a0,a5
	call	CopyGuid
	.loc 1 3223 10
	ld	a5,-48(s0)
	.loc 1 3224 1
	mv	a0,a5
	ld	ra,72(sp)
	.cfi_restore 1
	ld	s0,64(sp)
	.cfi_restore 8
	.cfi_def_cfa 2, 80
	addi	sp,sp,80
	.cfi_def_cfa_offset 0
	jr	ra
	.cfi_endproc
.LFE95:
	.size	DevPathFromTextVirtualDisk, .-DevPathFromTextVirtualDisk
	.section	.text.DevPathFromTextVirtualCd,"ax",@progbits
	.align	1
	.globl	DevPathFromTextVirtualCd
	.type	DevPathFromTextVirtualCd, @function
DevPathFromTextVirtualCd:
.LFB96:
	.loc 1 3238 1
	.cfi_startproc
	addi	sp,sp,-80
	.cfi_def_cfa_offset 80
	sd	ra,72(sp)
	sd	s0,64(sp)
	.cfi_offset 1, -8
	.cfi_offset 8, -16
	addi	s0,sp,80
	.cfi_def_cfa 8, 0
	sd	a0,-72(s0)
	.loc 1 3246 21
	addi	a5,s0,-72
	mv	a0,a5
	call	GetNextParamStr
	sd	a0,-24(s0)
	.loc 1 3247 19
	addi	a5,s0,-72
	mv	a0,a5
	call	GetNextParamStr
	sd	a0,-32(s0)
	.loc 1 3248 17
	addi	a5,s0,-72
	mv	a0,a5
	call	GetNextParamStr
	sd	a0,-40(s0)
	.loc 1 3250 44
	li	a2,38
	li	a1,9
	li	a0,4
	call	CreateDeviceNode
	sd	a0,-48(s0)
	.loc 1 3256 3
	addi	a5,s0,-56
	mv	a1,a5
	ld	a0,-24(s0)
	call	Strtoi64
	.loc 1 3257 32
	ld	a5,-48(s0)
	addi	a5,a5,4
	.loc 1 3257 3
	ld	a4,-56(s0)
	mv	a1,a4
	mv	a0,a5
	call	WriteUnaligned64
	.loc 1 3258 3
	addi	a5,s0,-64
	mv	a1,a5
	ld	a0,-32(s0)
	call	Strtoi64
	.loc 1 3259 32
	ld	a5,-48(s0)
	addi	a5,a5,12
	.loc 1 3259 3
	ld	a4,-64(s0)
	mv	a1,a4
	mv	a0,a5
	call	WriteUnaligned64
	.loc 1 3260 32
	ld	a0,-40(s0)
	call	Strtoi
	mv	a5,a0
	.loc 1 3260 23
	slli	a4,a5,48
	srli	a4,a4,48
	.loc 1 3260 21
	ld	a5,-48(s0)
	andi	a1,a4,255
	lbu	a3,36(a5)
	andi	a3,a3,0
	mv	a2,a3
	mv	a3,a1
	or	a3,a2,a3
	sb	a3,36(a5)
	srliw	a4,a4,8
	slli	a2,a4,48
	srli	a2,a2,48
	lbu	a4,37(a5)
	andi	a4,a4,0
	mv	a3,a4
	mv	a4,a2
	or	a4,a3,a4
	sb	a4,37(a5)
	.loc 1 3261 13
	ld	a5,-48(s0)
	addi	a5,a5,20
	.loc 1 3261 3
	lla	a1,gEfiVirtualCdGuid
	mv	a0,a5
	call	CopyGuid
	.loc 1 3263 10
	ld	a5,-48(s0)
	.loc 1 3264 1
	mv	a0,a5
	ld	ra,72(sp)
	.cfi_restore 1
	ld	s0,64(sp)
	.cfi_restore 8
	.cfi_def_cfa 2, 80
	addi	sp,sp,80
	.cfi_def_cfa_offset 0
	jr	ra
	.cfi_endproc
.LFE96:
	.size	DevPathFromTextVirtualCd, .-DevPathFromTextVirtualCd
	.section	.text.DevPathFromTextPersistentVirtualDisk,"ax",@progbits
	.align	1
	.globl	DevPathFromTextPersistentVirtualDisk
	.type	DevPathFromTextPersistentVirtualDisk, @function
DevPathFromTextPersistentVirtualDisk:
.LFB97:
	.loc 1 3278 1
	.cfi_startproc
	addi	sp,sp,-80
	.cfi_def_cfa_offset 80
	sd	ra,72(sp)
	sd	s0,64(sp)
	.cfi_offset 1, -8
	.cfi_offset 8, -16
	addi	s0,sp,80
	.cfi_def_cfa 8, 0
	sd	a0,-72(s0)
	.loc 1 3286 21
	addi	a5,s0,-72
	mv	a0,a5
	call	GetNextParamStr
	sd	a0,-24(s0)
	.loc 1 3287 19
	addi	a5,s0,-72
	mv	a0,a5
	call	GetNextParamStr
	sd	a0,-32(s0)
	.loc 1 3288 17
	addi	a5,s0,-72
	mv	a0,a5
	call	GetNextParamStr
	sd	a0,-40(s0)
	.loc 1 3290 44
	li	a2,38
	li	a1,9
	li	a0,4
	call	CreateDeviceNode
	sd	a0,-48(s0)
	.loc 1 3296 3
	addi	a5,s0,-56
	mv	a1,a5
	ld	a0,-24(s0)
	call	Strtoi64
	.loc 1 3297 32
	ld	a5,-48(s0)
	addi	a5,a5,4
	.loc 1 3297 3
	ld	a4,-56(s0)
	mv	a1,a4
	mv	a0,a5
	call	WriteUnaligned64
	.loc 1 3298 3
	addi	a5,s0,-64
	mv	a1,a5
	ld	a0,-32(s0)
	call	Strtoi64
	.loc 1 3299 32
	ld	a5,-48(s0)
	addi	a5,a5,12
	.loc 1 3299 3
	ld	a4,-64(s0)
	mv	a1,a4
	mv	a0,a5
	call	WriteUnaligned64
	.loc 1 3300 32
	ld	a0,-40(s0)
	call	Strtoi
	mv	a5,a0
	.loc 1 3300 23
	slli	a4,a5,48
	srli	a4,a4,48
	.loc 1 3300 21
	ld	a5,-48(s0)
	andi	a1,a4,255
	lbu	a3,36(a5)
	andi	a3,a3,0
	mv	a2,a3
	mv	a3,a1
	or	a3,a2,a3
	sb	a3,36(a5)
	srliw	a4,a4,8
	slli	a2,a4,48
	srli	a2,a2,48
	lbu	a4,37(a5)
	andi	a4,a4,0
	mv	a3,a4
	mv	a4,a2
	or	a4,a3,a4
	sb	a4,37(a5)
	.loc 1 3301 13
	ld	a5,-48(s0)
	addi	a5,a5,20
	.loc 1 3301 3
	lla	a1,gEfiPersistentVirtualDiskGuid
	mv	a0,a5
	call	CopyGuid
	.loc 1 3303 10
	ld	a5,-48(s0)
	.loc 1 3304 1
	mv	a0,a5
	ld	ra,72(sp)
	.cfi_restore 1
	ld	s0,64(sp)
	.cfi_restore 8
	.cfi_def_cfa 2, 80
	addi	sp,sp,80
	.cfi_def_cfa_offset 0
	jr	ra
	.cfi_endproc
.LFE97:
	.size	DevPathFromTextPersistentVirtualDisk, .-DevPathFromTextPersistentVirtualDisk
	.section	.text.DevPathFromTextPersistentVirtualCd,"ax",@progbits
	.align	1
	.globl	DevPathFromTextPersistentVirtualCd
	.type	DevPathFromTextPersistentVirtualCd, @function
DevPathFromTextPersistentVirtualCd:
.LFB98:
	.loc 1 3318 1
	.cfi_startproc
	addi	sp,sp,-80
	.cfi_def_cfa_offset 80
	sd	ra,72(sp)
	sd	s0,64(sp)
	.cfi_offset 1, -8
	.cfi_offset 8, -16
	addi	s0,sp,80
	.cfi_def_cfa 8, 0
	sd	a0,-72(s0)
	.loc 1 3326 21
	addi	a5,s0,-72
	mv	a0,a5
	call	GetNextParamStr
	sd	a0,-24(s0)
	.loc 1 3327 19
	addi	a5,s0,-72
	mv	a0,a5
	call	GetNextParamStr
	sd	a0,-32(s0)
	.loc 1 3328 17
	addi	a5,s0,-72
	mv	a0,a5
	call	GetNextParamStr
	sd	a0,-40(s0)
	.loc 1 3330 44
	li	a2,38
	li	a1,9
	li	a0,4
	call	CreateDeviceNode
	sd	a0,-48(s0)
	.loc 1 3336 3
	addi	a5,s0,-56
	mv	a1,a5
	ld	a0,-24(s0)
	call	Strtoi64
	.loc 1 3337 32
	ld	a5,-48(s0)
	addi	a5,a5,4
	.loc 1 3337 3
	ld	a4,-56(s0)
	mv	a1,a4
	mv	a0,a5
	call	WriteUnaligned64
	.loc 1 3338 3
	addi	a5,s0,-64
	mv	a1,a5
	ld	a0,-32(s0)
	call	Strtoi64
	.loc 1 3339 32
	ld	a5,-48(s0)
	addi	a5,a5,12
	.loc 1 3339 3
	ld	a4,-64(s0)
	mv	a1,a4
	mv	a0,a5
	call	WriteUnaligned64
	.loc 1 3340 32
	ld	a0,-40(s0)
	call	Strtoi
	mv	a5,a0
	.loc 1 3340 23
	slli	a4,a5,48
	srli	a4,a4,48
	.loc 1 3340 21
	ld	a5,-48(s0)
	andi	a1,a4,255
	lbu	a3,36(a5)
	andi	a3,a3,0
	mv	a2,a3
	mv	a3,a1
	or	a3,a2,a3
	sb	a3,36(a5)
	srliw	a4,a4,8
	slli	a2,a4,48
	srli	a2,a2,48
	lbu	a4,37(a5)
	andi	a4,a4,0
	mv	a3,a4
	mv	a4,a2
	or	a4,a3,a4
	sb	a4,37(a5)
	.loc 1 3341 13
	ld	a5,-48(s0)
	addi	a5,a5,20
	.loc 1 3341 3
	lla	a1,gEfiPersistentVirtualCdGuid
	mv	a0,a5
	call	CopyGuid
	.loc 1 3343 10
	ld	a5,-48(s0)
	.loc 1 3344 1
	mv	a0,a5
	ld	ra,72(sp)
	.cfi_restore 1
	ld	s0,64(sp)
	.cfi_restore 8
	.cfi_def_cfa 2, 80
	addi	sp,sp,80
	.cfi_def_cfa_offset 0
	jr	ra
	.cfi_endproc
.LFE98:
	.size	DevPathFromTextPersistentVirtualCd, .-DevPathFromTextPersistentVirtualCd
	.section	.text.DevPathFromTextBbsPath,"ax",@progbits
	.align	1
	.globl	DevPathFromTextBbsPath
	.type	DevPathFromTextBbsPath, @function
DevPathFromTextBbsPath:
.LFB99:
	.loc 1 3358 1
	.cfi_startproc
	addi	sp,sp,-32
	.cfi_def_cfa_offset 32
	sd	ra,24(sp)
	sd	s0,16(sp)
	.cfi_offset 1, -8
	.cfi_offset 8, -16
	addi	s0,sp,32
	.cfi_def_cfa 8, 0
	sd	a0,-24(s0)
	.loc 1 3359 10
	ld	a1,-24(s0)
	li	a0,5
	call	DevPathFromTextGenericPath
	mv	a5,a0
	.loc 1 3360 1
	mv	a0,a5
	ld	ra,24(sp)
	.cfi_restore 1
	ld	s0,16(sp)
	.cfi_restore 8
	.cfi_def_cfa 2, 32
	addi	sp,sp,32
	.cfi_def_cfa_offset 0
	jr	ra
	.cfi_endproc
.LFE99:
	.size	DevPathFromTextBbsPath, .-DevPathFromTextBbsPath
	.section	.rodata
	.align	3
.LC29:
	.string	"F"
	.string	"l"
	.string	"o"
	.string	"p"
	.string	"p"
	.string	"y"
	.string	""
	.string	""
	.align	3
.LC30:
	.string	"H"
	.string	"D"
	.string	""
	.string	""
	.align	3
.LC31:
	.string	"C"
	.string	"D"
	.string	"R"
	.string	"O"
	.string	"M"
	.string	""
	.string	""
	.align	3
.LC32:
	.string	"P"
	.string	"C"
	.string	"M"
	.string	"C"
	.string	"I"
	.string	"A"
	.string	""
	.string	""
	.align	3
.LC33:
	.string	"U"
	.string	"S"
	.string	"B"
	.string	""
	.string	""
	.align	3
.LC34:
	.string	"N"
	.string	"e"
	.string	"t"
	.string	"w"
	.string	"o"
	.string	"r"
	.string	"k"
	.string	""
	.string	""
	.section	.text.DevPathFromTextBBS,"ax",@progbits
	.align	1
	.globl	DevPathFromTextBBS
	.type	DevPathFromTextBBS, @function
DevPathFromTextBBS:
.LFB100:
	.loc 1 3374 1
	.cfi_startproc
	addi	sp,sp,-80
	.cfi_def_cfa_offset 80
	sd	ra,72(sp)
	sd	s0,64(sp)
	.cfi_offset 1, -8
	.cfi_offset 8, -16
	addi	s0,sp,80
	.cfi_def_cfa 8, 0
	sd	a0,-72(s0)
	.loc 1 3381 13
	addi	a5,s0,-72
	mv	a0,a5
	call	GetNextParamStr
	sd	a0,-24(s0)
	.loc 1 3382 11
	addi	a5,s0,-72
	mv	a0,a5
	call	GetNextParamStr
	sd	a0,-32(s0)
	.loc 1 3383 14
	addi	a5,s0,-72
	mv	a0,a5
	call	GetNextParamStr
	sd	a0,-40(s0)
	.loc 1 3387 82
	ld	a0,-32(s0)
	call	StrLen
	mv	a5,a0
	.loc 1 3384 33
	slli	a5,a5,48
	srli	a5,a5,48
	addiw	a5,a5,9
	slli	a5,a5,48
	srli	a5,a5,48
	mv	a2,a5
	li	a1,1
	li	a0,5
	call	CreateDeviceNode
	sd	a0,-48(s0)
	.loc 1 3390 7
	lla	a1,.LC29
	ld	a0,-24(s0)
	call	StrCmp
	mv	a5,a0
	.loc 1 3390 6
	bne	a5,zero,.L372
	.loc 1 3391 21
	ld	a5,-48(s0)
	lbu	a4,4(a5)
	andi	a4,a4,0
	ori	a4,a4,1
	sb	a4,4(a5)
	lbu	a4,5(a5)
	andi	a4,a4,0
	sb	a4,5(a5)
	j	.L373
.L372:
	.loc 1 3392 14
	lla	a1,.LC30
	ld	a0,-24(s0)
	call	StrCmp
	mv	a5,a0
	.loc 1 3392 13
	bne	a5,zero,.L374
	.loc 1 3393 21
	ld	a5,-48(s0)
	lbu	a4,4(a5)
	andi	a4,a4,0
	ori	a4,a4,2
	sb	a4,4(a5)
	lbu	a4,5(a5)
	andi	a4,a4,0
	sb	a4,5(a5)
	j	.L373
.L374:
	.loc 1 3394 14
	lla	a1,.LC31
	ld	a0,-24(s0)
	call	StrCmp
	mv	a5,a0
	.loc 1 3394 13
	bne	a5,zero,.L375
	.loc 1 3395 21
	ld	a5,-48(s0)
	lbu	a4,4(a5)
	andi	a4,a4,0
	ori	a4,a4,3
	sb	a4,4(a5)
	lbu	a4,5(a5)
	andi	a4,a4,0
	sb	a4,5(a5)
	j	.L373
.L375:
	.loc 1 3396 14
	lla	a1,.LC32
	ld	a0,-24(s0)
	call	StrCmp
	mv	a5,a0
	.loc 1 3396 13
	bne	a5,zero,.L376
	.loc 1 3397 21
	ld	a5,-48(s0)
	lbu	a4,4(a5)
	andi	a4,a4,0
	ori	a4,a4,4
	sb	a4,4(a5)
	lbu	a4,5(a5)
	andi	a4,a4,0
	sb	a4,5(a5)
	j	.L373
.L376:
	.loc 1 3398 14
	lla	a1,.LC33
	ld	a0,-24(s0)
	call	StrCmp
	mv	a5,a0
	.loc 1 3398 13
	bne	a5,zero,.L377
	.loc 1 3399 21
	ld	a5,-48(s0)
	lbu	a4,4(a5)
	andi	a4,a4,0
	ori	a4,a4,5
	sb	a4,4(a5)
	lbu	a4,5(a5)
	andi	a4,a4,0
	sb	a4,5(a5)
	j	.L373
.L377:
	.loc 1 3400 14
	lla	a1,.LC34
	ld	a0,-24(s0)
	call	StrCmp
	mv	a5,a0
	.loc 1 3400 13
	bne	a5,zero,.L378
	.loc 1 3401 21
	ld	a5,-48(s0)
	lbu	a4,4(a5)
	andi	a4,a4,0
	ori	a4,a4,6
	sb	a4,4(a5)
	lbu	a4,5(a5)
	andi	a4,a4,0
	sb	a4,5(a5)
	j	.L373
.L378:
	.loc 1 3403 32
	ld	a0,-24(s0)
	call	Strtoi
	mv	a5,a0
	.loc 1 3403 23
	slli	a4,a5,48
	srli	a4,a4,48
	.loc 1 3403 21
	ld	a5,-48(s0)
	andi	a1,a4,255
	lbu	a3,4(a5)
	andi	a3,a3,0
	mv	a2,a3
	mv	a3,a1
	or	a3,a2,a3
	sb	a3,4(a5)
	srliw	a4,a4,8
	slli	a2,a4,48
	srli	a2,a2,48
	lbu	a4,5(a5)
	andi	a4,a4,0
	mv	a3,a4
	mv	a4,a2
	or	a4,a3,a4
	sb	a4,5(a5)
.L373:
	.loc 1 3406 14
	ld	a5,-48(s0)
	addi	a5,a5,8
	.loc 1 3406 12
	sd	a5,-56(s0)
	.loc 1 3407 3
	addi	a5,s0,-56
	mv	a1,a5
	ld	a0,-32(s0)
	call	StrToAscii
	.loc 1 3409 30
	ld	a0,-40(s0)
	call	Strtoi
	mv	a5,a0
	.loc 1 3409 21
	slli	a4,a5,48
	srli	a4,a4,48
	.loc 1 3409 19
	ld	a5,-48(s0)
	andi	a1,a4,255
	lbu	a3,6(a5)
	andi	a3,a3,0
	mv	a2,a3
	mv	a3,a1
	or	a3,a2,a3
	sb	a3,6(a5)
	srliw	a4,a4,8
	slli	a2,a4,48
	srli	a2,a2,48
	lbu	a4,7(a5)
	andi	a4,a4,0
	mv	a3,a4
	mv	a4,a2
	or	a4,a3,a4
	sb	a4,7(a5)
	.loc 1 3411 10
	ld	a5,-48(s0)
	.loc 1 3412 1
	mv	a0,a5
	ld	ra,72(sp)
	.cfi_restore 1
	ld	s0,64(sp)
	.cfi_restore 8
	.cfi_def_cfa 2, 80
	addi	sp,sp,80
	.cfi_def_cfa_offset 0
	jr	ra
	.cfi_endproc
.LFE100:
	.size	DevPathFromTextBBS, .-DevPathFromTextBBS
	.section	.text.DevPathFromTextSata,"ax",@progbits
	.align	1
	.globl	DevPathFromTextSata
	.type	DevPathFromTextSata, @function
DevPathFromTextSata:
.LFB101:
	.loc 1 3426 1
	.cfi_startproc
	addi	sp,sp,-64
	.cfi_def_cfa_offset 64
	sd	ra,56(sp)
	sd	s0,48(sp)
	.cfi_offset 1, -8
	.cfi_offset 8, -16
	addi	s0,sp,64
	.cfi_def_cfa 8, 0
	sd	a0,-56(s0)
	.loc 1 3432 12
	addi	a5,s0,-56
	mv	a0,a5
	call	GetNextParamStr
	sd	a0,-24(s0)
	.loc 1 3433 12
	addi	a5,s0,-56
	mv	a0,a5
	call	GetNextParamStr
	sd	a0,-32(s0)
	.loc 1 3434 12
	addi	a5,s0,-56
	mv	a0,a5
	call	GetNextParamStr
	sd	a0,-40(s0)
	.loc 1 3436 31
	li	a2,10
	li	a1,18
	li	a0,3
	call	CreateDeviceNode
	sd	a0,-48(s0)
	.loc 1 3441 34
	ld	a0,-24(s0)
	call	Strtoi
	mv	a5,a0
	.loc 1 3441 25
	slli	a4,a5,48
	srli	a4,a4,48
	.loc 1 3441 23
	ld	a5,-48(s0)
	andi	a1,a4,255
	lbu	a3,4(a5)
	andi	a3,a3,0
	mv	a2,a3
	mv	a3,a1
	or	a3,a2,a3
	sb	a3,4(a5)
	srliw	a4,a4,8
	slli	a2,a4,48
	srli	a2,a2,48
	lbu	a4,5(a5)
	andi	a4,a4,0
	mv	a3,a4
	mv	a4,a2
	or	a4,a3,a4
	sb	a4,5(a5)
	.loc 1 3446 7
	ld	a5,-32(s0)
	lhu	a5,0(a5)
	.loc 1 3446 6
	bne	a5,zero,.L381
	.loc 1 3447 36
	ld	a5,-48(s0)
	lbu	a4,6(a5)
	ori	a4,a4,-1
	sb	a4,6(a5)
	lbu	a4,7(a5)
	ori	a4,a4,-1
	sb	a4,7(a5)
	j	.L382
.L381:
	.loc 1 3449 47
	ld	a0,-32(s0)
	call	Strtoi
	mv	a5,a0
	.loc 1 3449 38
	slli	a4,a5,48
	srli	a4,a4,48
	.loc 1 3449 36
	ld	a5,-48(s0)
	andi	a1,a4,255
	lbu	a3,6(a5)
	andi	a3,a3,0
	mv	a2,a3
	mv	a3,a1
	or	a3,a2,a3
	sb	a3,6(a5)
	srliw	a4,a4,8
	slli	a2,a4,48
	srli	a2,a2,48
	lbu	a4,7(a5)
	andi	a4,a4,0
	mv	a3,a4
	mv	a4,a2
	or	a4,a3,a4
	sb	a4,7(a5)
.L382:
	.loc 1 3451 24
	ld	a0,-40(s0)
	call	Strtoi
	mv	a5,a0
	.loc 1 3451 15
	slli	a4,a5,48
	srli	a4,a4,48
	.loc 1 3451 13
	ld	a5,-48(s0)
	andi	a1,a4,255
	lbu	a3,8(a5)
	andi	a3,a3,0
	mv	a2,a3
	mv	a3,a1
	or	a3,a2,a3
	sb	a3,8(a5)
	srliw	a4,a4,8
	slli	a2,a4,48
	srli	a2,a2,48
	lbu	a4,9(a5)
	andi	a4,a4,0
	mv	a3,a4
	mv	a4,a2
	or	a4,a3,a4
	sb	a4,9(a5)
	.loc 1 3453 10
	ld	a5,-48(s0)
	.loc 1 3454 1
	mv	a0,a5
	ld	ra,56(sp)
	.cfi_restore 1
	ld	s0,48(sp)
	.cfi_restore 8
	.cfi_def_cfa 2, 64
	addi	sp,sp,64
	.cfi_def_cfa_offset 0
	jr	ra
	.cfi_endproc
.LFE101:
	.size	DevPathFromTextSata, .-DevPathFromTextSata
	.globl	mUefiDevicePathLibDevPathFromTextTable
	.section	.rodata
	.align	3
.LC35:
	.string	"P"
	.string	"a"
	.string	"t"
	.string	"h"
	.string	""
	.string	""
	.align	3
.LC36:
	.string	"H"
	.string	"a"
	.string	"r"
	.string	"d"
	.string	"w"
	.string	"a"
	.string	"r"
	.string	"e"
	.string	"P"
	.string	"a"
	.string	"t"
	.string	"h"
	.string	""
	.string	""
	.align	3
.LC37:
	.string	"P"
	.string	"c"
	.string	"i"
	.string	""
	.string	""
	.align	3
.LC38:
	.string	"P"
	.string	"c"
	.string	"C"
	.string	"a"
	.string	"r"
	.string	"d"
	.string	""
	.string	""
	.align	3
.LC39:
	.string	"M"
	.string	"e"
	.string	"m"
	.string	"o"
	.string	"r"
	.string	"y"
	.string	"M"
	.string	"a"
	.string	"p"
	.string	"p"
	.string	"e"
	.string	"d"
	.string	""
	.string	""
	.align	3
.LC40:
	.string	"V"
	.string	"e"
	.string	"n"
	.string	"H"
	.string	"w"
	.string	""
	.string	""
	.align	3
.LC41:
	.string	"C"
	.string	"t"
	.string	"r"
	.string	"l"
	.string	""
	.string	""
	.align	3
.LC42:
	.string	"B"
	.string	"M"
	.string	"C"
	.string	""
	.string	""
	.align	3
.LC43:
	.string	"A"
	.string	"c"
	.string	"p"
	.string	"i"
	.string	"P"
	.string	"a"
	.string	"t"
	.string	"h"
	.string	""
	.string	""
	.align	3
.LC44:
	.string	"A"
	.string	"c"
	.string	"p"
	.string	"i"
	.string	""
	.string	""
	.align	3
.LC45:
	.string	"P"
	.string	"c"
	.string	"i"
	.string	"R"
	.string	"o"
	.string	"o"
	.string	"t"
	.string	""
	.string	""
	.align	3
.LC46:
	.string	"P"
	.string	"c"
	.string	"i"
	.string	"e"
	.string	"R"
	.string	"o"
	.string	"o"
	.string	"t"
	.string	""
	.string	""
	.align	3
.LC47:
	.string	"K"
	.string	"e"
	.string	"y"
	.string	"b"
	.string	"o"
	.string	"a"
	.string	"r"
	.string	"d"
	.string	""
	.string	""
	.align	3
.LC48:
	.string	"S"
	.string	"e"
	.string	"r"
	.string	"i"
	.string	"a"
	.string	"l"
	.string	""
	.string	""
	.align	3
.LC49:
	.string	"P"
	.string	"a"
	.string	"r"
	.string	"a"
	.string	"l"
	.string	"l"
	.string	"e"
	.string	"l"
	.string	"P"
	.string	"o"
	.string	"r"
	.string	"t"
	.string	""
	.string	""
	.align	3
.LC50:
	.string	"A"
	.string	"c"
	.string	"p"
	.string	"i"
	.string	"E"
	.string	"x"
	.string	""
	.string	""
	.align	3
.LC51:
	.string	"A"
	.string	"c"
	.string	"p"
	.string	"i"
	.string	"E"
	.string	"x"
	.string	"p"
	.string	""
	.string	""
	.align	3
.LC52:
	.string	"A"
	.string	"c"
	.string	"p"
	.string	"i"
	.string	"A"
	.string	"d"
	.string	"r"
	.string	""
	.string	""
	.align	3
.LC53:
	.string	"M"
	.string	"s"
	.string	"g"
	.string	""
	.string	""
	.align	3
.LC54:
	.string	"A"
	.string	"t"
	.string	"a"
	.string	""
	.string	""
	.align	3
.LC55:
	.string	"S"
	.string	"c"
	.string	"s"
	.string	"i"
	.string	""
	.string	""
	.align	3
.LC56:
	.string	"F"
	.string	"i"
	.string	"b"
	.string	"r"
	.string	"e"
	.string	""
	.string	""
	.align	3
.LC57:
	.string	"F"
	.string	"i"
	.string	"b"
	.string	"r"
	.string	"e"
	.string	"E"
	.string	"x"
	.string	""
	.string	""
	.align	3
.LC58:
	.string	"I"
	.string	"1"
	.string	"3"
	.string	"9"
	.string	"4"
	.string	""
	.string	""
	.align	3
.LC59:
	.string	"I"
	.string	"2"
	.string	"O"
	.string	""
	.string	""
	.align	3
.LC60:
	.string	"I"
	.string	"n"
	.string	"f"
	.string	"i"
	.string	"n"
	.string	"i"
	.string	"b"
	.string	"a"
	.string	"n"
	.string	"d"
	.string	""
	.string	""
	.align	3
.LC61:
	.string	"V"
	.string	"e"
	.string	"n"
	.string	"M"
	.string	"s"
	.string	"g"
	.string	""
	.string	""
	.align	3
.LC62:
	.string	"V"
	.string	"e"
	.string	"n"
	.string	"P"
	.string	"c"
	.string	"A"
	.string	"n"
	.string	"s"
	.string	"i"
	.string	""
	.string	""
	.align	3
.LC63:
	.string	"V"
	.string	"e"
	.string	"n"
	.string	"V"
	.string	"t"
	.string	"1"
	.string	"0"
	.string	"0"
	.string	""
	.string	""
	.align	3
.LC64:
	.string	"V"
	.string	"e"
	.string	"n"
	.string	"V"
	.string	"t"
	.string	"1"
	.string	"0"
	.string	"0"
	.string	"P"
	.string	"l"
	.string	"u"
	.string	"s"
	.string	""
	.string	""
	.align	3
.LC65:
	.string	"V"
	.string	"e"
	.string	"n"
	.string	"U"
	.string	"t"
	.string	"f"
	.string	"8"
	.string	""
	.string	""
	.align	3
.LC66:
	.string	"U"
	.string	"a"
	.string	"r"
	.string	"t"
	.string	"F"
	.string	"l"
	.string	"o"
	.string	"w"
	.string	"C"
	.string	"t"
	.string	"r"
	.string	"l"
	.string	""
	.string	""
	.align	3
.LC67:
	.string	"S"
	.string	"a"
	.string	"s"
	.string	"E"
	.string	"x"
	.string	""
	.string	""
	.align	3
.LC68:
	.string	"N"
	.string	"V"
	.string	"M"
	.string	"e"
	.string	""
	.string	""
	.align	3
.LC69:
	.string	"U"
	.string	"F"
	.string	"S"
	.string	""
	.string	""
	.align	3
.LC70:
	.string	"S"
	.string	"D"
	.string	""
	.string	""
	.align	3
.LC71:
	.string	"e"
	.string	"M"
	.string	"M"
	.string	"C"
	.string	""
	.string	""
	.align	3
.LC72:
	.string	"D"
	.string	"e"
	.string	"b"
	.string	"u"
	.string	"g"
	.string	"P"
	.string	"o"
	.string	"r"
	.string	"t"
	.string	""
	.string	""
	.align	3
.LC73:
	.string	"M"
	.string	"A"
	.string	"C"
	.string	""
	.string	""
	.align	3
.LC74:
	.string	"I"
	.string	"P"
	.string	"v"
	.string	"4"
	.string	""
	.string	""
	.align	3
.LC75:
	.string	"I"
	.string	"P"
	.string	"v"
	.string	"6"
	.string	""
	.string	""
	.align	3
.LC76:
	.string	"U"
	.string	"a"
	.string	"r"
	.string	"t"
	.string	""
	.string	""
	.align	3
.LC77:
	.string	"U"
	.string	"s"
	.string	"b"
	.string	"C"
	.string	"l"
	.string	"a"
	.string	"s"
	.string	"s"
	.string	""
	.string	""
	.align	3
.LC78:
	.string	"U"
	.string	"s"
	.string	"b"
	.string	"A"
	.string	"u"
	.string	"d"
	.string	"i"
	.string	"o"
	.string	""
	.string	""
	.align	3
.LC79:
	.string	"U"
	.string	"s"
	.string	"b"
	.string	"C"
	.string	"D"
	.string	"C"
	.string	"C"
	.string	"o"
	.string	"n"
	.string	"t"
	.string	"r"
	.string	"o"
	.string	"l"
	.string	""
	.string	""
	.align	3
.LC80:
	.string	"U"
	.string	"s"
	.string	"b"
	.string	"H"
	.string	"I"
	.string	"D"
	.string	""
	.string	""
	.align	3
.LC81:
	.string	"U"
	.string	"s"
	.string	"b"
	.string	"I"
	.string	"m"
	.string	"a"
	.string	"g"
	.string	"e"
	.string	""
	.string	""
	.align	3
.LC82:
	.string	"U"
	.string	"s"
	.string	"b"
	.string	"P"
	.string	"r"
	.string	"i"
	.string	"n"
	.string	"t"
	.string	"e"
	.string	"r"
	.string	""
	.string	""
	.align	3
.LC83:
	.string	"U"
	.string	"s"
	.string	"b"
	.string	"M"
	.string	"a"
	.string	"s"
	.string	"s"
	.string	"S"
	.string	"t"
	.string	"o"
	.string	"r"
	.string	"a"
	.string	"g"
	.string	"e"
	.string	""
	.string	""
	.align	3
.LC84:
	.string	"U"
	.string	"s"
	.string	"b"
	.string	"H"
	.string	"u"
	.string	"b"
	.string	""
	.string	""
	.align	3
.LC85:
	.string	"U"
	.string	"s"
	.string	"b"
	.string	"C"
	.string	"D"
	.string	"C"
	.string	"D"
	.string	"a"
	.string	"t"
	.string	"a"
	.string	""
	.string	""
	.align	3
.LC86:
	.string	"U"
	.string	"s"
	.string	"b"
	.string	"S"
	.string	"m"
	.string	"a"
	.string	"r"
	.string	"t"
	.string	"C"
	.string	"a"
	.string	"r"
	.string	"d"
	.string	""
	.string	""
	.align	3
.LC87:
	.string	"U"
	.string	"s"
	.string	"b"
	.string	"V"
	.string	"i"
	.string	"d"
	.string	"e"
	.string	"o"
	.string	""
	.string	""
	.align	3
.LC88:
	.string	"U"
	.string	"s"
	.string	"b"
	.string	"D"
	.string	"i"
	.string	"a"
	.string	"g"
	.string	"n"
	.string	"o"
	.string	"s"
	.string	"t"
	.string	"i"
	.string	"c"
	.string	""
	.string	""
	.align	3
.LC89:
	.string	"U"
	.string	"s"
	.string	"b"
	.string	"W"
	.string	"i"
	.string	"r"
	.string	"e"
	.string	"l"
	.string	"e"
	.string	"s"
	.string	"s"
	.string	""
	.string	""
	.align	3
.LC90:
	.string	"U"
	.string	"s"
	.string	"b"
	.string	"D"
	.string	"e"
	.string	"v"
	.string	"i"
	.string	"c"
	.string	"e"
	.string	"F"
	.string	"i"
	.string	"r"
	.string	"m"
	.string	"w"
	.string	"a"
	.string	"r"
	.string	"e"
	.string	"U"
	.string	"p"
	.string	"d"
	.string	"a"
	.string	"t"
	.string	"e"
	.string	""
	.string	""
	.align	3
.LC91:
	.string	"U"
	.string	"s"
	.string	"b"
	.string	"I"
	.string	"r"
	.string	"d"
	.string	"a"
	.string	"B"
	.string	"r"
	.string	"i"
	.string	"d"
	.string	"g"
	.string	"e"
	.string	""
	.string	""
	.align	3
.LC92:
	.string	"U"
	.string	"s"
	.string	"b"
	.string	"T"
	.string	"e"
	.string	"s"
	.string	"t"
	.string	"A"
	.string	"n"
	.string	"d"
	.string	"M"
	.string	"e"
	.string	"a"
	.string	"s"
	.string	"u"
	.string	"r"
	.string	"e"
	.string	"m"
	.string	"e"
	.string	"n"
	.string	"t"
	.string	""
	.string	""
	.align	3
.LC93:
	.string	"U"
	.string	"s"
	.string	"b"
	.string	"W"
	.string	"w"
	.string	"i"
	.string	"d"
	.string	""
	.string	""
	.align	3
.LC94:
	.string	"U"
	.string	"n"
	.string	"i"
	.string	"t"
	.string	""
	.string	""
	.align	3
.LC95:
	.string	"i"
	.string	"S"
	.string	"C"
	.string	"S"
	.string	"I"
	.string	""
	.string	""
	.align	3
.LC96:
	.string	"V"
	.string	"l"
	.string	"a"
	.string	"n"
	.string	""
	.string	""
	.align	3
.LC97:
	.string	"D"
	.string	"n"
	.string	"s"
	.string	""
	.string	""
	.align	3
.LC98:
	.string	"U"
	.string	"r"
	.string	"i"
	.string	""
	.string	""
	.align	3
.LC99:
	.string	"B"
	.string	"l"
	.string	"u"
	.string	"e"
	.string	"t"
	.string	"o"
	.string	"o"
	.string	"t"
	.string	"h"
	.string	""
	.string	""
	.align	3
.LC100:
	.string	"W"
	.string	"i"
	.string	"-"
	.string	"F"
	.string	"i"
	.string	""
	.string	""
	.align	3
.LC101:
	.string	"B"
	.string	"l"
	.string	"u"
	.string	"e"
	.string	"t"
	.string	"o"
	.string	"o"
	.string	"t"
	.string	"h"
	.string	"L"
	.string	"E"
	.string	""
	.string	""
	.align	3
.LC102:
	.string	"M"
	.string	"e"
	.string	"d"
	.string	"i"
	.string	"a"
	.string	"P"
	.string	"a"
	.string	"t"
	.string	"h"
	.string	""
	.string	""
	.align	3
.LC103:
	.string	"V"
	.string	"e"
	.string	"n"
	.string	"M"
	.string	"e"
	.string	"d"
	.string	"i"
	.string	"a"
	.string	""
	.string	""
	.align	3
.LC104:
	.string	"M"
	.string	"e"
	.string	"d"
	.string	"i"
	.string	"a"
	.string	""
	.string	""
	.align	3
.LC105:
	.string	"F"
	.string	"v"
	.string	""
	.string	""
	.align	3
.LC106:
	.string	"F"
	.string	"v"
	.string	"F"
	.string	"i"
	.string	"l"
	.string	"e"
	.string	""
	.string	""
	.align	3
.LC107:
	.string	"O"
	.string	"f"
	.string	"f"
	.string	"s"
	.string	"e"
	.string	"t"
	.string	""
	.string	""
	.align	3
.LC108:
	.string	"R"
	.string	"a"
	.string	"m"
	.string	"D"
	.string	"i"
	.string	"s"
	.string	"k"
	.string	""
	.string	""
	.align	3
.LC109:
	.string	"V"
	.string	"i"
	.string	"r"
	.string	"t"
	.string	"u"
	.string	"a"
	.string	"l"
	.string	"D"
	.string	"i"
	.string	"s"
	.string	"k"
	.string	""
	.string	""
	.align	3
.LC110:
	.string	"V"
	.string	"i"
	.string	"r"
	.string	"t"
	.string	"u"
	.string	"a"
	.string	"l"
	.string	"C"
	.string	"D"
	.string	""
	.string	""
	.align	3
.LC111:
	.string	"P"
	.string	"e"
	.string	"r"
	.string	"s"
	.string	"i"
	.string	"s"
	.string	"t"
	.string	"e"
	.string	"n"
	.string	"t"
	.string	"V"
	.string	"i"
	.string	"r"
	.string	"t"
	.string	"u"
	.string	"a"
	.string	"l"
	.string	"D"
	.string	"i"
	.string	"s"
	.string	"k"
	.string	""
	.string	""
	.align	3
.LC112:
	.string	"P"
	.string	"e"
	.string	"r"
	.string	"s"
	.string	"i"
	.string	"s"
	.string	"t"
	.string	"e"
	.string	"n"
	.string	"t"
	.string	"V"
	.string	"i"
	.string	"r"
	.string	"t"
	.string	"u"
	.string	"a"
	.string	"l"
	.string	"C"
	.string	"D"
	.string	""
	.string	""
	.align	3
.LC113:
	.string	"B"
	.string	"b"
	.string	"s"
	.string	"P"
	.string	"a"
	.string	"t"
	.string	"h"
	.string	""
	.string	""
	.align	3
.LC114:
	.string	"B"
	.string	"B"
	.string	"S"
	.string	""
	.string	""
	.align	3
.LC115:
	.string	"S"
	.string	"a"
	.string	"t"
	.string	"a"
	.string	""
	.string	""
	.section	.data.mUefiDevicePathLibDevPathFromTextTable,"aw"
	.align	3
	.type	mUefiDevicePathLibDevPathFromTextTable, @object
	.size	mUefiDevicePathLibDevPathFromTextTable, 1392
mUefiDevicePathLibDevPathFromTextTable:
	.dword	.LC35
	.dword	DevPathFromTextPath
	.dword	.LC36
	.dword	DevPathFromTextHardwarePath
	.dword	.LC37
	.dword	DevPathFromTextPci
	.dword	.LC38
	.dword	DevPathFromTextPcCard
	.dword	.LC39
	.dword	DevPathFromTextMemoryMapped
	.dword	.LC40
	.dword	DevPathFromTextVenHw
	.dword	.LC41
	.dword	DevPathFromTextCtrl
	.dword	.LC42
	.dword	DevPathFromTextBmc
	.dword	.LC43
	.dword	DevPathFromTextAcpiPath
	.dword	.LC44
	.dword	DevPathFromTextAcpi
	.dword	.LC45
	.dword	DevPathFromTextPciRoot
	.dword	.LC46
	.dword	DevPathFromTextPcieRoot
	.dword	.LC29
	.dword	DevPathFromTextFloppy
	.dword	.LC47
	.dword	DevPathFromTextKeyboard
	.dword	.LC48
	.dword	DevPathFromTextSerial
	.dword	.LC49
	.dword	DevPathFromTextParallelPort
	.dword	.LC50
	.dword	DevPathFromTextAcpiEx
	.dword	.LC51
	.dword	DevPathFromTextAcpiExp
	.dword	.LC52
	.dword	DevPathFromTextAcpiAdr
	.dword	.LC53
	.dword	DevPathFromTextMsg
	.dword	.LC54
	.dword	DevPathFromTextAta
	.dword	.LC55
	.dword	DevPathFromTextScsi
	.dword	.LC56
	.dword	DevPathFromTextFibre
	.dword	.LC57
	.dword	DevPathFromTextFibreEx
	.dword	.LC58
	.dword	DevPathFromText1394
	.dword	.LC33
	.dword	DevPathFromTextUsb
	.dword	.LC59
	.dword	DevPathFromTextI2O
	.dword	.LC60
	.dword	DevPathFromTextInfiniband
	.dword	.LC61
	.dword	DevPathFromTextVenMsg
	.dword	.LC62
	.dword	DevPathFromTextVenPcAnsi
	.dword	.LC63
	.dword	DevPathFromTextVenVt100
	.dword	.LC64
	.dword	DevPathFromTextVenVt100Plus
	.dword	.LC65
	.dword	DevPathFromTextVenUtf8
	.dword	.LC66
	.dword	DevPathFromTextUartFlowCtrl
	.dword	.LC10
	.dword	DevPathFromTextSAS
	.dword	.LC67
	.dword	DevPathFromTextSasEx
	.dword	.LC68
	.dword	DevPathFromTextNVMe
	.dword	.LC69
	.dword	DevPathFromTextUfs
	.dword	.LC70
	.dword	DevPathFromTextSd
	.dword	.LC71
	.dword	DevPathFromTextEmmc
	.dword	.LC72
	.dword	DevPathFromTextDebugPort
	.dword	.LC73
	.dword	DevPathFromTextMAC
	.dword	.LC74
	.dword	DevPathFromTextIPv4
	.dword	.LC75
	.dword	DevPathFromTextIPv6
	.dword	.LC76
	.dword	DevPathFromTextUart
	.dword	.LC77
	.dword	DevPathFromTextUsbClass
	.dword	.LC78
	.dword	DevPathFromTextUsbAudio
	.dword	.LC79
	.dword	DevPathFromTextUsbCDCControl
	.dword	.LC80
	.dword	DevPathFromTextUsbHID
	.dword	.LC81
	.dword	DevPathFromTextUsbImage
	.dword	.LC82
	.dword	DevPathFromTextUsbPrinter
	.dword	.LC83
	.dword	DevPathFromTextUsbMassStorage
	.dword	.LC84
	.dword	DevPathFromTextUsbHub
	.dword	.LC85
	.dword	DevPathFromTextUsbCDCData
	.dword	.LC86
	.dword	DevPathFromTextUsbSmartCard
	.dword	.LC87
	.dword	DevPathFromTextUsbVideo
	.dword	.LC88
	.dword	DevPathFromTextUsbDiagnostic
	.dword	.LC89
	.dword	DevPathFromTextUsbWireless
	.dword	.LC90
	.dword	DevPathFromTextUsbDeviceFirmwareUpdate
	.dword	.LC91
	.dword	DevPathFromTextUsbIrdaBridge
	.dword	.LC92
	.dword	DevPathFromTextUsbTestAndMeasurement
	.dword	.LC93
	.dword	DevPathFromTextUsbWwid
	.dword	.LC94
	.dword	DevPathFromTextUnit
	.dword	.LC95
	.dword	DevPathFromTextiSCSI
	.dword	.LC96
	.dword	DevPathFromTextVlan
	.dword	.LC97
	.dword	DevPathFromTextDns
	.dword	.LC98
	.dword	DevPathFromTextUri
	.dword	.LC99
	.dword	DevPathFromTextBluetooth
	.dword	.LC100
	.dword	DevPathFromTextWiFi
	.dword	.LC101
	.dword	DevPathFromTextBluetoothLE
	.dword	.LC102
	.dword	DevPathFromTextMediaPath
	.dword	.LC30
	.dword	DevPathFromTextHD
	.dword	.LC31
	.dword	DevPathFromTextCDROM
	.dword	.LC103
	.dword	DevPathFromTextVenMedia
	.dword	.LC104
	.dword	DevPathFromTextMedia
	.dword	.LC105
	.dword	DevPathFromTextFv
	.dword	.LC106
	.dword	DevPathFromTextFvFile
	.dword	.LC107
	.dword	DevPathFromTextRelativeOffsetRange
	.dword	.LC108
	.dword	DevPathFromTextRamDisk
	.dword	.LC109
	.dword	DevPathFromTextVirtualDisk
	.dword	.LC110
	.dword	DevPathFromTextVirtualCd
	.dword	.LC111
	.dword	DevPathFromTextPersistentVirtualDisk
	.dword	.LC112
	.dword	DevPathFromTextPersistentVirtualCd
	.dword	.LC113
	.dword	DevPathFromTextBbsPath
	.dword	.LC114
	.dword	DevPathFromTextBBS
	.dword	.LC115
	.dword	DevPathFromTextSata
	.dword	0
	.dword	0
	.section	.rodata
	.align	3
.LC116:
	.string	"DeviceNodeStr != ((void *) 0)"
	.section	.text.UefiDevicePathLibConvertTextToDeviceNode,"ax",@progbits
	.align	1
	.globl	UefiDevicePathLibConvertTextToDeviceNode
	.type	UefiDevicePathLibConvertTextToDeviceNode, @function
UefiDevicePathLibConvertTextToDeviceNode:
.LFB102:
	.loc 1 3566 1
	.cfi_startproc
	addi	sp,sp,-80
	.cfi_def_cfa_offset 80
	sd	ra,72(sp)
	sd	s0,64(sp)
	.cfi_offset 1, -8
	.cfi_offset 8, -16
	addi	s0,sp,80
	.cfi_def_cfa 8, 0
	sd	a0,-72(s0)
	.loc 1 3573 6
	ld	a5,-72(s0)
	beq	a5,zero,.L385
	.loc 1 3573 46 discriminator 1
	ld	a5,-72(s0)
	lhu	a5,0(a5)
	.loc 1 3573 40 discriminator 1
	bne	a5,zero,.L386
.L385:
	.loc 1 3574 12
	li	a5,0
	j	.L387
.L386:
	.loc 1 3577 12
	sd	zero,-32(s0)
	.loc 1 3578 12
	sd	zero,-24(s0)
	.loc 1 3579 19
	ld	a0,-72(s0)
	call	UefiDevicePathLibStrDuplicate
	sd	a0,-56(s0)
	.loc 1 3580 12
	call	DebugAssertEnabled
	mv	a5,a0
	.loc 1 3580 11
	beq	a5,zero,.L388
	.loc 1 3580 40 discriminator 1
	ld	a5,-56(s0)
	bne	a5,zero,.L388
	.loc 1 3580 77 discriminator 2
	lla	a2,.LC116
	li	a5,4096
	addi	a1,a5,-516
	lla	a0,.LC1
	call	UnitTestDebugAssert
.L388:
	.loc 1 3582 14
	sd	zero,-48(s0)
	.loc 1 3582 3
	j	.L389
.L392:
	.loc 1 3583 16
	lla	a4,mUefiDevicePathLibDevPathFromTextTable
	ld	a5,-48(s0)
	slli	a5,a5,4
	add	a5,a4,a5
	ld	a5,0(a5)
	mv	a1,a5
	ld	a0,-56(s0)
	call	GetParamByNodeName
	sd	a0,-32(s0)
	.loc 1 3584 8
	ld	a5,-32(s0)
	beq	a5,zero,.L390
	.loc 1 3585 16
	lla	a4,mUefiDevicePathLibDevPathFromTextTable
	ld	a5,-48(s0)
	slli	a5,a5,4
	add	a5,a4,a5
	ld	a5,8(a5)
	sd	a5,-24(s0)
	.loc 1 3586 7
	j	.L391
.L390:
	.loc 1 3582 96 discriminator 2
	ld	a5,-48(s0)
	addi	a5,a5,1
	sd	a5,-48(s0)
.L389:
	.loc 1 3582 64 discriminator 1
	lla	a4,mUefiDevicePathLibDevPathFromTextTable
	ld	a5,-48(s0)
	slli	a5,a5,4
	add	a5,a4,a5
	ld	a5,8(a5)
	.loc 1 3582 3 discriminator 1
	bne	a5,zero,.L392
.L391:
	.loc 1 3590 6
	ld	a5,-24(s0)
	bne	a5,zero,.L393
	.loc 1 3594 14
	lla	a5,DevPathFromTextFilePath
	sd	a5,-24(s0)
	.loc 1 3595 18
	ld	a5,-24(s0)
	ld	a0,-56(s0)
	jalr	a5
.LVL0:
	sd	a0,-40(s0)
	j	.L394
.L393:
	.loc 1 3597 18
	ld	a5,-24(s0)
	ld	a0,-32(s0)
	jalr	a5
.LVL1:
	sd	a0,-40(s0)
	.loc 1 3598 5
	ld	a0,-32(s0)
	call	FreePool
.L394:
	.loc 1 3601 3
	ld	a0,-56(s0)
	call	FreePool
	.loc 1 3603 10
	ld	a5,-40(s0)
.L387:
	.loc 1 3604 1
	mv	a0,a5
	ld	ra,72(sp)
	.cfi_restore 1
	ld	s0,64(sp)
	.cfi_restore 8
	.cfi_def_cfa 2, 80
	addi	sp,sp,80
	.cfi_def_cfa_offset 0
	jr	ra
	.cfi_endproc
.LFE102:
	.size	UefiDevicePathLibConvertTextToDeviceNode, .-UefiDevicePathLibConvertTextToDeviceNode
	.section	.rodata
	.align	3
.LC117:
	.string	"DevicePath != ((void *) 0)"
	.align	3
.LC118:
	.string	"DeviceNode != ((void *) 0)"
	.section	.text.UefiDevicePathLibConvertTextToDevicePath,"ax",@progbits
	.align	1
	.globl	UefiDevicePathLibConvertTextToDevicePath
	.type	UefiDevicePathLibConvertTextToDevicePath, @function
UefiDevicePathLibConvertTextToDevicePath:
.LFB103:
	.loc 1 3623 1
	.cfi_startproc
	addi	sp,sp,-96
	.cfi_def_cfa_offset 96
	sd	ra,88(sp)
	sd	s0,80(sp)
	.cfi_offset 1, -8
	.cfi_offset 8, -16
	addi	s0,sp,96
	.cfi_def_cfa 8, 0
	sd	a0,-88(s0)
	.loc 1 3632 6
	ld	a5,-88(s0)
	beq	a5,zero,.L396
	.loc 1 3632 46 discriminator 1
	ld	a5,-88(s0)
	lhu	a5,0(a5)
	.loc 1 3632 40 discriminator 1
	bne	a5,zero,.L397
.L396:
	.loc 1 3633 12
	li	a5,0
	j	.L403
.L397:
	.loc 1 3636 45
	li	a0,4
	call	AllocatePool
	sd	a0,-24(s0)
	.loc 1 3637 12
	call	DebugAssertEnabled
	mv	a5,a0
	.loc 1 3637 11
	beq	a5,zero,.L399
	.loc 1 3637 40 discriminator 1
	ld	a5,-24(s0)
	bne	a5,zero,.L399
	.loc 1 3637 74 discriminator 2
	lla	a2,.LC117
	li	a5,4096
	addi	a1,a5,-459
	lla	a0,.LC1
	call	UnitTestDebugAssert
.L399:
	.loc 1 3638 3
	ld	a0,-24(s0)
	call	SetDevicePathEndNode
	.loc 1 3640 19
	ld	a0,-88(s0)
	call	UefiDevicePathLibStrDuplicate
	sd	a0,-32(s0)
	.loc 1 3642 7
	ld	a5,-32(s0)
	sd	a5,-64(s0)
	.loc 1 3643 9
	j	.L400
.L402:
	.loc 1 3644 18
	ld	a0,-40(s0)
	call	UefiDevicePathLibConvertTextToDeviceNode
	sd	a0,-48(s0)
	.loc 1 3646 21
	ld	a1,-48(s0)
	ld	a0,-24(s0)
	call	AppendDevicePathNode
	sd	a0,-56(s0)
	.loc 1 3647 5
	ld	a0,-24(s0)
	call	FreePool
	.loc 1 3648 5
	ld	a0,-48(s0)
	call	FreePool
	.loc 1 3649 16
	ld	a5,-56(s0)
	sd	a5,-24(s0)
	.loc 1 3651 9
	lbu	a5,-65(s0)
	.loc 1 3651 8
	beq	a5,zero,.L400
	.loc 1 3652 49
	li	a0,4
	call	AllocatePool
	sd	a0,-48(s0)
	.loc 1 3653 16
	call	DebugAssertEnabled
	mv	a5,a0
	.loc 1 3653 15
	beq	a5,zero,.L401
	.loc 1 3653 44 discriminator 1
	ld	a5,-48(s0)
	bne	a5,zero,.L401
	.loc 1 3653 78 discriminator 2
	lla	a2,.LC118
	li	a5,4096
	addi	a1,a5,-443
	lla	a0,.LC1
	call	UnitTestDebugAssert
.L401:
	.loc 1 3654 7
	ld	a0,-48(s0)
	call	SetDevicePathEndNode
	.loc 1 3655 27
	ld	a5,-48(s0)
	li	a4,1
	sb	a4,1(a5)
	.loc 1 3657 23
	ld	a1,-48(s0)
	ld	a0,-24(s0)
	call	AppendDevicePathNode
	sd	a0,-56(s0)
	.loc 1 3658 7
	ld	a0,-24(s0)
	call	FreePool
	.loc 1 3659 7
	ld	a0,-48(s0)
	call	FreePool
	.loc 1 3660 18
	ld	a5,-56(s0)
	sd	a5,-24(s0)
.L400:
	.loc 1 3643 27
	addi	a4,s0,-65
	addi	a5,s0,-64
	mv	a1,a4
	mv	a0,a5
	call	GetNextDeviceNodeStr
	sd	a0,-40(s0)
	.loc 1 3643 9
	ld	a5,-40(s0)
	bne	a5,zero,.L402
	.loc 1 3664 3
	ld	a0,-32(s0)
	call	FreePool
	.loc 1 3665 10
	ld	a5,-24(s0)
.L403:
	.loc 1 3666 1 discriminator 1
	mv	a0,a5
	ld	ra,88(sp)
	.cfi_restore 1
	ld	s0,80(sp)
	.cfi_restore 8
	.cfi_def_cfa 2, 96
	addi	sp,sp,96
	.cfi_def_cfa_offset 0
	jr	ra
	.cfi_endproc
.LFE103:
	.size	UefiDevicePathLibConvertTextToDevicePath, .-UefiDevicePathLibConvertTextToDevicePath
	.text
.Letext0:
	.file 2 "/home/xephyr/Documents/edk2/MdePkg/Include/RiscV64/ProcessorBind.h"
	.file 3 "/home/xephyr/Documents/edk2/MdePkg/Include/Base.h"
	.file 4 "/home/xephyr/Documents/edk2/MdePkg/Include/Uefi/UefiBaseType.h"
	.file 5 "/home/xephyr/Documents/edk2/MdePkg/Include/Uefi/UefiMultiPhase.h"
	.file 6 "/home/xephyr/Documents/edk2/MdePkg/Include/Guid/WinCertificate.h"
	.file 7 "/home/xephyr/Documents/edk2/MdePkg/Include/Guid/PcAnsi.h"
	.file 8 "/home/xephyr/Documents/edk2/MdePkg/Include/IndustryStandard/Bluetooth.h"
	.file 9 "/home/xephyr/Documents/edk2/MdePkg/Include/Protocol/DevicePath.h"
	.file 10 "/home/xephyr/Documents/edk2/MdePkg/Include/Protocol/SimpleTextIn.h"
	.file 11 "/home/xephyr/Documents/edk2/MdePkg/Include/Protocol/SimpleTextInEx.h"
	.file 12 "/home/xephyr/Documents/edk2/MdePkg/Include/Protocol/SimpleTextOut.h"
	.file 13 "/home/xephyr/Documents/edk2/MdePkg/Include/Uefi/UefiSpec.h"
	.file 14 "/home/xephyr/Documents/edk2/MdePkg/Include/Guid/HiiFormMapMethodGuid.h"
	.file 15 "/home/xephyr/Documents/edk2/MdePkg/Include/Protocol/DebugSupport.h"
	.file 16 "/home/xephyr/Documents/edk2/MdePkg/Include/Protocol/MmCpuIo.h"
	.file 17 "/home/xephyr/Documents/edk2/Build/Mde/DEBUG_GCC5/RISCV64/MdePkg/Library/UefiDevicePathLib/UefiDevicePathLibStandaloneMm/DEBUG/AutoGen.h"
	.file 18 "/home/xephyr/Documents/edk2/MdePkg/Include/Protocol/DevicePathUtilities.h"
	.file 19 "/home/xephyr/Documents/edk2/MdePkg/Include/Protocol/DebugPort.h"
	.file 20 "/home/xephyr/Documents/edk2/MdePkg/Include/Protocol/DevicePathToText.h"
	.file 21 "/home/xephyr/Documents/edk2/MdePkg/Include/Protocol/DevicePathFromText.h"
	.file 22 "/home/xephyr/Documents/edk2/MdePkg/Include/Library/UefiBootServicesTableLib.h"
	.file 23 "/home/xephyr/Documents/edk2/MdePkg/Library/UefiDevicePathLib/UefiDevicePathLib.h"