	.file	"DevicePathUtilities.c"
	.option nopic
	.option norelax
	.attribute arch, "rv64i2p0_m2p0_a2p0_f2p0_d2p0_c2p0"
	.attribute unaligned_access, 0
	.attribute stack_align, 16
	.text
.Ltext0:
	.cfi_sections	.debug_frame
	.globl	mUefiDevicePathLibEndDevicePath
	.section	.rodata.mUefiDevicePathLibEndDevicePath,"a"
	.align	3
	.type	mUefiDevicePathLibEndDevicePath, @object
	.size	mUefiDevicePathLibEndDevicePath, 4
mUefiDevicePathLibEndDevicePath:
	.byte	127
	.byte	-1
	.string	"\004"
	.section	.text.IsDevicePathValid,"ax",@progbits
	.align	1
	.globl	IsDevicePathValid
	.type	IsDevicePathValid, @function
IsDevicePathValid:
.LFB0:
	.file 1 "/home/xephyr/Documents/edk2/MdePkg/Library/UefiDevicePathLib/DevicePathUtilities.c"
	.loc 1 52 1
	.cfi_startproc
	addi	sp,sp,-64
	.cfi_def_cfa_offset 64
	sd	ra,56(sp)
	sd	s0,48(sp)
	.cfi_offset 1, -8
	.cfi_offset 8, -16
	addi	s0,sp,64
	.cfi_def_cfa 8, 0
	sd	a0,-56(s0)
	sd	a1,-64(s0)
	.loc 1 60 6
	ld	a5,-56(s0)
	beq	a5,zero,.L2
	.loc 1 60 34 discriminator 1
	ld	a5,-64(s0)
	beq	a5,zero,.L3
	.loc 1 60 50 discriminator 2
	ld	a4,-64(s0)
	li	a5,3
	bgtu	a4,a5,.L3
.L2:
	.loc 1 61 12
	li	a5,0
	j	.L4
.L3:
	.loc 1 64 6
	ld	a5,-64(s0)
	bne	a5,zero,.L5
	.loc 1 65 13
	li	a5,-1
	sd	a5,-64(s0)
.L5:
	.loc 1 68 14
	sd	zero,-24(s0)
	.loc 1 68 24
	sd	zero,-32(s0)
	.loc 1 68 3
	j	.L6
.L12:
	.loc 1 69 18
	ld	a0,-56(s0)
	call	DevicePathNodeLength
	sd	a0,-40(s0)
	.loc 1 70 8
	ld	a4,-40(s0)
	li	a5,3
	bgtu	a4,a5,.L7
	.loc 1 71 14
	li	a5,0
	j	.L4
.L7:
	.loc 1 74 53
	ld	a5,-32(s0)
	not	a5,a5
	.loc 1 74 8
	ld	a4,-40(s0)
	bleu	a4,a5,.L8
	.loc 1 75 14
	li	a5,0
	j	.L4
.L8:
	.loc 1 77 10
	ld	a4,-32(s0)
	ld	a5,-40(s0)
	add	a5,a4,a5
	sd	a5,-32(s0)
	.loc 1 82 24
	ld	a5,-64(s0)
	addi	a5,a5,-4
	.loc 1 82 8
	ld	a4,-32(s0)
	bleu	a4,a5,.L9
	.loc 1 83 14
	li	a5,0
	j	.L4
.L9:
	.loc 1 86 58
	lla	a5,_gPcd_FixedAtBuild_PcdMaximumDevicePathNodeCount
	lw	a5,0(a5)
	.loc 1 86 8
	beq	a5,zero,.L10
	.loc 1 87 12
	ld	a5,-24(s0)
	addi	a5,a5,1
	sd	a5,-24(s0)
	.loc 1 88 17
	lla	a5,_gPcd_FixedAtBuild_PcdMaximumDevicePathNodeCount
	lw	a5,0(a5)
	slli	a5,a5,32
	srli	a5,a5,32
	.loc 1 88 10
	ld	a4,-24(s0)
	bltu	a4,a5,.L10
	.loc 1 89 16
	li	a5,0
	j	.L4
.L10:
	.loc 1 96 9
	ld	a0,-56(s0)
	call	DevicePathType
	mv	a5,a0
	.loc 1 96 8
	mv	a4,a5
	li	a5,4
	bne	a4,a5,.L11
	.loc 1 97 9 discriminator 1
	ld	a0,-56(s0)
	call	DevicePathSubType
	mv	a5,a0
	.loc 1 96 45 discriminator 1
	mv	a4,a5
	li	a5,4
	bne	a4,a5,.L11
	.loc 1 98 54
	ld	a5,-40(s0)
	addi	a5,a5,-2
	.loc 1 98 10
	ld	a4,-56(s0)
	add	a5,a4,a5
	.loc 1 98 9
	lhu	a5,0(a5)
	.loc 1 97 48
	beq	a5,zero,.L11
	.loc 1 99 14
	li	a5,0
	j	.L4
.L11:
	.loc 1 68 73 discriminator 2
	ld	a0,-56(s0)
	call	NextDevicePathNode
	sd	a0,-56(s0)
.L6:
	.loc 1 68 30 discriminator 1
	ld	a0,-56(s0)
	call	IsDevicePathEnd
	mv	a5,a0
	.loc 1 68 3 discriminator 1
	beq	a5,zero,.L12
	.loc 1 106 21
	ld	a0,-56(s0)
	call	DevicePathNodeLength
	mv	a5,a0
	.loc 1 106 10
	addi	a5,a5,-4
	seqz	a5,a5
	andi	a5,a5,0xff
.L4:
	.loc 1 107 1
	mv	a0,a5
	ld	ra,56(sp)
	.cfi_restore 1
	ld	s0,48(sp)
	.cfi_restore 8
	.cfi_def_cfa 2, 64
	addi	sp,sp,64
	.cfi_def_cfa_offset 0
	jr	ra
	.cfi_endproc
.LFE0:
	.size	IsDevicePathValid, .-IsDevicePathValid
	.section	.rodata
	.align	3
.LC0:
	.string	"Node != ((void *) 0)"
	.align	3
.LC1:
	.string	"/home/xephyr/Documents/edk2/MdePkg/Library/UefiDevicePathLib/DevicePathUtilities.c"
	.section	.text.DevicePathType,"ax",@progbits
	.align	1
	.globl	DevicePathType
	.type	DevicePathType, @function
DevicePathType:
.LFB1:
	.loc 1 127 1
	.cfi_startproc
	addi	sp,sp,-32
	.cfi_def_cfa_offset 32
	sd	ra,24(sp)
	sd	s0,16(sp)
	.cfi_offset 1, -8
	.cfi_offset 8, -16
	addi	s0,sp,32
	.cfi_def_cfa 8, 0
	sd	a0,-24(s0)
	.loc 1 128 12
	call	DebugAssertEnabled
	mv	a5,a0
	.loc 1 128 11
	beq	a5,zero,.L14
	.loc 1 128 40 discriminator 1
	ld	a5,-24(s0)
	bne	a5,zero,.L14
	.loc 1 128 68 discriminator 2
	lla	a2,.LC0
	li	a1,128
	lla	a0,.LC1
	call	UnitTestDebugAssert
.L14:
	.loc 1 129 46
	ld	a5,-24(s0)
	lbu	a5,0(a5)
	.loc 1 130 1
	mv	a0,a5
	ld	ra,24(sp)
	.cfi_restore 1
	ld	s0,16(sp)
	.cfi_restore 8
	.cfi_def_cfa 2, 32
	addi	sp,sp,32
	.cfi_def_cfa_offset 0
	jr	ra
	.cfi_endproc
.LFE1:
	.size	DevicePathType, .-DevicePathType
	.section	.text.DevicePathSubType,"ax",@progbits
	.align	1
	.globl	DevicePathSubType
	.type	DevicePathSubType, @function
DevicePathSubType:
.LFB2:
	.loc 1 149 1
	.cfi_startproc
	addi	sp,sp,-32
	.cfi_def_cfa_offset 32
	sd	ra,24(sp)
	sd	s0,16(sp)
	.cfi_offset 1, -8
	.cfi_offset 8, -16
	addi	s0,sp,32
	.cfi_def_cfa 8, 0
	sd	a0,-24(s0)
	.loc 1 150 12
	call	DebugAssertEnabled
	mv	a5,a0
	.loc 1 150 11
	beq	a5,zero,.L17
	.loc 1 150 40 discriminator 1
	ld	a5,-24(s0)
	bne	a5,zero,.L17
	.loc 1 150 68 discriminator 2
	lla	a2,.LC0
	li	a1,150
	lla	a0,.LC1
	call	UnitTestDebugAssert
.L17:
	.loc 1 151 46
	ld	a5,-24(s0)
	lbu	a5,1(a5)
	.loc 1 152 1
	mv	a0,a5
	ld	ra,24(sp)
	.cfi_restore 1
	ld	s0,16(sp)
	.cfi_restore 8
	.cfi_def_cfa 2, 32
	addi	sp,sp,32
	.cfi_def_cfa_offset 0
	jr	ra
	.cfi_endproc
.LFE2:
	.size	DevicePathSubType, .-DevicePathSubType
	.section	.text.DevicePathNodeLength,"ax",@progbits
	.align	1
	.globl	DevicePathNodeLength
	.type	DevicePathNodeLength, @function
DevicePathNodeLength:
.LFB3:
	.loc 1 174 1
	.cfi_startproc
	addi	sp,sp,-32
	.cfi_def_cfa_offset 32
	sd	ra,24(sp)
	sd	s0,16(sp)
	.cfi_offset 1, -8
	.cfi_offset 8, -16
	addi	s0,sp,32
	.cfi_def_cfa 8, 0
	sd	a0,-24(s0)
	.loc 1 175 12
	call	DebugAssertEnabled
	mv	a5,a0
	.loc 1 175 11
	beq	a5,zero,.L20
	.loc 1 175 40 discriminator 1
	ld	a5,-24(s0)
	bne	a5,zero,.L20
	.loc 1 175 68 discriminator 2
	lla	a2,.LC0
	li	a1,175
	lla	a0,.LC1
	call	UnitTestDebugAssert
.L20:
	.loc 1 176 37
	ld	a5,-24(s0)
	addi	a5,a5,2
	.loc 1 176 10
	mv	a0,a5
	call	ReadUnaligned16
	mv	a5,a0
	.loc 1 177 1
	mv	a0,a5
	ld	ra,24(sp)
	.cfi_restore 1
	ld	s0,16(sp)
	.cfi_restore 8
	.cfi_def_cfa 2, 32
	addi	sp,sp,32
	.cfi_def_cfa_offset 0
	jr	ra
	.cfi_endproc
.LFE3:
	.size	DevicePathNodeLength, .-DevicePathNodeLength
	.section	.text.NextDevicePathNode,"ax",@progbits
	.align	1
	.globl	NextDevicePathNode
	.type	NextDevicePathNode, @function
NextDevicePathNode:
.LFB4:
	.loc 1 198 1
	.cfi_startproc
	addi	sp,sp,-32
	.cfi_def_cfa_offset 32
	sd	ra,24(sp)
	sd	s0,16(sp)
	.cfi_offset 1, -8
	.cfi_offset 8, -16
	addi	s0,sp,32
	.cfi_def_cfa 8, 0
	sd	a0,-24(s0)
	.loc 1 199 12
	call	DebugAssertEnabled
	mv	a5,a0
	.loc 1 199 11
	beq	a5,zero,.L23
	.loc 1 199 40 discriminator 1
	ld	a5,-24(s0)
	bne	a5,zero,.L23
	.loc 1 199 68 discriminator 2
	lla	a2,.LC0
	li	a1,199
	lla	a0,.LC1
	call	UnitTestDebugAssert
.L23:
	.loc 1 200 57
	ld	a0,-24(s0)
	call	DevicePathNodeLength
	mv	a4,a0
	.loc 1 200 10
	ld	a5,-24(s0)
	add	a5,a5,a4
	.loc 1 201 1
	mv	a0,a5
	ld	ra,24(sp)
	.cfi_restore 1
	ld	s0,16(sp)
	.cfi_restore 8
	.cfi_def_cfa 2, 32
	addi	sp,sp,32
	.cfi_def_cfa_offset 0
	jr	ra
	.cfi_endproc
.LFE4:
	.size	NextDevicePathNode, .-NextDevicePathNode
	.section	.text.IsDevicePathEndType,"ax",@progbits
	.align	1
	.globl	IsDevicePathEndType
	.type	IsDevicePathEndType, @function
IsDevicePathEndType:
.LFB5:
	.loc 1 228 1
	.cfi_startproc
	addi	sp,sp,-32
	.cfi_def_cfa_offset 32
	sd	ra,24(sp)
	sd	s0,16(sp)
	.cfi_offset 1, -8
	.cfi_offset 8, -16
	addi	s0,sp,32
	.cfi_def_cfa 8, 0
	sd	a0,-24(s0)
	.loc 1 229 12
	call	DebugAssertEnabled
	mv	a5,a0
	.loc 1 229 11
	beq	a5,zero,.L26
	.loc 1 229 40 discriminator 1
	ld	a5,-24(s0)
	bne	a5,zero,.L26
	.loc 1 229 68 discriminator 2
	lla	a2,.LC0
	li	a1,229
	lla	a0,.LC1
	call	UnitTestDebugAssert
.L26:
	.loc 1 230 21
	ld	a0,-24(s0)
	call	DevicePathType
	mv	a5,a0
	.loc 1 230 10
	sext.w	a4,a5
	li	a5,127
	sub	a5,a4,a5
	seqz	a5,a5
	andi	a5,a5,0xff
	.loc 1 231 1
	mv	a0,a5
	ld	ra,24(sp)
	.cfi_restore 1
	ld	s0,16(sp)
	.cfi_restore 8
	.cfi_def_cfa 2, 32
	addi	sp,sp,32
	.cfi_def_cfa_offset 0
	jr	ra
	.cfi_endproc
.LFE5:
	.size	IsDevicePathEndType, .-IsDevicePathEndType
	.section	.text.IsDevicePathEnd,"ax",@progbits
	.align	1
	.globl	IsDevicePathEnd
	.type	IsDevicePathEnd, @function
IsDevicePathEnd:
.LFB6:
	.loc 1 255 1
	.cfi_startproc
	addi	sp,sp,-32
	.cfi_def_cfa_offset 32
	sd	ra,24(sp)
	sd	s0,16(sp)
	.cfi_offset 1, -8
	.cfi_offset 8, -16
	addi	s0,sp,32
	.cfi_def_cfa 8, 0
	sd	a0,-24(s0)
	.loc 1 256 12
	call	DebugAssertEnabled
	mv	a5,a0
	.loc 1 256 11
	beq	a5,zero,.L29
	.loc 1 256 40 discriminator 1
	ld	a5,-24(s0)
	bne	a5,zero,.L29
	.loc 1 256 68 discriminator 2
	lla	a2,.LC0
	li	a1,256
	lla	a0,.LC1
	call	UnitTestDebugAssert
.L29:
	.loc 1 257 21
	ld	a0,-24(s0)
	call	IsDevicePathEndType
	mv	a5,a0
	.loc 1 257 48
	beq	a5,zero,.L30
	.loc 1 257 51 discriminator 1
	ld	a0,-24(s0)
	call	DevicePathSubType
	mv	a5,a0
	.loc 1 257 48 discriminator 1
	mv	a4,a5
	li	a5,255
	bne	a4,a5,.L30
	.loc 1 257 48 is_stmt 0 discriminator 3
	li	a5,1
	j	.L31
.L30:
	.loc 1 257 48 discriminator 4
	li	a5,0
.L31:
	.loc 1 257 10 is_stmt 1 discriminator 6
	andi	a5,a5,0xff
	.loc 1 258 1 discriminator 6
	mv	a0,a5
	ld	ra,24(sp)
	.cfi_restore 1
	ld	s0,16(sp)
	.cfi_restore 8
	.cfi_def_cfa 2, 32
	addi	sp,sp,32
	.cfi_def_cfa_offset 0
	jr	ra
	.cfi_endproc
.LFE6:
	.size	IsDevicePathEnd, .-IsDevicePathEnd
	.section	.text.IsDevicePathEndInstance,"ax",@progbits
	.align	1
	.globl	IsDevicePathEndInstance
	.type	IsDevicePathEndInstance, @function
IsDevicePathEndInstance:
.LFB7:
	.loc 1 282 1
	.cfi_startproc
	addi	sp,sp,-32
	.cfi_def_cfa_offset 32
	sd	ra,24(sp)
	sd	s0,16(sp)
	.cfi_offset 1, -8
	.cfi_offset 8, -16
	addi	s0,sp,32
	.cfi_def_cfa 8, 0
	sd	a0,-24(s0)
	.loc 1 283 12
	call	DebugAssertEnabled
	mv	a5,a0
	.loc 1 283 11
	beq	a5,zero,.L34
	.loc 1 283 40 discriminator 1
	ld	a5,-24(s0)
	bne	a5,zero,.L34
	.loc 1 283 68 discriminator 2
	lla	a2,.LC0
	li	a1,283
	lla	a0,.LC1
	call	UnitTestDebugAssert
.L34:
	.loc 1 284 21
	ld	a0,-24(s0)
	call	IsDevicePathEndType
	mv	a5,a0
	.loc 1 284 48
	beq	a5,zero,.L35
	.loc 1 284 51 discriminator 1
	ld	a0,-24(s0)
	call	DevicePathSubType
	mv	a5,a0
	.loc 1 284 48 discriminator 1
	mv	a4,a5
	li	a5,1
	bne	a4,a5,.L35
	.loc 1 284 48 is_stmt 0 discriminator 3
	li	a5,1
	j	.L36
.L35:
	.loc 1 284 48 discriminator 4
	li	a5,0
.L36:
	.loc 1 284 10 is_stmt 1 discriminator 6
	andi	a5,a5,0xff
	.loc 1 285 1 discriminator 6
	mv	a0,a5
	ld	ra,24(sp)
	.cfi_restore 1
	ld	s0,16(sp)
	.cfi_restore 8
	.cfi_def_cfa 2, 32
	addi	sp,sp,32
	.cfi_def_cfa_offset 0
	jr	ra
	.cfi_endproc
.LFE7:
	.size	IsDevicePathEndInstance, .-IsDevicePathEndInstance
	.section	.rodata
	.align	3
.LC2:
	.string	"(Length >= sizeof (EFI_DEVICE_PATH_PROTOCOL)) && (Length < 0x00010000)"
	.section	.text.SetDevicePathNodeLength,"ax",@progbits
	.align	1
	.globl	SetDevicePathNodeLength
	.type	SetDevicePathNodeLength, @function
SetDevicePathNodeLength:
.LFB8:
	.loc 1 311 1
	.cfi_startproc
	addi	sp,sp,-32
	.cfi_def_cfa_offset 32
	sd	ra,24(sp)
	sd	s0,16(sp)
	.cfi_offset 1, -8
	.cfi_offset 8, -16
	addi	s0,sp,32
	.cfi_def_cfa 8, 0
	sd	a0,-24(s0)
	sd	a1,-32(s0)
	.loc 1 312 12
	call	DebugAssertEnabled
	mv	a5,a0
	.loc 1 312 11
	beq	a5,zero,.L39
	.loc 1 312 40 discriminator 1
	ld	a5,-24(s0)
	bne	a5,zero,.L39
	.loc 1 312 68 discriminator 2
	lla	a2,.LC0
	li	a1,312
	lla	a0,.LC1
	call	UnitTestDebugAssert
.L39:
	.loc 1 313 12
	call	DebugAssertEnabled
	mv	a5,a0
	.loc 1 313 11
	beq	a5,zero,.L40
	.loc 1 313 40 discriminator 1
	ld	a4,-32(s0)
	li	a5,3
	bleu	a4,a5,.L41
	.loc 1 313 41 discriminator 3
	ld	a4,-32(s0)
	li	a5,65536
	bltu	a4,a5,.L40
.L41:
	.loc 1 313 118 discriminator 4
	lla	a2,.LC2
	li	a1,313
	lla	a0,.LC1
	call	UnitTestDebugAssert
.L40:
	.loc 1 314 38
	ld	a5,-24(s0)
	addi	a5,a5,2
	.loc 1 314 10
	ld	a4,-32(s0)
	slli	a4,a4,48
	srli	a4,a4,48
	mv	a1,a4
	mv	a0,a5
	call	WriteUnaligned16
	mv	a5,a0
	.loc 1 315 1
	mv	a0,a5
	ld	ra,24(sp)
	.cfi_restore 1
	ld	s0,16(sp)
	.cfi_restore 8
	.cfi_def_cfa 2, 32
	addi	sp,sp,32
	.cfi_def_cfa_offset 0
	jr	ra
	.cfi_endproc
.LFE8:
	.size	SetDevicePathNodeLength, .-SetDevicePathNodeLength
	.section	.text.SetDevicePathEndNode,"ax",@progbits
	.align	1
	.globl	SetDevicePathEndNode
	.type	SetDevicePathEndNode, @function
SetDevicePathEndNode:
.LFB9:
	.loc 1 338 1
	.cfi_startproc
	addi	sp,sp,-32
	.cfi_def_cfa_offset 32
	sd	ra,24(sp)
	sd	s0,16(sp)
	.cfi_offset 1, -8
	.cfi_offset 8, -16
	addi	s0,sp,32
	.cfi_def_cfa 8, 0
	sd	a0,-24(s0)
	.loc 1 339 12
	call	DebugAssertEnabled
	mv	a5,a0
	.loc 1 339 11
	beq	a5,zero,.L44
	.loc 1 339 40 discriminator 1
	ld	a5,-24(s0)
	bne	a5,zero,.L44
	.loc 1 339 68 discriminator 2
	lla	a2,.LC0
	li	a1,339
	lla	a0,.LC1
	call	UnitTestDebugAssert
.L44:
	.loc 1 340 3
	li	a2,4
	lla	a1,mUefiDevicePathLibEndDevicePath
	ld	a0,-24(s0)
	call	CopyMem
	.loc 1 341 1
	nop
	ld	ra,24(sp)
	.cfi_restore 1
	ld	s0,16(sp)
	.cfi_restore 8
	.cfi_def_cfa 2, 32
	addi	sp,sp,32
	.cfi_def_cfa_offset 0
	jr	ra
	.cfi_endproc
.LFE9:
	.size	SetDevicePathEndNode, .-SetDevicePathEndNode
	.section	.text.UefiDevicePathLibGetDevicePathSize,"ax",@progbits
	.align	1
	.globl	UefiDevicePathLibGetDevicePathSize
	.type	UefiDevicePathLibGetDevicePathSize, @function
UefiDevicePathLibGetDevicePathSize:
.LFB10:
	.loc 1 361 1
	.cfi_startproc
	addi	sp,sp,-64
	.cfi_def_cfa_offset 64
	sd	ra,56(sp)
	sd	s0,48(sp)
	sd	s1,40(sp)
	.cfi_offset 1, -8
	.cfi_offset 8, -16
	.cfi_offset 9, -24
	addi	s0,sp,64
	.cfi_def_cfa 8, 0
	sd	a0,-56(s0)
	.loc 1 364 6
	ld	a5,-56(s0)
	bne	a5,zero,.L46
	.loc 1 365 12
	li	a5,0
	j	.L47
.L46:
	.loc 1 368 8
	li	a1,0
	ld	a0,-56(s0)
	call	IsDevicePathValid
	mv	a5,a0
	.loc 1 368 6
	bne	a5,zero,.L48
	.loc 1 369 12
	li	a5,0
	j	.L47
.L48:
	.loc 1 375 9
	ld	a5,-56(s0)
	sd	a5,-40(s0)
	.loc 1 376 9
	j	.L49
.L50:
	.loc 1 377 18
	ld	a0,-56(s0)
	call	NextDevicePathNode
	sd	a0,-56(s0)
.L49:
	.loc 1 376 11
	ld	a0,-56(s0)
	call	IsDevicePathEnd
	mv	a5,a0
	.loc 1 376 9
	beq	a5,zero,.L50
	.loc 1 383 11
	ld	a4,-56(s0)
	.loc 1 383 32
	ld	a5,-40(s0)
	.loc 1 383 30
	sub	s1,a4,a5
	.loc 1 383 49
	ld	a0,-56(s0)
	call	DevicePathNodeLength
	mv	a5,a0
	.loc 1 383 47
	add	a5,s1,a5
.L47:
	.loc 1 384 1
	mv	a0,a5
	ld	ra,56(sp)
	.cfi_restore 1
	ld	s0,48(sp)
	.cfi_restore 8
	.cfi_def_cfa 2, 64
	ld	s1,40(sp)
	.cfi_restore 9
	addi	sp,sp,64
	.cfi_def_cfa_offset 0
	jr	ra
	.cfi_endproc
.LFE10:
	.size	UefiDevicePathLibGetDevicePathSize, .-UefiDevicePathLibGetDevicePathSize
	.section	.text.UefiDevicePathLibDuplicateDevicePath,"ax",@progbits
	.align	1
	.globl	UefiDevicePathLibDuplicateDevicePath
	.type	UefiDevicePathLibDuplicateDevicePath, @function
UefiDevicePathLibDuplicateDevicePath:
.LFB11:
	.loc 1 407 1
	.cfi_startproc
	addi	sp,sp,-48
	.cfi_def_cfa_offset 48
	sd	ra,40(sp)
	sd	s0,32(sp)
	.cfi_offset 1, -8
	.cfi_offset 8, -16
	addi	s0,sp,48
	.cfi_def_cfa 8, 0
	sd	a0,-40(s0)
	.loc 1 413 10
	ld	a0,-40(s0)
	call	GetDevicePathSize
	sd	a0,-24(s0)
	.loc 1 414 6
	ld	a5,-24(s0)
	bne	a5,zero,.L52
	.loc 1 415 12
	li	a5,0
	j	.L53
.L52:
	.loc 1 422 10
	ld	a1,-40(s0)
	ld	a0,-24(s0)
	call	AllocateCopyPool
	mv	a5,a0
.L53:
	.loc 1 423 1
	mv	a0,a5
	ld	ra,40(sp)
	.cfi_restore 1
	ld	s0,32(sp)
	.cfi_restore 8
	.cfi_def_cfa 2, 48
	addi	sp,sp,48
	.cfi_def_cfa_offset 0
	jr	ra
	.cfi_endproc
.LFE11:
	.size	UefiDevicePathLibDuplicateDevicePath, .-UefiDevicePathLibDuplicateDevicePath
	.section	.text.UefiDevicePathLibAppendDevicePath,"ax",@progbits
	.align	1
	.globl	UefiDevicePathLibAppendDevicePath
	.type	UefiDevicePathLibAppendDevicePath, @function
UefiDevicePathLibAppendDevicePath:
.LFB12:
	.loc 1 455 1
	.cfi_startproc
	addi	sp,sp,-80
	.cfi_def_cfa_offset 80
	sd	ra,72(sp)
	sd	s0,64(sp)
	.cfi_offset 1, -8
	.cfi_offset 8, -16
	addi	s0,sp,80
	.cfi_def_cfa 8, 0
	sd	a0,-72(s0)
	sd	a1,-80(s0)
	.loc 1 465 6
	ld	a5,-72(s0)
	bne	a5,zero,.L55
	.loc 1 466 12
	ld	a5,-80(s0)
	beq	a5,zero,.L56
	.loc 1 466 12 is_stmt 0 discriminator 1
	ld	a5,-80(s0)
	j	.L57
.L56:
	.loc 1 466 12 discriminator 2
	lla	a5,mUefiDevicePathLibEndDevicePath
.L57:
	.loc 1 466 12 discriminator 4
	mv	a0,a5
	call	DuplicateDevicePath
	mv	a5,a0
	j	.L58
.L55:
	.loc 1 469 6 is_stmt 1
	ld	a5,-80(s0)
	bne	a5,zero,.L59
	.loc 1 470 12
	ld	a0,-72(s0)
	call	DuplicateDevicePath
	mv	a5,a0
	j	.L58
.L59:
	.loc 1 473 8
	li	a1,0
	ld	a0,-72(s0)
	call	IsDevicePathValid
	mv	a5,a0
	.loc 1 473 6
	beq	a5,zero,.L60
	.loc 1 473 51 discriminator 1
	li	a1,0
	ld	a0,-80(s0)
	call	IsDevicePathValid
	mv	a5,a0
	.loc 1 473 47 discriminator 1
	bne	a5,zero,.L61
.L60:
	.loc 1 474 12
	li	a5,0
	j	.L58
.L61:
	.loc 1 481 11
	ld	a0,-72(s0)
	call	GetDevicePathSize
	sd	a0,-32(s0)
	.loc 1 482 11
	ld	a0,-80(s0)
	call	GetDevicePathSize
	sd	a0,-40(s0)
	.loc 1 483 16
	ld	a4,-32(s0)
	ld	a5,-40(s0)
	add	a5,a4,a5
	.loc 1 483 8
	addi	a5,a5,-4
	sd	a5,-48(s0)
	.loc 1 485 19
	ld	a0,-48(s0)
	call	AllocatePool
	sd	a0,-24(s0)
	.loc 1 487 6
	ld	a5,-24(s0)
	beq	a5,zero,.L62
	.loc 1 488 21
	ld	a2,-32(s0)
	ld	a1,-72(s0)
	ld	a0,-24(s0)
	call	CopyMem
	sd	a0,-24(s0)
	.loc 1 492 73
	ld	a5,-32(s0)
	addi	a5,a5,-4
	.loc 1 492 17
	ld	a4,-24(s0)
	add	a5,a4,a5
	sd	a5,-56(s0)
	.loc 1 494 5
	ld	a2,-40(s0)
	ld	a1,-80(s0)
	ld	a0,-56(s0)
	call	CopyMem
.L62:
	.loc 1 497 10
	ld	a5,-24(s0)
.L58:
	.loc 1 498 1
	mv	a0,a5
	ld	ra,72(sp)
	.cfi_restore 1
	ld	s0,64(sp)
	.cfi_restore 8
	.cfi_def_cfa 2, 80
	addi	sp,sp,80
	.cfi_def_cfa_offset 0
	jr	ra
	.cfi_endproc
.LFE12:
	.size	UefiDevicePathLibAppendDevicePath, .-UefiDevicePathLibAppendDevicePath
	.section	.text.UefiDevicePathLibAppendDevicePathNode,"ax",@progbits
	.align	1
	.globl	UefiDevicePathLibAppendDevicePathNode
	.type	UefiDevicePathLibAppendDevicePathNode, @function
UefiDevicePathLibAppendDevicePathNode:
.LFB13:
	.loc 1 534 1
	.cfi_startproc
	addi	sp,sp,-64
	.cfi_def_cfa_offset 64
	sd	ra,56(sp)
	sd	s0,48(sp)
	.cfi_offset 1, -8
	.cfi_offset 8, -16
	addi	s0,sp,64
	.cfi_def_cfa 8, 0
	sd	a0,-56(s0)
	sd	a1,-64(s0)
	.loc 1 540 6
	ld	a5,-64(s0)
	bne	a5,zero,.L64
	.loc 1 541 12
	ld	a5,-56(s0)
	beq	a5,zero,.L65
	.loc 1 541 12 is_stmt 0 discriminator 1
	ld	a5,-56(s0)
	j	.L66
.L65:
	.loc 1 541 12 discriminator 2
	lla	a5,mUefiDevicePathLibEndDevicePath
.L66:
	.loc 1 541 12 discriminator 4
	mv	a0,a5
	call	DuplicateDevicePath
	mv	a5,a0
	j	.L67
.L64:
	.loc 1 546 16 is_stmt 1
	ld	a0,-64(s0)
	call	DevicePathNodeLength
	sd	a0,-24(s0)
	.loc 1 548 20
	ld	a5,-24(s0)
	addi	a5,a5,4
	mv	a0,a5
	call	AllocatePool
	sd	a0,-32(s0)
	.loc 1 549 6
	ld	a5,-32(s0)
	bne	a5,zero,.L68
	.loc 1 550 12
	li	a5,0
	j	.L67
.L68:
	.loc 1 552 20
	ld	a2,-24(s0)
	ld	a1,-64(s0)
	ld	a0,-32(s0)
	call	CopyMem
	sd	a0,-32(s0)
	.loc 1 556 14
	ld	a0,-32(s0)
	call	NextDevicePathNode
	sd	a0,-40(s0)
	.loc 1 557 3
	ld	a0,-40(s0)
	call	SetDevicePathEndNode
	.loc 1 561 19
	ld	a1,-32(s0)
	ld	a0,-56(s0)
	call	AppendDevicePath
	sd	a0,-48(s0)
	.loc 1 563 3
	ld	a0,-32(s0)
	call	FreePool
	.loc 1 565 10
	ld	a5,-48(s0)
.L67:
	.loc 1 566 1
	mv	a0,a5
	ld	ra,56(sp)
	.cfi_restore 1
	ld	s0,48(sp)
	.cfi_restore 8
	.cfi_def_cfa 2, 64
	addi	sp,sp,64
	.cfi_def_cfa_offset 0
	jr	ra
	.cfi_endproc
.LFE13:
	.size	UefiDevicePathLibAppendDevicePathNode, .-UefiDevicePathLibAppendDevicePathNode
	.section	.text.UefiDevicePathLibAppendDevicePathInstance,"ax",@progbits
	.align	1
	.globl	UefiDevicePathLibAppendDevicePathInstance
	.type	UefiDevicePathLibAppendDevicePathInstance, @function
UefiDevicePathLibAppendDevicePathInstance:
.LFB14:
	.loc 1 597 1
	.cfi_startproc
	addi	sp,sp,-64
	.cfi_def_cfa_offset 64
	sd	ra,56(sp)
	sd	s0,48(sp)
	.cfi_offset 1, -8
	.cfi_offset 8, -16
	addi	s0,sp,64
	.cfi_def_cfa 8, 0
	sd	a0,-56(s0)
	sd	a1,-64(s0)
	.loc 1 603 6
	ld	a5,-56(s0)
	bne	a5,zero,.L70
	.loc 1 604 12
	ld	a0,-64(s0)
	call	DuplicateDevicePath
	mv	a5,a0
	j	.L71
.L70:
	.loc 1 607 6
	ld	a5,-64(s0)
	bne	a5,zero,.L72
	.loc 1 608 12
	li	a5,0
	j	.L71
.L72:
	.loc 1 611 8
	li	a1,0
	ld	a0,-56(s0)
	call	IsDevicePathValid
	mv	a5,a0
	.loc 1 611 6
	beq	a5,zero,.L73
	.loc 1 611 46 discriminator 1
	li	a1,0
	ld	a0,-64(s0)
	call	IsDevicePathValid
	mv	a5,a0
	.loc 1 611 42 discriminator 1
	bne	a5,zero,.L74
.L73:
	.loc 1 612 12
	li	a5,0
	j	.L71
.L74:
	.loc 1 615 13
	ld	a0,-56(s0)
	call	GetDevicePathSize
	sd	a0,-32(s0)
	.loc 1 616 18
	ld	a0,-64(s0)
	call	GetDevicePathSize
	sd	a0,-40(s0)
	.loc 1 618 19
	ld	a4,-32(s0)
	ld	a5,-40(s0)
	add	a5,a4,a5
	mv	a0,a5
	call	AllocatePool
	sd	a0,-48(s0)
	.loc 1 619 6
	ld	a5,-48(s0)
	beq	a5,zero,.L75
	.loc 1 621 22
	ld	a2,-32(s0)
	ld	a1,-56(s0)
	ld	a0,-48(s0)
	call	CopyMem
	sd	a0,-24(s0)
	.loc 1 623 11
	j	.L76
.L77:
	.loc 1 624 24
	ld	a0,-24(s0)
	call	NextDevicePathNode
	sd	a0,-24(s0)
.L76:
	.loc 1 623 13
	ld	a0,-24(s0)
	call	IsDevicePathEnd
	mv	a5,a0
	.loc 1 623 11
	beq	a5,zero,.L77
	.loc 1 627 29
	ld	a5,-24(s0)
	li	a4,1
	sb	a4,1(a5)
	.loc 1 628 22
	ld	a0,-24(s0)
	call	NextDevicePathNode
	sd	a0,-24(s0)
	.loc 1 629 5
	ld	a2,-40(s0)
	ld	a1,-64(s0)
	ld	a0,-24(s0)
	call	CopyMem
.L75:
	.loc 1 632 10
	ld	a5,-48(s0)
.L71:
	.loc 1 633 1
	mv	a0,a5
	ld	ra,56(sp)
	.cfi_restore 1
	ld	s0,48(sp)
	.cfi_restore 8
	.cfi_def_cfa 2, 64
	addi	sp,sp,64
	.cfi_def_cfa_offset 0
	jr	ra
	.cfi_endproc
.LFE14:
	.size	UefiDevicePathLibAppendDevicePathInstance, .-UefiDevicePathLibAppendDevicePathInstance
	.section	.rodata
	.align	3
.LC3:
	.string	"Size != ((void *) 0)"
	.section	.text.UefiDevicePathLibGetNextDevicePathInstance,"ax",@progbits
	.align	1
	.globl	UefiDevicePathLibGetNextDevicePathInstance
	.type	UefiDevicePathLibGetNextDevicePathInstance, @function
UefiDevicePathLibGetNextDevicePathInstance:
.LFB15:
	.loc 1 669 1
	.cfi_startproc
	addi	sp,sp,-64
	.cfi_def_cfa_offset 64
	sd	ra,56(sp)
	sd	s0,48(sp)
	.cfi_offset 1, -8
	.cfi_offset 8, -16
	addi	s0,sp,64
	.cfi_def_cfa 8, 0
	sd	a0,-56(s0)
	sd	a1,-64(s0)
	.loc 1 674 12
	call	DebugAssertEnabled
	mv	a5,a0
	.loc 1 674 11
	beq	a5,zero,.L79
	.loc 1 674 40 discriminator 1
	ld	a5,-64(s0)
	bne	a5,zero,.L79
	.loc 1 674 68 discriminator 2
	lla	a2,.LC3
	li	a1,674
	lla	a0,.LC1
	call	UnitTestDebugAssert
.L79:
	.loc 1 676 6
	ld	a5,-56(s0)
	beq	a5,zero,.L80
	.loc 1 676 37 discriminator 1
	ld	a5,-56(s0)
	ld	a5,0(a5)
	.loc 1 676 34 discriminator 1
	bne	a5,zero,.L81
.L80:
	.loc 1 677 11
	ld	a5,-64(s0)
	sd	zero,0(a5)
	.loc 1 678 12
	li	a5,0
	j	.L82
.L81:
	.loc 1 681 8
	ld	a5,-56(s0)
	ld	a5,0(a5)
	li	a1,0
	mv	a0,a5
	call	IsDevicePathValid
	mv	a5,a0
	.loc 1 681 6
	bne	a5,zero,.L83
	.loc 1 682 12
	li	a5,0
	j	.L82
.L83:
	.loc 1 688 11
	ld	a5,-56(s0)
	ld	a5,0(a5)
	sd	a5,-24(s0)
	.loc 1 689 9
	j	.L84
.L85:
	.loc 1 690 15
	ld	a0,-24(s0)
	call	NextDevicePathNode
	sd	a0,-24(s0)
.L84:
	.loc 1 689 11
	ld	a0,-24(s0)
	call	IsDevicePathEndType
	mv	a5,a0
	.loc 1 689 9
	beq	a5,zero,.L85
	.loc 1 696 12
	ld	a5,-24(s0)
	.loc 1 696 39
	ld	a4,-56(s0)
	ld	a4,0(a4)
	.loc 1 696 28
	sub	a5,a5,a4
	.loc 1 696 53
	addi	a4,a5,4
	.loc 1 696 9
	ld	a5,-64(s0)
	sd	a4,0(a5)
	.loc 1 701 8
	ld	a5,-24(s0)
	lbu	a5,1(a5)
	sb	a5,-25(s0)
	.loc 1 702 20
	ld	a5,-24(s0)
	li	a4,-1
	sb	a4,1(a5)
	.loc 1 703 17
	ld	a5,-56(s0)
	ld	a5,0(a5)
	mv	a0,a5
	call	DuplicateDevicePath
	sd	a0,-40(s0)
	.loc 1 704 20
	ld	a5,-24(s0)
	lbu	a4,-25(s0)
	sb	a4,1(a5)
	.loc 1 710 7
	ld	a0,-24(s0)
	call	DevicePathSubType
	mv	a5,a0
	.loc 1 710 6
	mv	a4,a5
	li	a5,255
	bne	a4,a5,.L86
	.loc 1 711 17
	ld	a5,-56(s0)
	sd	zero,0(a5)
	j	.L87
.L86:
	.loc 1 713 19
	ld	a0,-24(s0)
	call	NextDevicePathNode
	mv	a4,a0
	.loc 1 713 17
	ld	a5,-56(s0)
	sd	a4,0(a5)
.L87:
	.loc 1 716 10
	ld	a5,-40(s0)
.L82:
	.loc 1 717 1
	mv	a0,a5
	ld	ra,56(sp)
	.cfi_restore 1
	ld	s0,48(sp)
	.cfi_restore 8
	.cfi_def_cfa 2, 64
	addi	sp,sp,64
	.cfi_def_cfa_offset 0
	jr	ra
	.cfi_endproc
.LFE15:
	.size	UefiDevicePathLibGetNextDevicePathInstance, .-UefiDevicePathLibGetNextDevicePathInstance
	.section	.text.UefiDevicePathLibCreateDeviceNode,"ax",@progbits
	.align	1
	.globl	UefiDevicePathLibCreateDeviceNode
	.type	UefiDevicePathLibCreateDeviceNode, @function
UefiDevicePathLibCreateDeviceNode:
.LFB16:
	.loc 1 745 1
	.cfi_startproc
	addi	sp,sp,-48
	.cfi_def_cfa_offset 48
	sd	ra,40(sp)
	sd	s0,32(sp)
	.cfi_offset 1, -8
	.cfi_offset 8, -16
	addi	s0,sp,48
	.cfi_def_cfa 8, 0
	mv	a5,a0
	mv	a3,a1
	mv	a4,a2
	sb	a5,-33(s0)
	mv	a5,a3
	sb	a5,-34(s0)
	mv	a5,a4
	sh	a5,-36(s0)
	.loc 1 748 6
	lhu	a5,-36(s0)
	sext.w	a4,a5
	li	a5,3
	bgtu	a4,a5,.L89
	.loc 1 752 12
	li	a5,0
	j	.L90
.L89:
	.loc 1 755 16
	lhu	a5,-36(s0)
	mv	a0,a5
	call	AllocateZeroPool
	sd	a0,-24(s0)
	.loc 1 756 6
	ld	a5,-24(s0)
	beq	a5,zero,.L91
	.loc 1 757 23
	ld	a5,-24(s0)
	lbu	a4,-33(s0)
	sb	a4,0(a5)
	.loc 1 758 26
	ld	a5,-24(s0)
	lbu	a4,-34(s0)
	sb	a4,1(a5)
	.loc 1 759 6
	lhu	a5,-36(s0)
	mv	a1,a5
	ld	a0,-24(s0)
	call	SetDevicePathNodeLength
.L91:
	.loc 1 762 10
	ld	a5,-24(s0)
.L90:
	.loc 1 763 1
	mv	a0,a5
	ld	ra,40(sp)
	.cfi_restore 1
	ld	s0,32(sp)
	.cfi_restore 8
	.cfi_def_cfa 2, 48
	addi	sp,sp,48
	.cfi_def_cfa_offset 0
	jr	ra
	.cfi_endproc
.LFE16:
	.size	UefiDevicePathLibCreateDeviceNode, .-UefiDevicePathLibCreateDeviceNode
	.section	.text.UefiDevicePathLibIsDevicePathMultiInstance,"ax",@progbits
	.align	1
	.globl	UefiDevicePathLibIsDevicePathMultiInstance
	.type	UefiDevicePathLibIsDevicePathMultiInstance, @function
UefiDevicePathLibIsDevicePathMultiInstance:
.LFB17:
	.loc 1 785 1
	.cfi_startproc
	addi	sp,sp,-48
	.cfi_def_cfa_offset 48
	sd	ra,40(sp)
	sd	s0,32(sp)
	.cfi_offset 1, -8
	.cfi_offset 8, -16
	addi	s0,sp,48
	.cfi_def_cfa 8, 0
	sd	a0,-40(s0)
	.loc 1 788 6
	ld	a5,-40(s0)
	bne	a5,zero,.L93
	.loc 1 789 12
	li	a5,0
	j	.L94
.L93:
	.loc 1 792 8
	li	a1,0
	ld	a0,-40(s0)
	call	IsDevicePathValid
	mv	a5,a0
	.loc 1 792 6
	bne	a5,zero,.L95
	.loc 1 793 12
	li	a5,0
	j	.L94
.L95:
	.loc 1 796 8
	ld	a5,-40(s0)
	sd	a5,-24(s0)
	.loc 1 797 9
	j	.L96
.L98:
	.loc 1 798 9
	ld	a0,-24(s0)
	call	IsDevicePathEndInstance
	mv	a5,a0
	.loc 1 798 8
	beq	a5,zero,.L97
	.loc 1 799 14
	li	a5,1
	j	.L94
.L97:
	.loc 1 802 12
	ld	a0,-24(s0)
	call	NextDevicePathNode
	sd	a0,-24(s0)
.L96:
	.loc 1 797 11
	ld	a0,-24(s0)
	call	IsDevicePathEnd
	mv	a5,a0
	.loc 1 797 9
	beq	a5,zero,.L98
	.loc 1 805 10
	li	a5,0
.L94:
	.loc 1 806 1
	mv	a0,a5
	ld	ra,40(sp)
	.cfi_restore 1
	ld	s0,32(sp)
	.cfi_restore 8
	.cfi_def_cfa 2, 48
	addi	sp,sp,48
	.cfi_def_cfa_offset 0
	jr	ra
	.cfi_endproc
.LFE17:
	.size	UefiDevicePathLibIsDevicePathMultiInstance, .-UefiDevicePathLibIsDevicePathMultiInstance
	.section	.text.FileDevicePath,"ax",@progbits
	.align	1
	.globl	FileDevicePath
	.type	FileDevicePath, @function
FileDevicePath:
.LFB18:
	.loc 1 836 1
	.cfi_startproc
	addi	sp,sp,-64
	.cfi_def_cfa_offset 64
	sd	ra,56(sp)
	sd	s0,48(sp)
	.cfi_offset 1, -8
	.cfi_offset 8, -16
	addi	s0,sp,64
	.cfi_def_cfa 8, 0
	sd	a0,-56(s0)
	sd	a1,-64(s0)
	.loc 1 842 14
	sd	zero,-24(s0)
	.loc 1 844 10
	ld	a0,-64(s0)
	call	StrSize
	sd	a0,-32(s0)
	.loc 1 845 20
	ld	a5,-32(s0)
	addi	a5,a5,8
	mv	a0,a5
	call	AllocatePool
	sd	a0,-40(s0)
	.loc 1 846 6
	ld	a5,-40(s0)
	beq	a5,zero,.L100
	.loc 1 847 14
	ld	a5,-40(s0)
	sd	a5,-48(s0)
	.loc 1 848 27
	ld	a5,-48(s0)
	li	a4,4
	sb	a4,0(a5)
	.loc 1 849 30
	ld	a5,-48(s0)
	li	a4,4
	sb	a4,1(a5)
	.loc 1 850 14
	ld	a5,-48(s0)
	addi	a5,a5,4
	.loc 1 850 5
	ld	a2,-32(s0)
	ld	a1,-64(s0)
	mv	a0,a5
	call	CopyMem
	.loc 1 851 30
	ld	a4,-48(s0)
	.loc 1 851 5
	ld	a5,-32(s0)
	addi	a5,a5,4
	mv	a1,a5
	mv	a0,a4
	call	SetDevicePathNodeLength
	.loc 1 852 47
	ld	a5,-48(s0)
	.loc 1 852 27
	mv	a0,a5
	call	NextDevicePathNode
	mv	a5,a0
	.loc 1 852 5
	mv	a0,a5
	call	SetDevicePathEndNode
	.loc 1 854 8
	ld	a5,-56(s0)
	beq	a5,zero,.L101
	.loc 1 855 20
	ld	a0,-56(s0)
	call	DevicePathFromHandle
	sd	a0,-24(s0)
.L101:
	.loc 1 858 18
	ld	a1,-40(s0)
	ld	a0,-24(s0)
	call	AppendDevicePath
	sd	a0,-24(s0)
	.loc 1 859 5
	ld	a0,-40(s0)
	call	FreePool
.L100:
	.loc 1 862 10
	ld	a5,-24(s0)
	.loc 1 863 1
	mv	a0,a5
	ld	ra,56(sp)
	.cfi_restore 1
	ld	s0,48(sp)
	.cfi_restore 8
	.cfi_def_cfa 2, 64
	addi	sp,sp,64
	.cfi_def_cfa_offset 0
	jr	ra
	.cfi_endproc
.LFE18:
	.size	FileDevicePath, .-FileDevicePath
	.text
.Letext0:
	.file 2 "/home/xephyr/Documents/edk2/MdePkg/Include/RiscV64/ProcessorBind.h"
	.file 3 "/home/xephyr/Documents/edk2/MdePkg/Include/Base.h"
	.file 4 "/home/xephyr/Documents/edk2/MdePkg/Include/Uefi/UefiBaseType.h"
	.file 5 "/home/xephyr/Documents/edk2/MdePkg/Include/Uefi/UefiMultiPhase.h"
	.file 6 "/home/xephyr/Documents/edk2/MdePkg/Include/Guid/WinCertificate.h"
	.file 7 "/home/xephyr/Documents/edk2/MdePkg/Include/Guid/PcAnsi.h"
	.file 8 "/home/xephyr/Documents/edk2/MdePkg/Include/Protocol/DevicePath.h"
	.file 9 "/home/xephyr/Documents/edk2/MdePkg/Include/Protocol/SimpleTextIn.h"
	.file 10 "/home/xephyr/Documents/edk2/MdePkg/Include/Protocol/SimpleTextInEx.h"
	.file 11 "/home/xephyr/Documents/edk2/MdePkg/Include/Protocol/SimpleTextOut.h"
	.file 12 "/home/xephyr/Documents/edk2/MdePkg/Include/Uefi/UefiSpec.h"
	.file 13 "/home/xephyr/Documents/edk2/MdePkg/Include/Guid/HiiFormMapMethodGuid.h"
	.file 14 "/home/xephyr/Documents/edk2/MdePkg/Include/Protocol/DebugSupport.h"
	.file 15 "/home/xephyr/Documents/edk2/MdePkg/Include/Protocol/MmCpuIo.h"
	.file 16 "/home/xephyr/Documents/edk2/Build/Mde/DEBUG_GCC5/RISCV64/MdePkg/Library/UefiDevicePathLib/UefiDevicePathLibStandaloneMm/DEBUG/AutoGen.h"
	.file 17 "/home/xephyr/Documents/edk2/MdePkg/Include/Protocol/DevicePathUtilities.h"
	.file 18 "/home/xephyr/Documents/edk2/MdePkg/Include/Protocol/DebugPort.h"
	.file 19 "/home/xephyr/Documents/edk2/MdePkg/Include/Protocol/DevicePathToText.h"
	.file 20 "/home/xephyr/Documents/edk2/MdePkg/Include/Protocol/DevicePathFromText.h"
	.file 21 "/home/xephyr/Documents/edk2/MdePkg/Include/Library/UefiBootServicesTableLib.h"